MPASM 5.66                 RGB101G3_MAIN.ASM   4-6-2016  9:04:50         PAGE  1


LOC  OBJECT CODE     LINE SOURCE TEXT
  VALUE

                      00001 ; ********************************************************************************
                      00002 ; RGB101G3 code for use with the RGB LED Moodlight PCB 101
                      00003 ; Core code is based on Generic RGB Standalone LED driver version 3.0.3 (28/09/2008)
                      00004 ;
                      00005 ; rgb101g3 for use with circuit version 101D
                      00006 ; http://picprojecs.org.uk/projects/rgb101/
                      00007 ;
                      00008 ; Pete Griffiths (c) 2010
                      00009 ; info@picprojects.org.uk
                      00010 ; Written and assembled using MPLAB v8.56
                      00011 ;
                      00012 ; -----------------------------------------------------------------------------------
                      00013 
                      00014 
                      00015 
                      00016 ; -----------------------------------------------------------------------------------
                      00017 ; Code to fade between colours is completely rewritten to use variable rate of change
                      00018 ; so that all three LEDs arrive at their new levels simultaneously.
                      00019 ;
                      00020 ; This code will run on 12F629 / 12F675 and 12F683. Select the desired processor
                      00021 ; from the Configure - Select Device menu option in MPLAB IDE, then use the
                      00022 ; Project - Quickbuild option to create the .HEX output file.
                      00023 ; 
                      00024 ; Look for errors during assembly. In particular errors in the SequenceData.inc
                      00025 ; file that indicate either a missing comma in the data, or more data than the 
                      00026 ; chosen PIC has available program memory.
                      00027 ; 
                      00028 ; Be carefull to enter the data in the SequenceData.inc file correctly.  The program
                      00029 ; is only smart enough to work out where your sequences start and finish if you enter
                      00030 ; it in the correct format.  Errors in the data may cause the code to crash.
                      00031 ;
                      00032 ; ********************************************************************************
                      00033 ; Note: For 12F629 and 12F675
                      00034 ; All timings are based on the internal 4Mhz PIC oscillator.  The OSCCAL value is read
                      00035 ; from program memory at 0x3FF and written to the OSCAL register.  This value must be
                      00036 ; present and correct. 
                      00037 ;
                      00038 ;             -=# IF IT IS MISSING THE CODE WILL NOT RUN CORRECTLY #=-
                      00039 ; See http://picprojects.org.uk/projects/recal/ if you need to recalibrate the PIC
                      00040 ;
                      00041 ; This does not apply to 12F683 as it doesn't use this method to calibrate the oscillator
                      00042 ;
                      00043 ; ********************************************************************************
                      00044 ; Pinout connections 
                      00045 ;                            ___ ___
                      00046 ;                       Vdd -|1 ^ 8|- Vss
                      00047 ;      Sequence Change Sw1  -|2   7|- red output
                      00048 ;              blue output  -|3   6|- green output
                      00049 ;  MCLR. tie to Vdd via 1K  -|4   5|- not used
                      00050 ;                           ¯¯¯¯¯¯¯
                      00051 ;  Ensure that MCLR is pulled to Vdd using 1K resistor for 12F629/675. 
                      00052 ;
                      00053 ; Sw1 performs multiple functions.
MPASM 5.66                 RGB101G3_MAIN.ASM   4-6-2016  9:04:50         PAGE  2


LOC  OBJECT CODE     LINE SOURCE TEXT
  VALUE

                      00054 ;  1. single press to hold / run displayed colour sequence
                      00055 ;  2. double press to step to next sequence
                      00056 ;  3. press and hold >1.5 seconds to enter sleep mode
                      00057 ;     in sleep mode press, hold for >1.5 seconds then release to wake from sleep
                      00058 ;
                      00059 ;  note :double press is like double clicking a mouse button when using a PC.
                      00060 ;
                      00061 ;
                      00062 ; ********************************************************************************
                      00063 ; Revision information
                      00064 ; rgb101g3_main.asm version 3.0.0
                      00065 ;
                      00066 ;  First release
                      00067 ;  This code is based on genrgbsa version 3.0.3 code with modification for use
                      00068 ;  with the revised I/O pin use on PCB Revsision 101D
                      00069 ;
                      00070 ;  
                      00071 ;
                      00072 ; ********************************************************************************
                      00073 
                      00074   IFDEF  __12F683
                      00075                 #include "p12f683.inc"
                      00076                 #define ADCpresent
                      00077   ENDIF
                      00078 
                      00079           
                      00080   IFDEF  __12F675
                      00081                 #include "p12f675.inc"
                      00082                 #define ADCpresent
                      00083   ENDIF
                      00084 
                      00085   IFDEF  __12F629
                      00086                 #include "p12f629.inc"
                      00001         LIST
                      00002 
                      00003 ;==========================================================================
                      00004 ; Build date : Feb 01 2016
                      00005 ;  MPASM PIC12F629 processor include
                      00006 ; 
                      00007 ;  (c) Copyright 1999-2016 Microchip Technology, All rights reserved
                      00008 ;==========================================================================
                      00009 
                      00339         LIST
                      00087                 
                      00088   ENDIF
                      00089 
                      00090   IFDEF __12F683                
                      00091      __CONFIG       _CP_OFF & _WDT_OFF & _BOD_OFF &_PWRTE_ON & _INTRC_OSC_NOCLKOUT & _MCLRE_ON & _CPD_OF
                            F
                      00092   ELSE
2007   3FA4           00093      __CONFIG       _CP_OFF & _WDT_OFF & _BODEN_OFF & _PWRTE_ON & _INTRC_OSC_NOCLKOUT & _MCLRE_ON & _CPD
                            _OFF
                      00094   ENDIF
MPASM 5.66                 RGB101G3_MAIN.ASM   4-6-2016  9:04:50         PAGE  3


LOC  OBJECT CODE     LINE SOURCE TEXT
  VALUE

                      00095   
                      00096                 errorlevel -302 ; suppress banksel warning messages
                      00097        
                      00098 ; Program data memory variables
                      00099 ; --------------------------------------------
                      00100 ;          
                      00101                 cblock          0x20 
                      00102                                  
  00000020            00103                  rdir           ; red fade direction
  00000021            00104                  gdir           ; green fade direction
  00000022            00105                  bdir           ; blue fade direction
  00000023            00106                  Rdif           ; absolute difference between red now and next
  00000024            00107                  Gdif           ; absolute difference between green now and next
  00000025            00108                  Bdif           ; absolute difference between blue now and next
  00000026            00109                  Rcnt           ; fade step counter red
  00000027            00110                  Gcnt           ; fade step counter green
  00000028            00111                  Bcnt           ; fade step counter blue
  00000029            00112                  CntBase        ; fade base count holding variable
  0000002A            00113                  rpwmWkg        ; temp working variable for PWM
  0000002B            00114                  gpwmWkg        ; temp working variable for PWM
  0000002C            00115                  bpwmWkg        ; temp working variable for PWM
  0000002D            00116                  fadeflag       ; fade complete flag variable
  0000002E            00117                  pwmramp        ; pwm ramp counter
  0000002F            00118                  driveLevel     ; select drive level
  00000030            00119                  sbl            ; Sequence Base Low
  00000031            00120                  sbh            ; Sequence Base High
  00000032            00121                  seql           ; Current Sequence data pointer Low
  00000033            00122                  seqh           ; Current Sequence data pointer High
  00000034            00123                  currentSeqNo   ; Current Sequence No
  00000035            00124                  highSeqNo      ; Highest Sequence No
  00000036            00125                  rate           ; Fade rate
  00000037            00126                  hold           ; Sequence hold time
  00000038            00127                  rnew           ; red data
  00000039            00128                  gnew           ; green data
  0000003A            00129                  bnew           ; blue data
  0000003B            00130                  seqSwCnt       ; sequence switch counter
  0000003C            00131                  seqSwDblClk    ; seqence switch double click counter
  0000003D            00132                  saveCntPS      ; save to EERPOM counter prescaler
  0000003E            00133                  fadeTimer      ; fade rate timer counter
  0000003F            00134                  holdTimerPS    ; hold timer prescaler
  00000040            00135                  holdTimerHi    ; hold timer counter
                      00136 
  00000041            00137          base:6         ; eeprom save data buffer
  00000047            00138          saveCnt        ; save to EEPROM counter 
  00000048            00139                  savedSeqNo     ; saved Sequence No read from EEPROM
  00000049            00140                  freeze         ; SW1 run/freeze flag
  0000004A            00141                  ess            ; eeprom save state flag                                 
  0000004B            00142                  FSRsave        ; used to save FSR reg which is usedby two functions.
  0000004C            00143                  rpwm           ; red pwm level
  0000004D            00144                  gpwm           ; green pwm level
  0000004E            00145                  bpwm           ; blue pwm level
                      00146 
                      00147         endc
MPASM 5.66                 RGB101G3_MAIN.ASM   4-6-2016  9:04:50         PAGE  4


LOC  OBJECT CODE     LINE SOURCE TEXT
  VALUE

                      00148 
                      00149 
                      00150 
                      00151                 
                      00152 ;----------------------------------------------------------
                      00153 ; program Constants - DO NOT change them
  000000B3            00154 cTIMER          equ             .179            ; Timer 0 constant 
                      00155                                                 ; for 5mS timer tick
                      00156 
  0000000A            00157 cHOLDPRESCALER  equ             .10             ; rgb hold counter prescaler
                      00158                                                 ; 5mS x Prescaler x holdtime
                      00159                                                                 
  00000008            00160 cSAVETIMER      equ             .8              ; time after last seq switch change
                      00161                                                 ; before saving to EEPROM
                      00162                                                 ; in increments of 1.28S
                      00163 
                      00164 ;----------------------------------------------------------
                      00165 ; GPIO port variables - DO NOT change them
  00000000            00166 red             equ             0               ;out
  00000001            00167 green           equ             1               ;out
  00000004            00168 blue            equ             4               ;out
  00000003            00169 gpio3           equ             3               ;in (only)
  00000002            00170 auxIn           equ             2               ;in
  00000005            00171 seqSw           equ             5               ;in
                      00172                 
                      00173 ;----------------------------------------------------------
                      00174 ;
                      00175 ;
                      00176 ; Bank Select macro instructions
                      00177 #define         setbank0        bcf             STATUS,RP0      ; Sel Bank 0
                      00178 #define         setbank1        bsf             STATUS,RP0      ; Sel Bank 1
                      00179                 
                      00180                 org 0x000
                      00181                 
                      00182                 include         rgb101g3_start.inc
                      00001 ; ******************************************************************************************************
                      00002 ; Initialisation and startup code block
                      00003 ; ------------------------------------------------------------------------------------------------------
                      00004 
0000                  00005 _startup
                      00006 
                      00007        
0000   0185           00008                 clrf            GPIO
                      00009  
0001   1683           00010                 setbank1                        ; switch to register bank 1
0002   30EC           00011                 movlw           ~(1<<red | 1<<green | 1<<blue ) ; Set up W for output bits
0003   0085           00012                 movwf           TRISIO
                      00013                 
                      00014   IFDEF OSCCAL                                  ; defined only for 12F629 / 675
0004   23FF           00015                 call            0x3FF           ; read factory oscillator calibration value
0005   0090           00016                 movwf           OSCCAL          ; write to OSCCAL register
                      00017                                                 ; If using a 12F629/675 this value must be present
                      00018                                                 ; and correct, or the code will not function properly
MPASM 5.66                 RGB101G3_MAIN.ASM   4-6-2016  9:04:50         PAGE  5


LOC  OBJECT CODE     LINE SOURCE TEXT
  VALUE

                      00019                                                 ; if it functions at all.
                      00020   ENDIF
                      00021 
                      00022   IFDEF ADCpresent
                      00023                 clrf            ANSEL           ; Set ports for digital mode (12F675 / 12F683 only)
                      00024   ENDIF
                      00025                                 
0006   3005           00026                 movlw           b'00000101'     ;setup option register
                      00027                 ;                 ||||||||---- PS0 - Timer 0: Prescalar 1:64
                      00028                 ;                 |||||||----- PS1 - .......
                      00029                 ;                 ||||||------ PS2 - .......
                      00030                 ;                 |||||------- PSA -  Assign prescaler to Timer0
                      00031                 ;                 ||||-------- TOSE - LtoH edge          (Don't care)
                      00032                 ;                 |||--------- TOCS - Timer0 uses IntClk (Don't care)
                      00033                 ;                 ||---------- INTEDG - falling edge RB0 (Don't care)
                      00034                 ;                 |----------- GPPU - pull-ups enabled 
0007   0081           00035                 movwf           OPTION_REG
                      00036 
0008   1695           00037                 bsf             WPU,seqSw       ; enable weak-pull-up for seqSw input
0009   1515           00038                 bsf             WPU,auxIn       ; enable weak-pull-up on auxIn input
                      00039                                                 ; GPIO3 has no weak-pull-up feature
                      00040 
000A   1696           00041                 bsf             IOC,seqSw       ; Enable Interrupt-on-change for seqSw input
                      00042 
000B   1283           00043                 setbank0
                      00044                 
000C   3007           00045                 movlw           0x07            ; load W=7
                      00046   IFDEF __12F683
                      00047                 movwf           CMCON0          ; disable Comparator on 12F683
                      00048   ELSE
000D   0099           00049                 movwf           CMCON           ; disable Comparator on 12F675/627
                      00050   ENDIF
000E   158B           00051                 bsf             INTCON,GPIE     ; Enable Interrupt-on-change (to wake PIC from sleep)
                      00052 
                      00053                 ; Clear GPR memory
                      00054                 ; ---------------------------------------------------------------
                      00055                 
000F   3020           00056                 movlw           0x20            ; load W with address of first GPR memory
0010   0084           00057                 movwf           FSR             ; save in FSR indirection register
0011   00DF           00058                 movwf           0x5F            ; save a non-zero value to last GPR memory (addr 0x5F)
0012   0180           00059 _clrNext        clrf            INDF            ; clear contents of register pointed to by FSR
0013   0A84           00060                 incf            FSR,F           ; increment FSR
0014   08DF           00061                 movf            0x5F,F          ; Test value in last GPR memory location
0015   1D03           00062                 skpz                            ; skip next if last GPR has been cleared
0016   2???           00063                 goto            _clrNext        ; otherwise, repeat until done.
                      00064 
                      00065                 ; Initialise specific variables
                      00066                 ; ---------------------------------------------------------------
0017   2???           00067                 call            _advResetBase
0018   30B3           00068                 movlw           cTIMER
0019   0081           00069                 movwf           TMR0
001A   110B           00070                 bcf             INTCON,T0IF
001B   300A           00071                 movlw           cHOLDPRESCALER
MPASM 5.66                 RGB101G3_MAIN.ASM   4-6-2016  9:04:50         PAGE  6


LOC  OBJECT CODE     LINE SOURCE TEXT
  VALUE

001C   00BF           00072                 movwf           holdTimerPS
                      00073                 
                      00074 
                      00075                 ; ---------------------------------------------------------------
                      00076                 ; Find how many sequences are available
                      00077                 ; Get last sequence in use from EEPROM
                      00078                 ; verify it is equal to or less than available number of sequences
                      00079                 ; initialise current sequence data
                      00080                 
                      00081                 
001D   2???           00082 _findNoSeq      call            _advSeq         ; advance to next available sequence
001E   1D03 2???      00083                 bnz             _getSavedSeq    ; branch out if W != 0. Reached last sequence
0020   0AB5           00084                 incf            highSeqNo,F     ; else increment high sequence counter
0021   2???           00085                 goto            _findNoSeq      ; and repeat.
                      00086 
0022   2???           00087 _getSavedSeq    call            _readEEPROM      ; read saved sequence No from EEPROM
0023   1903 2???      00088         bz      _checksumOK
0025   2???           00089         call    _initEEPROM
0026   2???           00090         goto    _getSavedSeq    
                      00091 
0027   0848           00092 _checksumOK     movfw           savedSeqNo      ; write to saved Sequence No
0028   0235           00093                 subwf           highSeqNo,W     ; compare to highest available seq
0029   1C03           00094                 skpc                    ; branch if saved <= highest
002A   2???           00095                 call            _initEEPROM     ; and save to EEPROM
                      00096                 
                      00097                                 
002B   0848           00098 _compSeqNo      movfw           savedSeqNo      ; put saved sequence No into W reg
002C   0634           00099                 xorwf           currentSeqNo,W  ; compare to current sequence No
002D   1903 2???      00100                 bz              _seqSet         ; branch if match
002F   2???           00101                 call            _advSeq         ; else advance to next sequence
0030   2???           00102                 goto            _compSeqNo      ; and compare again
0031   2???           00103 _seqSet call            _seqData        ; initialise first sequence data
0032   1C49           00104         btfss   freeze,0        ; if freeze active, skip fade initialisation
0033   2???           00105         call            _fadeDir        ; initialise fade direction
                      00106               
0034   30FF           00107         movlw           0xFF            ; set LED drive to active Low    
                      00108 
                      00109 
                      00110   
0035   2???           00111                 goto            _pwmDriveHi       ; Go and run the main code
                      00183                 include         rgb101g3_func.inc
                      00001 ; ********************************************************************************
                      00002 ; RGB Stand-alone driver Functions include file
                      00003 
                      00004 ; Functions
                      00005 ; --------------------------------------------------------
                      00006 ;
                      00007 ;
                      00008 ;_pwmDrive      drive RGB LEDs with a PWM signal to control brightness
                      00009 ;               code loops continually.
                      00010 ;               Input on GPIO,4 determines whether active drive is high or low
                      00011 ;               The input is only read at power-on / reset.
                      00012 ;
MPASM 5.66                 RGB101G3_MAIN.ASM   4-6-2016  9:04:50         PAGE  7


LOC  OBJECT CODE     LINE SOURCE TEXT
  VALUE

                      00013 ; _seqData      Loads next data block for current sequence
                      00014 ;               resets to start at end of data
                      00015 ;               no parameters. contents of W lost
                      00016 ;
                      00017 ; _advSeq       Advance to next sequence.
                      00018 ;               Set Sequence No counter
                      00019 ;               Reset to first seqence when it reaches end
                      00020 ;               of available sequences.
                      00021 ;               no parameters.
                      00022 ;               return W=1, reset to first sequence
                      00023 ;               teturn W=0, not reset to first sequence
                      00024 ;
                      00025 ;_advResetBase  Initialise sequence data pointer variables
                      00026 ;               no parameters, contents of W lost
                      00027 ;               
                      00028 ;_sleep         If Sequence switch held down for over 1.2S 
                      00029 ;               put PIC to sleep
                      00030 ;               no parameters, PIC resets after return from sleep
                      00031 ;
                      00032 ;_initEEPROM    Initialise EEPROM with valid default values
                      00033 ;               initiate save and wait until it has completed.               
                      00034 ;
                      00035 ;
                      00036 ;_essRun        EERPOM Save State function 
                      00037 ;               set ess variable == 1 to start save
                      00038 ;               ess == 0 save complete / idle               
                      00039 ;               ess == 2 save in progress
                      00040 ;               (this function calls other sub functions)
                      00041 ;
                      00042 ;
                      00043 ;_readEERPOM    Restore saved sequence state from EEPROM
                      00044 ;               no parameters
                      00045 ;               W destroyed
                      00046 ;               (this function calls other sub functions)
                      00047 ;
                      00048 ;------------------------------------------------
                      00049 ; PWM Driver 
                      00050 ; 
                      00051 ;
                      00052            
                      00053 
0036   0FAE           00054 _pwmDriveHi     incfsz          pwmramp,F
0037   2???           00055                 goto            _noRolloverHi
0038   0AAE           00056                 incf            pwmramp,F
                      00057                 
0039   084C           00058                 movfw           rpwm
003A   00AA           00059                 movwf           rpwmWkg
003B   0F2A           00060                 incfsz          rpwmWkg,W
003C   1005           00061                 bcf             GPIO,red
                      00062 
003D   084D           00063                 movfw           gpwm
003E   00AB           00064                 movwf           gpwmWkg
003F   0F2B           00065                 incfsz          gpwmWkg,W
MPASM 5.66                 RGB101G3_MAIN.ASM   4-6-2016  9:04:50         PAGE  8


LOC  OBJECT CODE     LINE SOURCE TEXT
  VALUE

0040   1085           00066                 bcf             GPIO,green
                      00067 
0041   084E           00068                 movfw           bpwm
0042   00AC           00069                 movwf           bpwmWkg
0043   0F2C           00070                 incfsz          bpwmWkg,W
0044   1205           00071                 bcf             GPIO,blue
                      00072                 
0045   190B           00073                 btfsc           INTCON,T0IF
0046   2???           00074                 call            _timerOut
                      00075 
                      00076                 
0047   0AAA           00077 _noRolloverHi   incf            rpwmWkg,F
0048   1903           00078                 skpnz
0049   1405           00079                 bsf             GPIO,red
                      00080 
004A   0AAB           00081                 incf            gpwmWkg,F
004B   1903           00082                 skpnz
004C   1485           00083                 bsf             GPIO,green
                      00084 
004D   0AAC           00085                 incf            bpwmWkg,F
004E   1903           00086                 skpnz
004F   1605           00087                 bsf             GPIO,blue
                      00088                                 
0050   2???           00089                 goto            _pwmDriveHi
                      00090 
                      00091 
                      00092 
                      00093 
                      00094 
                      00095 
                      00096 ;----------------------------------------------
                      00097 ; Cycle through single sequence.
                      00098 ;
0051   2???           00099 _seqData        call            _seqLookup      ; read data
0052   00B6           00100                 movwf           rate            ; save in rate
0053   3E01           00101                 addlw           .1              ; add 1 (test for 255)
0054   1903 2???      00102                 bz              _seqRestart     ; if data was 255 reset seq
0056   3036           00103                 movlw           rate            ; load W with address of rate var
0057   0084           00104                 movwf           FSR             ; write to FSR
                      00105                 
0058   0A84           00106 _seqNxtData     incf            FSR,F           ; increment FSR
0059   0AB2           00107                 incf            seql,F          ; increment seq pointer low
005A   1903           00108                 skpnz                           ; skip if result != 0
005B   0AB3           00109                 incf            seqh,f          ; increment seq pointer high
                      00110                 
005C   2???           00111                 call            _seqLookup      ; read data
005D   0080           00112                 movwf           INDF            ; save via Indirection 
005E   303A           00113                 movlw           bnew            ; load W with address of blue new var
005F   0604           00114                 xorwf           FSR,W           ; test if FSR == address of blue new var
0060   1D03 2???      00115                 bnz             _seqNxtData     ; if not read next data byte
0062   0AB2           00116                 incf            seql,F          ; otherwise increment seq data pointer
0063   1903           00117                 skpnz                           ; ready for next
0064   0AB3           00118                 incf            seqh,F          ; call to get seq data
MPASM 5.66                 RGB101G3_MAIN.ASM   4-6-2016  9:04:50         PAGE  9


LOC  OBJECT CODE     LINE SOURCE TEXT
  VALUE

                      00119                 
0065   0008           00120                 return
                      00121 
                      00122 
0066   0830           00123 _seqRestart     movfw           sbl             ; get sequence base low
0067   00B2           00124                 movwf           seql            ; save to current sequence low
0068   0831           00125                 movfw           sbh             ; get sequence base high
0069   00B3           00126                 movwf           seqh            ; save to current seqence high
006A   2???           00127                 goto            _seqData        ; load start of sequence
                      00128                 
006B   0833           00129 _seqLookup      movfw           seqh            ; data table lookup
006C   008A           00130                 movwf           PCLATH
006D   0832           00131                 movfw           seql
006E   0082           00132                 movwf           PCL
                      00133                 
                      00134 ;----------------------------------------------
                      00135 ; Advance to next sequence (cycle)
                      00136 ;
006F   2???           00137 _advSeq         call            _advLookup      
0070   3E01           00138                 addlw           0x01
0071   1903 2???      00139                 bz              _advEnd
0073   3005           00140                 movlw           0x05
0074   07B0           00141                 addwf           sbl,f
0075   1803           00142                 skpnc
0076   0AB1           00143                 incf            sbh,f
0077   2???           00144                 goto            _advSeq
                      00145                 
                      00146 
0078   0AB4           00147 _advEnd         incf            currentSeqNo,F
0079   0AB0           00148                 incf            sbl,f
007A   1903           00149                 skpnz
007B   0AB1           00150                 incf            sbh,f
007C   2???           00151                 call            _advLookup
007D   3E01           00152                 addlw           0x01
007E   1903           00153                 skpnz           
007F   2???           00154                 goto            _advResetBase
0080   0830           00155                 movfw           sbl
0081   00B2           00156                 movwf           seql
0082   0831           00157                 movfw           sbh
0083   00B3           00158                 movwf           seqh
0084   0103           00159                 clrw                            ; return with W = 0
0085   0008           00160                 return
                      00161                 
                      00162                                 
0086   01B4           00163 _advResetBase   clrf            currentSeqNo
0087   30??           00164                 movlw           HIGH _base
0088   00B1           00165                 movwf           sbh
0089   00B3           00166                 movwf           seqh
008A   30??           00167                 movlw           LOW _base
008B   00B0           00168                 movwf           sbl
008C   00B2           00169                 movwf           seql
008D   38FF           00170                 iorlw           0xFF            ; return with W != 0
008E   0008           00171                 return
MPASM 5.66                 RGB101G3_MAIN.ASM   4-6-2016  9:04:50         PAGE 10


LOC  OBJECT CODE     LINE SOURCE TEXT
  VALUE

                      00172 
                      00173                 ;-------------------------
                      00174                 ; lookup
008F   0831           00175 _advLookup      movfw           sbh
0090   008A           00176                 movwf           PCLATH
0091   0830           00177                 movfw           sbl
0092   0082           00178                 movwf           PCL
                      00179 
                      00180 ;-------------------------------------------
                      00181 ; Fade Direction
                      00182 ; 
                      00183 
0093   0837           00184 _fadeDir        movfw           hold            ; Set hold timer
0094   00C0           00185                 movwf           holdTimerHi
0095   0836           00186                 movfw           rate            ; Set fade rate timer
0096   00BE           00187                 movwf           fadeTimer       
0097   1D03 2???      00188                 bnz             _calcFade       ; if fade rate == 0
0099   0838           00189                 movfw           rnew            ; No fade so load
009A   00CC           00190                 movwf           rpwm            ; pwm variables
009B   0839           00191                 movfw           gnew            ; with new data
009C   00CD           00192                 movwf           gpwm            ; to get instant
009D   083A           00193                 movfw           bnew            ; colour change
009E   00CE           00194                 movwf           bpwm            ; ...
009F   01AD           00195                 clrf            fadeflag        ; clear fade flag so code goes straight to hold
00A0   0008           00196                 return                          ; return
                      00197                 
                      00198 
                      00199 ;-------------------------------------------
                      00200 ; Calculate the difference between current and new
                      00201 ; PWM value for each colour. Set fade direction to +/-1
                      00202                 
                      00203                 
00A1   3013           00204 _calcFade       movlw           (1<<red | 1<<green | 1<<blue)
00A2   00AD           00205                 movwf           fadeflag        ; preset fade flag
00A3   3001           00206                 movlw           0x01            ; preset fade direction to +1 for each colour
00A4   00A0           00207                 movwf           rdir
00A5   00A1           00208                 movwf           gdir
00A6   00A2           00209                 movwf           bdir
                      00210                 
00A7   084C           00211                 movfw           rpwm
00A8   0238           00212                 subwf           rnew,W          ; subtract current from new (W = current - new)
00A9   1803 2???      00213                 bc              _rabs           ; branch if C=1  (current > new)
00AB   03A0           00214                 decf            rdir,F          ; rdir is 1, decrement twice
00AC   03A0           00215                 decf            rdir,F          ; to make rdir -1.
00AD   3C00           00216                 sublw           0x00            ; sub W from 0 to make W positive
00AE   00A3           00217 _rabs           movwf           Rdif            ; save difference between current and new
                      00218 
                      00219 
00AF   084D           00220                 movfw           gpwm
00B0   0239           00221                 subwf           gnew,W          ; subtract current from new (W = current - new)
00B1   1803 2???      00222                 bc              _gabs           ; branch if C=1  (current > new)
00B3   03A1           00223                 decf            gdir,F          ; rdir is 1, decrement twice
00B4   03A1           00224                 decf            gdir,F          ; to make rdir -1.
MPASM 5.66                 RGB101G3_MAIN.ASM   4-6-2016  9:04:50         PAGE 11


LOC  OBJECT CODE     LINE SOURCE TEXT
  VALUE

00B5   3C00           00225                 sublw           0x00            ; sub W from 0 to make W positive
00B6   00A4           00226 _gabs           movwf           Gdif            ; save difference between current and new
                      00227 
00B7   084E           00228                 movfw           bpwm
00B8   023A           00229                 subwf           bnew,W          ; subtract current from new (W = current - new)
00B9   1803 2???      00230                 bc              _babs           ; branch if C=1  (current > new)
00BB   03A2           00231                 decf            bdir,F          ; rdir is 1, decrement twice
00BC   03A2           00232                 decf            bdir,F          ; to make rdir -1.
00BD   3C00           00233                 sublw           0x00            ; sub W from 0 to make W positive
00BE   00A5           00234 _babs           movwf           Bdif            ; save difference between current and new
                      00235 
                      00236 
                      00237 ;-------------------------------------------
                      00238 ; Find largest difference between current and new RGB values
                      00239 ;               
                      00240                 
00BF   0823           00241 _calcLargest    movfw           Rdif
00C0   0224           00242                 subwf           Gdif,W
00C1   1803 2???      00243                 bc              _chkGB
                      00244                 
00C3   0823           00245                 movfw           Rdif
00C4   0225           00246                 subwf           Bdif,W
00C5   0825           00247                 movfw           Bdif
00C6   1803 2???      00248                 bc              _done
00C8   0823           00249                 movfw           Rdif
00C9   2???           00250                 goto            _done
                      00251                 
00CA   0824           00252 _chkGB          movfw           Gdif
00CB   0225           00253                 subwf           Bdif,W
00CC   0825           00254                 movfw           Bdif
00CD   1C03           00255                 skpc            
00CE   0824           00256                 movfw           Gdif
                      00257 
00CF   3C00           00258 _done           sublw           0x00
00D0   00A9           00259                 movwf           CntBase
00D1   00A6           00260                 movwf           Rcnt
00D2   00A7           00261                 movwf           Gcnt
00D3   00A8           00262                 movwf           Bcnt
                      00263                 
00D4   0008           00264                 return
                      00265                 
                      00266 
                      00267 
                      00268 ;-------------------------------------------
                      00269 ; Put PIC to sleep
                      00270 ; 
00D5   3001           00271 _sleep          movlw           .1
00D6   00CA           00272                 movwf           ess             ; force EEPROM save to state to initialise
00D7   2???           00273                 call            _initLoop       ; save to EERPROM
00D8   082F           00274         movfw   driveLevel
00D9   0085           00275         movwf   GPIO    ; turn off all outputs
                      00276                 
00DA   1E85           00277 _waitSwRelSleep btfss           GPIO,seqSw      ; test seqSw
MPASM 5.66                 RGB101G3_MAIN.ASM   4-6-2016  9:04:50         PAGE 12


LOC  OBJECT CODE     LINE SOURCE TEXT
  VALUE

00DB   2???           00278                 goto            _waitSwRelSleep ; wait for it to be released
00DC   300F           00279                 movlw           .15
00DD   2???           00280                 call            _swDelay
                      00281                                 
00DE   0805           00282                 movfw           GPIO            ; read GPIO port to clear Int-on-change 
00DF   100B           00283                 bcf             INTCON,GPIF     ; clear int-on-change flag
00E0   0063           00284                 sleep                           ; put PIC to sleep
00E1   0000           00285                 nop
                      00286 
00E2   305A           00287                 movlw           .90             ; approx. 1 second delay
00E3   2???           00288                 call            _swDelay        ; wait after wake up
00E4   1A85           00289                 btfsc           GPIO,seqSw      ; test switch to see if it is still down
00E5   2???           00290                 goto            _waitSwRelSleep ; if not go back to sleep
00E6   1E85           00291 _waitSwRelWake  btfss           GPIO,seqSw      ; wait for sequence switch to be 
00E7   2???           00292                 goto            _waitSwRelWake  ; released before continuing
00E8   2???           00293                 goto            _startup        ; After wake-up run startup code
                      00294                                                 ; as if it was a power-on startup
                      00295 
                      00296 
00E9   0181           00297 _swDelay        clrf            TMR0            ; delay to debounce the switch
00EA   110B           00298                 bcf             INTCON,T0IF     ; 
00EB   1D0B           00299 _waitSleep      btfss           INTCON,T0IF     ; 
00EC   2???           00300                 goto            _waitSleep
00ED   3EFF           00301                 addlw           -.1
00EE   1D03           00302                 skpz
00EF   2???           00303                 goto            _swDelay
00F0   0008           00304                 return
                      00305 
                      00306 ; *********************************
                      00307 ; EEPROM write
                      00308 ; call with W reg containg sequence # to save
                      00309 ;
00F1   1683           00310 _eeWrite        setbank1
00F2   009A           00311                 movwf           EEDATA          ; save W into EEDATA
00F3   0A9B           00312                 incf            EEADR,F
00F4   151C           00313                 bsf             EECON1,WREN     ; initiate EEPROM write sequence
00F5   3055           00314                 movlw           0x55
00F6   009D           00315                 movwf           EECON2
00F7   30AA           00316                 movlw           0xAA
00F8   009D           00317                 movwf           EECON2
00F9   149C           00318                 bsf             EECON1,WR
00FA   1283           00319                 setbank0
00FB   0008           00320                 return                          ; return
                      00321               
                      00322 ; *********************************
                      00323 ; EEPROM read
                      00324 ; returns with saved sequence # in W reg
                      00325 
00FC   1683           00326 _eeRead         setbank1
00FD   0A9B           00327         incf            EEADR,F
00FE   141C           00328                 bsf             EECON1,RD       ; initiate EEPROM read
00FF   081A           00329                 movf            EEDATA,W        ; load EEPROM data into W
0100   1283           00330         setbank0
MPASM 5.66                 RGB101G3_MAIN.ASM   4-6-2016  9:04:50         PAGE 13


LOC  OBJECT CODE     LINE SOURCE TEXT
  VALUE

0101   0008           00331                 return                          ; return   
                      00332 
                      00333 
                      00334 
                      00335 ; *********************************
                      00336 ; Save state to EEPROM 
                      00337 ;
0102   0ACA           00338 _initEEPROM     incf            ess,F
0103   01C8           00339                 clrf            savedSeqNo
0104   01B4           00340                 clrf            currentSeqNo
0105   01C9           00341                 clrf            freeze
0106   01CC           00342                 clrf            rpwm
0107   01CD           00343                 clrf            gpwm            
0108   01CE           00344                 clrf            bpwm
0109   2???           00345 _initLoop       call            _essRun
010A   08CA           00346                 movf            ess,F
010B   1D03 2???      00347                 bnz             _initLoop
010D   0008           00348                 return
                      00349 
                      00350 
010E   084A           00351 _essRun         movfw           ess             ; load state into W reg
010F   1903           00352                 skpnz                           ; skip next if ess != 0
0110   0008           00353                 return                          ; return (ess idle state)
0111   3EFF           00354                 addlw           -.1             ; test if state == 1
0112   1903 2???      00355                 bz              _essInit        ; run _essInit function if state == 1
                      00356                                                 ; else drop through and run _essSave
                      00357                 ; ess 2
                      00358                 ; 
0114   1683           00359 _essSave        setbank1
0115   081C           00360                 movfw           EECON1          ; read EECON1 register into W
0116   1283           00361                 setbank0
0117   3902           00362                 andlw           (1<<WR)         ; test EEPROM write flag
0118   1D03           00363                 skpz                            ; skip if write complete
0119   0008           00364                 return                          ; return if not
011A   0800           00365                 movfw           INDF            ; get data to write using indirect address
                      00366 
011B   2???           00367                 call            _eeWrite        ; start write
011C   0A84           00368                 incf            FSR,F           ; increment indirect address pointer
011D   0804           00369                 movfw           FSR             ; 
011E   3A47           00370                 xorlw           (base+.6)       ; test if all data written
011F   1903           00371                 skpnz                           ; skip next if not complete
0120   01CA           00372                 clrf            ess             ; else reset state variable to 0 (idle)
0121   0008           00373                 return                          ; and return
                      00374 
                      00375 
                      00376                 ; ess 1
                      00377                 ; copy variables to save into buffer area
0122   0834           00378 _essInit        movfw           currentSeqNo    ; get variable to save
0123   00C1           00379                 movwf           base            ; write to base address
0124   00C6           00380                 movwf           base+.5         ; base+5 holds checksum
0125   084C           00381                 movfw           rpwm            ; get next variable to save
0126   00C2           00382                 movwf           base+.1         ; write to base+1
0127   07C6           00383                 addwf           base+.5,F       ; add to checksum
MPASM 5.66                 RGB101G3_MAIN.ASM   4-6-2016  9:04:50         PAGE 14


LOC  OBJECT CODE     LINE SOURCE TEXT
  VALUE

0128   084D           00384                 movfw           gpwm            ; et al.
0129   00C3           00385                 movwf           base+.2
012A   07C6           00386                 addwf           base+.5,F       ; add to checksum        
012B   084E           00387                 movfw           bpwm
012C   00C4           00388                 movwf           base+.3
012D   07C6           00389                 addwf           base+.5,F       ; add to checksum
012E   0849           00390                 movfw           freeze
012F   00C5           00391                 movwf           base+.4
0130   0746           00392                 addwf           base+.5,W       ; add to checksum
0131   3C00           00393                 sublw           0x00
0132   00C6           00394                 movwf           base+.5
                      00395                                 
0133   3041           00396                 movlw           base            ; load W with address of base
0134   0084           00397                 movwf           FSR             ; write to FSR indirect register
0135   1683           00398                 setbank1
0136   019B           00399                 clrf            EEADR           ; set EEADR to 0
0137   1283           00400                 setbank0                
0138   0ACA           00401                 incf            ess,F           ; set to next state
0139   0008           00402                 return
                      00403 
                      00404 ; *********************************
                      00405 ; Swap FSR with FSRsave;
                      00406 
013A   0804           00407 _swapFSR        movfw           FSR
013B   06CB           00408                 xorwf           FSRsave,F
013C   064B           00409                 xorwf           FSRsave,W
013D   06CB           00410                 xorwf           FSRsave,F
013E   0084           00411                 movwf           FSR
013F   0008           00412                 return          
                      00413 
                      00414 
                      00415 ; *********************************
                      00416 ; Restore state from EEPROM 
                      00417 ;
0140   1683           00418 _readEEPROM     setbank1
0141   189C           00419                 btfsc           EECON1,WR
0142   2???           00420                 goto            $-1
0143   019B           00421                 clrf            EEADR
0144   2???           00422                 call            _eeRead
0145   00C8           00423                 movwf           savedSeqNo
0146   00C7           00424                 movwf           saveCnt
                      00425                 
0147   2???           00426                 call            _eeRead
0148   00CC           00427                 movwf           rpwm
0149   07C7           00428                 addwf           saveCnt,F
                      00429                 
014A   2???           00430                 call            _eeRead
014B   00CD           00431                 movwf           gpwm
014C   07C7           00432                 addwf           saveCnt,F
                      00433 
014D   2???           00434                 call            _eeRead
014E   00CE           00435                 movwf           bpwm
014F   07C7           00436                 addwf           saveCnt,F
MPASM 5.66                 RGB101G3_MAIN.ASM   4-6-2016  9:04:50         PAGE 15


LOC  OBJECT CODE     LINE SOURCE TEXT
  VALUE

                      00437 
0150   2???           00438                 call            _eeRead
0151   00C9           00439                 movwf           freeze
0152   07C7           00440                 addwf           saveCnt,F
                      00441 
0153   2???           00442                 call            _eeRead
0154   0747           00443                 addwf           saveCnt,W       ; returns with checksum in W
0155   0008           00444                 return
                      00184                 include         rgb101g3_tout.inc
                      00001 ;--------------------------------------------------------
                      00002 ; 5mS Time Out
                      00003 ; This code runs approximately every 5mS
                      00004 ; The PWM code calls it at the end of each PWM cycle if TMR0 has
                      00005 ; overflowed.  Because the PWM code takes approximatley 4mS to run
                      00006 ; we add the current TMR0 contents to the cTIMER constant so that
                      00007 ; over a number of passes the average time-out is 5mS
                      00008 ; This method is accurate enough to get predicatable delays
                      00009 ; needed for this application.  However because the write to the timer
                      00010 ; clears the prescaler at some random point, it isn't accurate over
                      00011 ; many seconds or minutes.
                      00012  
                      00013 
0156   0801           00014 _timerOut       movfw           TMR0            ; load current TMR0 into W
0157   3EB3           00015                 addlw           cTIMER          ; add TIMER constant to W
0158   0081           00016                 movwf           TMR0            ; write back to TMR0
0159   110B           00017                 bcf             INTCON,T0IF     ; clear Timer 0 Interrupt flag
                      00018 
                      00019 ;-----------------------------------------------------
                      00020 ; EEPROM save counter
                      00021                                 
015A   2???           00022                 call            _swapFSR
015B   2???           00023                 call            _essRun
015C   2???           00024                 call            _swapFSR
                      00025                 
015D   08C7           00026                 movf            saveCnt,F
015E   1903 2???      00027                 bz              _switchCheck
0160   0BBD           00028                 decfsz          saveCntPS,F
0161   2???           00029                 goto            _switchCheck
0162   0BC7           00030                 decfsz          saveCnt,F
0163   2???           00031                 goto            _switchCheck
0164   3001           00032                 movlw           .1
0165   00CA           00033                 movwf           ess
                      00034 ;-----------------------------------------------------
                      00035 ; Sequence Switch Check
                      00036 
0166   08BC           00037 _switchCheck    movf            seqSwDblClk,F
0167   1D03           00038                 skpz
0168   03BC           00039                 decf            seqSwDblClk,F   
                      00040 
0169   1A85           00041                 btfsc           GPIO,seqSw
016A   2???           00042                 goto            _seqSwUp        
                      00043                                 
016B   0ABB           00044 _seqSwDown      incf            seqSwCnt,F      ; increment seqSwCnt counter variable
MPASM 5.66                 RGB101G3_MAIN.ASM   4-6-2016  9:04:50         PAGE 16


LOC  OBJECT CODE     LINE SOURCE TEXT
  VALUE

                      00045 ;Danh Hoang: turn off sleep mode
                      00046 ;                skpnz                           ; if result == 0, counter has wrapped round
                      00047 ;                goto            _sleep          ; so goto sleep
016C   2???           00048                 goto            _fadeState
                      00049 
016D   30FC           00050 _seqSwUp        movlw           -.4             ; 20mS
016E   073B           00051                 addwf           seqSwCnt,W      ; was switch down for over 20mS
016F   1803 2???      00052                 bc              _swShort
0171   01BB           00053                 clrf            seqSwCnt
0172   2???           00054                 goto            _fadeState
                      00055                 
                      00056 
0173   08BC           00057 _swShort        movf            seqSwDblClk,F
                      00058 ;Danh Hoang: turn off double click mode
                      00059 ;                bnz             _swDoubleClick
                      00060                 
0174   01BB           00061                 clrf            seqSwCnt
0175   3001           00062                 movlw           0x01
0176   06C9           00063                 xorwf           freeze,F
0177   3064           00064                 movlw           .100
0178   00BC           00065                 movwf           seqSwDblClk
0179   3008           00066                 movlw           cSAVETIMER      ; set save to EEPROM timer
017A   00C7           00067                 movwf           saveCnt         ; for delay after last sequence change.
017B   2???           00068                 goto            _fadeState
                      00069 
                      00070 
017C   2???           00071 _swDoubleClick  call            _advSeq         ; advance to next sequence
017D   2???           00072                 call            _seqData        ; get first set of sequence data
017E   01CC           00073                 clrf            rpwm            ; reset current Red pwm to 0
017F   01CD           00074                 clrf            gpwm            ; reset current Greeb pwm to 0
0180   01CE           00075                 clrf            bpwm            ; reset current Blue pwm to 0
0181   2???           00076                 call            _fadeDir        ; set fade direction
0182   300A           00077                 movlw           cHOLDPRESCALER  ; reset hold time prescaler
0183   00BF           00078                 movwf           holdTimerPS
0184   01BB           00079                 clrf            seqSwCnt
0185   3008           00080                 movlw           cSAVETIMER      ; set save to EEPROM timer
0186   00C7           00081                 movwf           saveCnt         ; for delay after last sequence change.
0187   01BC           00082                 clrf            seqSwDblClk
0188   01C9           00083                 clrf            freeze
                      00084 
                      00085                                 
                      00086 
                      00087 ;-----------------------------------------------------
                      00088 ; fade / hold state function select
                      00089                 
0189   1849           00090 _fadeState      btfsc           freeze,0        
018A   0008           00091                 return
                      00092 
018B   08AD           00093                 movf            fadeflag,F
018C   1903 2???      00094                 bz              _holding
                      00095 ;------------------------------------------------------
                      00096 ; fade          
                      00097                 
MPASM 5.66                 RGB101G3_MAIN.ASM   4-6-2016  9:04:50         PAGE 17


LOC  OBJECT CODE     LINE SOURCE TEXT
  VALUE

018E   0BBE           00098 _fading         decfsz          fadeTimer,F
018F   0008           00099                 return
0190   0836           00100                 movfw           rate
0191   00BE           00101                 movwf           fadeTimer
                      00102 
                      00103 ;----------------------------------------
                      00104 ; Fade stepper
                      00105 ;
                      00106 
0192   0838           00107 _Rfade          movfw           rnew
0193   064C           00108                 xorwf           rpwm,W
0194   1D03 2???      00109                 bnz             $+3
0196   102D           00110                 bcf             fadeflag,red
0197   2???           00111                 goto            _Gfade
                      00112 
0198   0823           00113                 movfw           Rdif
0199   07A6           00114                 addwf           Rcnt,F
019A   1C03           00115                 skpc            
019B   2???           00116                 goto            _Gfade
019C   0829           00117                 movfw           CntBase
019D   07A6           00118                 addwf           Rcnt,F
019E   0820           00119                 movfw           rdir
019F   07CC           00120                 addwf           rpwm,F
                      00121                 
01A0   0839           00122 _Gfade          movfw           gnew
01A1   064D           00123                 xorwf           gpwm,W
01A2   1D03 2???      00124                 bnz             $+3
01A4   10AD           00125                 bcf             fadeflag,green
01A5   2???           00126                 goto            _Bfade
                      00127 
01A6   0824           00128                 movfw           Gdif
01A7   07A7           00129                 addwf           Gcnt,F
01A8   1C03           00130                 skpc            
01A9   2???           00131                 goto            _Bfade
01AA   0829           00132                 movfw           CntBase
01AB   07A7           00133                 addwf           Gcnt,F
01AC   0821           00134                 movfw           gdir
01AD   07CD           00135                 addwf           gpwm,F
                      00136 
01AE   083A           00137 _Bfade          movfw           bnew
01AF   064E           00138                 xorwf           bpwm,W
01B0   1D03 2???      00139                 bnz             $+3
01B2   122D           00140                 bcf             fadeflag,blue
01B3   0008           00141                 return
                      00142                 
01B4   0825           00143                 movfw           Bdif
01B5   07A8           00144                 addwf           Bcnt,F
01B6   1C03           00145                 skpc            
01B7   0008           00146                 return          
01B8   0829           00147                 movfw           CntBase
01B9   07A8           00148                 addwf           Bcnt,F
01BA   0822           00149                 movfw           bdir
01BB   07CE           00150                 addwf           bpwm,F
MPASM 5.66                 RGB101G3_MAIN.ASM   4-6-2016  9:04:50         PAGE 18


LOC  OBJECT CODE     LINE SOURCE TEXT
  VALUE

01BC   0008           00151                 return
                      00152 
                      00153 
                      00154 
                      00155 
                      00156 ;------------------------------------------------------
                      00157 ; Hold pwm values timer         
                      00158                 
01BD   08C0           00159 _holding        movf            holdTimerHi,F   ; test holdTimerHi == 0
01BE   1903 2???      00160                 bz              _holdSeqNext    ; no hold if it was 0
                      00161                 
01C0   0BBF           00162                 decfsz          holdTimerPS,F
01C1   0008           00163                 return
01C2   300A           00164                 movlw           cHOLDPRESCALER
01C3   00BF           00165                 movwf           holdTimerPS
01C4   0BC0           00166                 decfsz          holdTimerHi,F
01C5   0008           00167                 return
01C6   2???           00168 _holdSeqNext    call            _seqData
01C7   2???           00169                 call            _fadeDir
                      00170                 
01C8   0008           00171                 return
                      00172 
                      00185                 radix decimal
01C9                  00186 _base
                      00187                 include         SequenceData.inc
                      00001 ;
                      00002 
                      00003 ;       Sequence Data Format
                      00004 ; --------------------
                      00005 ;       fade_rate, hold_time, red, green, blue (all values in decimal)
                      00006 ;       values should be 0 <= value <= 255
                      00007 ;
                      00008 ;       End of current sequence
                      00009 ;       -----------------------
                      00010 ;       fade_rate = 255 tells code that this is then end of the current
                      00011 ;       sequence data.
                      00012 ;
                      00013 ;       End of all sequence data
                      00014 ;       ------------------------
                      00015 ;       fade_rate and hold_time = 255 tells the code that this is the end
                      00016 ;       of the current sequence data AND the end of all sequences.
                      00017 ;
                      00018 ;       Fade Rate
                      00019 ;       ---------
                      00020 ;       fade_rate = 0 --> no fade, new values update immediateley
                      00021 ;       fade_rate >0 and <255 fades from current to new values.
                      00022 ;       The colours fade from the current value to the new value
                      00023 ;       in steps of 1 (i.e. 0 to 100 requires 100 steps)
                      00024 ;       each step takes ~5mS x Fade Rate.
                      00025 ;
                      00026 ;       max fade time with increments of 5mS x fade_rate.
                      00027 ;         1 x 5mS x 255 = 1.27 secs
                      00028 ;         2 x 5mS x 255 = 2.50 secs
MPASM 5.66                 RGB101G3_MAIN.ASM   4-6-2016  9:04:50         PAGE 19


LOC  OBJECT CODE     LINE SOURCE TEXT
  VALUE

                      00029 ;         3 x 5mS x 255 = 3.85 secs
                      00030 ;         4 x 5mS x 255 = 5.10 secs
                      00031 ;         5 x 5mS x 255 = 6.35 secs
                      00032 ;   6 x 5mS x 255 = 7.60 secs
                      00033 ;   ......
                      00034 ; 254 x 5mS x 255 = 3m23s
                      00035 ;
                      00036 ;       Hold Time
                      00037 ;       ---------
                      00038 ;       How long to hold the current RGB colours before getting
                      00039 ;       the next set of RGB values.
                      00040 ;       hold_time = 0 --> no hold, jump to next step in sequence
                      00041 ;       hold_time >0 and <255 hold for 50ms x hold_time
                      00042 ;       1   x 50mS = 50mS
                      00043 ;       254 x 50mS = 12.7 secs
                      00044 ;
                      00045 ;            |---------------------- Fade Rate
                      00046 ;      |    |----------------- Hold time
                      00047 ;      |    |    |------------ Red
                      00048 ;      |    |    |    |------- Green
                      00049 ;      |    |    |    |    |-- Blue
                      00050 ;      |    |    |    |    |
                      00051 
                      00052 
01C9   3402 3400 34FF 00053         dt   2 , 0,255,  0,  0
       3400 3400 
01CE   3405 3400 34FF 00054         dt   5 , 0,255, 40,  0
       3428 3400 
01D3   3414 3400 34FF 00055         dt   20, 0,255,200,  0
       34C8 3400 
01D8   3405 340A 34FF 00056         dt   5 ,10,255,255,  0
       34FF 3400 
01DD   3405 340F 3400 00057         dt   5 ,15,  0,255,  0
       34FF 3400 
01E2   3405 340A 3400 00058         dt   5 ,10,  0,255,255
       34FF 34FF 
01E7   3405 340F 3400 00059         dt   5 ,15,  0,  0,255
       3400 34FF 
01EC   3405 340A 34FF 00060         dt   5 ,10,255,255,255
       34FF 34FF 
                      00061 
01F1   340F 340A 34C8 00062         dt   15,10,200,  0,  0
       3400 3400 
01F6   3405 340A 34FF 00063         dt   5 ,10,255,  0,  0
       3400 3400 
01FB   3414 340A 34FF 00064         dt   20,10,255,  0,200
       3400 34C8 
0200   3405 340A 34FF 00065         dt   5 ,10,255,  0,255
       3400 34FF 
                      00066 
0205   34FF           00067         dt   255                ;seq 1
                      00068 
                      00069 
MPASM 5.66                 RGB101G3_MAIN.ASM   4-6-2016  9:04:50         PAGE 20


LOC  OBJECT CODE     LINE SOURCE TEXT
  VALUE

                      00070         ;dt   0,0,255,  0,  0
                      00071         ;dt   10,50,255,255,  0
                      00072 
                      00073         ;dt   10,0,  0,255,  0
                      00074         ;dt   10,0,  0,255,255
                      00075 
                      00076         ;dt   10,0,  0,  0,255
                      00077         ;dt   10,50,255,  0,255
                      00078 
                      00079         ;dt   10,0,255,  0,  0
                      00080 
                      00081         ;dt   5,0,255,255,255
                      00082 
                      00083         ;dt   10,50,255,255,  0
                      00084         ;dt   5,0,255,255,255
                      00085 
                      00086         ;dt   10,50,255,  0,255
                      00087         ;dt   5,0,255,255,255
                      00088 
                      00089         ;dt   10, 0,  0,255,255
                      00090 
                      00091         ;dt   255               ;seq 1
                      00092 
                      00093         ;dt   5, 5, 255,  0,  0
                      00094         ;dt   5, 20,255,255,  0
                      00095         ;dt   5, 5, 128,255,  0
                      00096         ;dt   5, 5, 255,128,64
                      00097         ;dt   5, 5,0,255,255
                      00098         ;dt   5, 5, 255,255,128
                      00099         ;dt   5, 5, 128,0,64
                      00100         ;dt   5, 5, 255,0,128
                      00101         ;dt   5, 5, 255,255,255
                      00102         ;dt   5, 5,   0,0,255
                      00103         ;dt   5, 5, 255,128,128
                      00104         ;dt   5, 5,255,255,255
                      00105         ;dt   5, 5,0,255,0
                      00106         ;dt   255               ;seq 1
                      00107 
                      00108         ;dt   10, 10, 255,  0,  0
                      00109         ;dt   10, 10, 128,  0,128
                      00110         ;dt   10, 10, 128,255,128
                      00111         ;dt   10, 15, 255,255,  0
                      00112         ;dt   10, 10, 255,255,255
                      00113         ;dt   10, 10,   0,255,255
                      00114         ;dt   10, 10,   0,  0,255
                      00115         ;dt   10, 10,   0,128,128
                      00116         ;dt   10, 10, 255,128,128
                      00117         ;dt   10, 10, 255,  0,255
                      00118         ;dt   10, 10,   0,255,  0
                      00119         ;dt   10, 15, 128,128,  0
                      00120         ;dt   10, 10, 128,128,255
                      00121 
                      00122         ;dt   255               ;seq 1
MPASM 5.66                 RGB101G3_MAIN.ASM   4-6-2016  9:04:50         PAGE 21


LOC  OBJECT CODE     LINE SOURCE TEXT
  VALUE

                      00123 
0206   3408 3405 34A0 00124         dt   8,  5, 160,   0,   0       ; Spectum fade
       3400 3400 
020B   3408 3405 34A0 00125         dt   8,  5, 160, 0,   160
       3400 34A0 
0210   3408 3405 3400 00126         dt   8,  5,   0, 0,   160
       3400 34A0 
0215   3408 3405 3400 00127         dt   8,  5,   0, 160, 160
       34A0 34A0 
021A   3408 3405 3400 00128         dt   8,  5,   0, 160,  0
       34A0 3400 
021F   3408 3405 34A0 00129         dt   8,  5, 160,   0,  160
       3400 34A0 
0224   34FF           00130         dt 255           ; seq 2
                      00131 
                      00132 
0225   3406 3400 34FF 00133         dt   6,   0,  255,  200,  24
       34C8 3418 
022A   3406 3400 34C8 00134         dt   6,   0,  200,  24, 255
       3418 34FF 
022F   3406 3400 3418 00135         dt   6,   0,  24, 255, 200
       34FF 34C8 
0234   34FF           00136         dt 255          ; seq 3
                      00137 
                      00138 
0235   3417 3400 34FF 00139         dt   23,   0,  255,  200,  24
       34C8 3418 
023A   3417 3400 3418 00140         dt   23,   0,  24, 255, 200
       34FF 34C8 
023F   3417 3400 34C8 00141         dt   23,   0,  200, 24, 255
       3418 34FF 
0244   34FF           00142         dt 255          ;seq 4
                      00143 
                      00144 
                      00145 
0245   341E 3400 34FF 00146         dt   30,   0, 255, 128, 0
       3480 3400 
024A   341E 3400 3480 00147         dt   30,   0, 128,255, 0
       34FF 3400 
024F   34FF           00148         dt 255          ; end of sequence 5
                      00149 
                      00150 
0250   341E 3400 34FF 00151         dt  30,   0, 255, 0, 128
       3400 3480 
0255   341E 3400 3480 00152         dt  30,   0, 128, 0, 255
       3400 34FF 
025A   34FF           00153         dt 255          ; end of sequence 6
                      00154 
                      00155 
                      00156 
025B   341E 3400 3400 00157         dt   30,   0, 0,255,128
       34FF 3480 
0260   341E 3402 3400 00158         dt   30,   2, 0,128,255
MPASM 5.66                 RGB101G3_MAIN.ASM   4-6-2016  9:04:50         PAGE 22


LOC  OBJECT CODE     LINE SOURCE TEXT
  VALUE

       3480 34FF 
0265   34FF           00159         dt 255          ; end of sequence 7
                      00160 
                      00161 
                      00162 
                      00163 
                      00164 
                      00165 
0266   3400 3405 34FF 00166         dt   0,   5, 255,   0,   0      ;
       3400 3400 
026B   3401 3400 3400 00167         dt   1,   0,   0,   0,   0
       3400 3400 
0270   3400 3405 3400 00168         dt   0,   5,   0, 255,   0
       34FF 3400 
0275   3401 3400 3400 00169         dt   1,   0,   0,   0,   0
       3400 3400 
027A   3400 3405 3400 00170         dt   0,   5,   0,   0, 255
       3400 34FF 
027F   3401 3400 3400 00171         dt   1,   0,   0,   0,   0
       3400 3400 
0284   34FF           00172         dt 255          ; end of sequence 8
                      00173 
                      00174 
0285   3402 3405 34FF 00175         dt   2,   5, 255,   0,   0      ;
       3400 3400 
028A   3401 3400 3400 00176         dt   1,   0,   0,   0,   0
       3400 3400 
028F   3402 3405 3400 00177         dt   2,   5,   0, 255,   0
       34FF 3400 
0294   3401 3400 3400 00178         dt   1,   0,   0,   0,   0
       3400 3400 
0299   3402 3405 3400 00179         dt   2,   5,   0,   0, 255
       3400 34FF 
029E   3401 3400 3400 00180         dt   1,   0,   0,   0,   0
       3400 3400 
02A3   34FF           00181         dt 255          ; end of sequence
                      00182 
                      00183 
02A4   3402 3401 34FF 00184         dt   2,   1, 255,   0,   0
       3400 3400 
02A9   3402 3401 3400 00185         dt   2,   1,   0, 255,   0
       34FF 3400 
02AE   3402 3401 3400 00186         dt   2,   1,   0,   0, 255
       3400 34FF 
02B3   34FF           00187         dt 255          ; end of sequence
                      00188 
                      00189 
02B4   3402 3401 34FF 00190         dt   2,   1, 255,  64,   0
       3440 3400 
02B9   3402 3401 3440 00191         dt   2,   1,  64,   0, 255
       3400 34FF 
02BE   3402 3401 3400 00192         dt   2,   1,   0, 255,  64
       34FF 3440 
MPASM 5.66                 RGB101G3_MAIN.ASM   4-6-2016  9:04:50         PAGE 23


LOC  OBJECT CODE     LINE SOURCE TEXT
  VALUE

02C3   34FF           00193         dt 255          ; end of sequence
                      00194 
                      00195 
                      00196 
                      00197 
                      00198 
02C4   3400 34FE 34F0 00199         dt   0, 254, 240, 240, 240      ; White Bright
       34F0 34F0 
02C9   34FF           00200         dt 255          ; end of sequence
                      00201 
                      00202 
02CA   3400 34FE 3480 00203         dt   0, 254, 128, 128, 128      ; White Half
       3480 3480 
02CF   34FF           00204         dt 255          ; end of sequence
                      00205 
                      00206 
02D0   3400 34FE 3430 00207         dt   0, 254,  48,  48,  58      ; White Low
       3430 343A 
02D5   34FF           00208         dt 255          ; end of sequence
                      00209 
                      00210 
02D6   3406 340A 34FF 00211         dt   6,  10, 255,   0,   0      ; Spectum fade
       3400 3400 
02DB   3406 340A 34FF 00212         dt   6,  10, 255, 255,   0
       34FF 3400 
02E0   3406 340A 3400 00213         dt   6,  10,   0, 255,   0
       34FF 3400 
02E5   3406 340A 3400 00214         dt   6,  10,   0, 255, 255
       34FF 34FF 
02EA   3406 340A 3400 00215         dt   6,  10,   0,   0, 255
       3400 34FF 
02EF   3406 340A 34FF 00216         dt   6,  10, 255,   0, 255
       3400 34FF 
02F4   34FF           00217         dt 255           ; end of sequence
                      00218 
                      00219 
02F5   3419 3405 34FF 00220         dt  25, 5, 255,   0,   0        ; Spectum fade slow
       3400 3400 
02FA   3419 3405 34FF 00221         dt  25, 5, 255, 255,   0
       34FF 3400 
02FF   3419 3405 3400 00222         dt  25, 5,   0, 255,   0
       34FF 3400 
0304   3419 3405 3400 00223         dt  25, 5,   0, 255, 255
       34FF 34FF 
0309   3419 3405 3400 00224         dt  25, 5,   0,   0, 255
       3400 34FF 
030E   3419 3405 34FF 00225         dt  25, 5, 255,   0, 255
       3400 34FF 
0313   34FF           00226         dt 255          ; end of sequence
                      00227 
                      00228 
0314   3404 340A 34FE 00229         dt   4,  10, 254,  32,   0      ; warm
       3420 3400 
MPASM 5.66                 RGB101G3_MAIN.ASM   4-6-2016  9:04:50         PAGE 24


LOC  OBJECT CODE     LINE SOURCE TEXT
  VALUE

0319   3404 340A 34FE 00230         dt   4,  10, 254, 128,   0
       3480 3400 
031E   3404 340A 34FE 00231         dt   4,  10, 254, 240,   0
       34F0 3400 
0323   3404 340A 3480 00232         dt   4,  10, 128, 240,   0
       34F0 3400 
0328   34FF           00233         dt 255          ; end of sequence
                      00234 
                      00235 
0329   3404 340A 3400 00236         dt   4,  10,   0,  16, 255      ; cool
       3410 34FF 
032E   3404 340A 3400 00237         dt   4,  10,   0, 128, 255
       3480 34FF 
0333   3404 340A 3400 00238         dt   4,  10,   0, 240, 128
       34F0 3480 
0338   3404 340A 3410 00239         dt   4,  10,   16, 16, 240
       3410 34F0 
033D   3404 340A 34F0 00240         dt   4,  10,  240, 16, 240
       3410 34F0 
0342   3404 340A 3440 00241         dt   4,  10,   64,  0, 250
       3400 34FA 
0347   34FF           00242         dt 255          ; end of sequence
                      00243 
0348   340A 3404 34F0 00244         dt  10,   4, 240,   0, 240      ; purple
       3400 34F0 
034D   340A 3404 3420 00245         dt  10,   4,  32,   0, 240
       3400 34F0 
0352   340A 3404 3480 00246         dt  10,   4, 128,   0, 128
       3400 3480 
0357   340A 3404 34F0 00247         dt  10,   4, 240,   0,  32
       3400 3420 
035C   34FF           00248         dt 255           ; end of sequence
                      00249 
035D   3400 3401 34FF 00250         dt   0,   1, 255,   0,   0  ; Cycle Red, Green, Blue. Cycle rate every 50mS
       3400 3400 
0362   3400 3401 3400 00251         dt   0,   1,   0, 255,   0
       34FF 3400 
0367   3400 3401 3400 00252         dt   0,   1,   0,   0, 255
       3400 34FF 
036C   34FF           00253         dt 255          ; end of sequence
                      00254 
                      00255 
036D   3400 3402 34FF 00256         dt   0,   2, 255,   0,   0  ; Cycle Red, Green, Blue. Cycle rate every 100mS (1/10 second)
       3400 3400 
0372   3400 3402 3400 00257         dt   0,   2,   0, 255,   0
       34FF 3400 
0377   3400 3402 3400 00258         dt   0,   2,   0,   0, 255
       3400 34FF 
037C   34FF           00259         dt 255          ; end of sequence
                      00260 
                      00261 
037D   3400 3404 34FF 00262         dt   0,   4, 255,   0,   0  ; Cycle Red, Green, Blue. Cycle rate every 200mS (1/5 second)
       3400 3400 
MPASM 5.66                 RGB101G3_MAIN.ASM   4-6-2016  9:04:50         PAGE 25


LOC  OBJECT CODE     LINE SOURCE TEXT
  VALUE

0382   3400 3404 3400 00263         dt   0,   4,   0, 255,   0
       34FF 3400 
0387   3400 3404 3400 00264         dt   0,   4,   0,   0, 255
       3400 34FF 
038C   34FF           00265         dt 255          ; end of sequence
                      00266 
                      00267 
038D   3400 3406 34FF 00268         dt   0,   6, 255,   0,   0  ; Cycle Red, Green, Blue. Cycle rate every 300mS
       3400 3400 
0392   3400 3406 3400 00269         dt   0,   6,   0, 255,   0
       34FF 3400 
0397   3400 3406 3400 00270         dt   0,   6,   0,   0, 255
       3400 34FF 
039C   34FF           00271         dt 255          ; end of sequence
                      00272 
                      00273 
039D   3400 3408 34FF 00274         dt   0,   8, 255,   0,   0  ; Cycle Red, Green, Blue. Cycle rate every 400mS
       3400 3400 
03A2   3400 3408 3400 00275         dt   0,   8,   0, 255,   0
       34FF 3400 
03A7   3400 3408 3400 00276         dt   0,   8,   0,   0, 255
       3400 34FF 
03AC   34FF           00277         dt 255          ; end of sequence
                      00278 
                      00279 
03AD   3400 340A 34FF 00280         dt   0,  10, 255,   0,   0  ; Cycle Red, Green, Blue. Cycle rate every 500mS (1/2 second)
       3400 3400 
03B2   3400 340A 3400 00281         dt   0,  10,   0, 255,   0
       34FF 3400 
03B7   3400 340A 3400 00282         dt   0,  10,   0,   0, 255
       3400 34FF 
03BC   34FF           00283         dt 255          ; end of sequence
                      00284 
                      00285 
03BD   3400 3414 34FF 00286         dt   0,  20, 255,   0,   0  ; Cycle Red, Green, Blue. Cycle rate every 1000mS (1 second)
       3400 3400 
03C2   3400 3414 3400 00287         dt   0,  20,   0, 255,   0
       34FF 3400 
03C7   3400 3414 3400 00288         dt   0,  20,   0,   0, 255
       3400 34FF 
03CC   34FF           00289         dt 255          ; end of sequence
                      00290 
                      00291 
                      00292 
                      00293 
                      00294 
                      00295 ; flash to show firmware version
                      00296 ; G.R.B = 3.0.3
                      00297 ;
03CD   3400 3405 3400 00298         dt   0,   5, 0, 15, 15          ; red
       340F 340F 
03D2   3400 3403 3400 00299         dt   0,   3,   0,   0,   0              ; off
       3400 3400 
MPASM 5.66                 RGB101G3_MAIN.ASM   4-6-2016  9:04:50         PAGE 26


LOC  OBJECT CODE     LINE SOURCE TEXT
  VALUE

03D7   3400 3405 3400 00300         dt   0,   5, 0, 15, 15          ; red
       340F 340F 
03DC   3400 3403 3400 00301         dt   0,   3,   0,   0,   0              ; off
       3400 3400 
03E1   3400 3405 3400 00302         dt   0,   5, 0, 15, 15          ; red
       340F 340F 
03E6   3400 3403 3400 00303         dt   0,   3,   0,   0,   0              ; off
       3400 3400 
03EB   3400 3414 3400 00304         dt   0,  20,   0,   0,   0              ; off
       3400 3400 
03F0   34FF           00305         dt 255          ; end of sequence
                      00306 
                      00307 
03F1   34FF           00308         dt 255          ; end of all data
                      00309 
                      00310 
                      00188 
                      00189 ;               ------------------------------------------------------------------------
                      00190                 ; Embed code revision into program memory
                      00191                 ;dt "rgb101g3_main.asm 14/09/2010 R3.0.3"  
                      00192                 ; dt "(c) Pete Griffiths 2006-2010 "
                      00193                 ;dt "info@picprojects.org.uk"
                      00194 ;               ------------------------------------------------------------------------
                      00195                 
                      00196                 ;fill 00, 0x3FF-$
                      00197                 
3FA4                  00198                 end
MPASM 5.66                 RGB101G3_MAIN.ASM   4-6-2016  9:04:50         PAGE 27


SYMBOL TABLE
  LABEL                             VALUE 

ADIE                              00000006
ADIF                              00000006
Bcnt                              00000028
Bdif                              00000025
C                                 00000000
CAL0                              00000002
CAL1                              00000003
CAL2                              00000004
CAL3                              00000005
CAL4                              00000006
CAL5                              00000007
CINV                              00000004
CIS                               00000003
CM0                               00000000
CM1                               00000001
CM2                               00000002
CMCON                             00000019
CMIE                              00000003
CMIF                              00000003
COUT                              00000006
CntBase                           00000029
DC                                00000001
EEADR                             0000009B
EECON1                            0000009C
EECON2                            0000009D
EEDAT                             0000009A
EEDATA                            0000009A
EEIE                              00000007
EEIF                              00000007
F                                 00000001
FSR                               00000004
FSRsave                           0000004B
GIE                               00000007
GP0                               00000000
GP1                               00000001
GP2                               00000002
GP3                               00000003
GP4                               00000004
GP5                               00000005
GPIE                              00000003
GPIF                              00000000
GPIO                              00000005
GPIO0                             00000000
GPIO1                             00000001
GPIO2                             00000002
GPIO3                             00000003
GPIO4                             00000004
GPIO5                             00000005
Gcnt                              00000027
Gdif                              00000024
INDF                              00000000
INTCON                            0000000B
INTE                              00000004
MPASM 5.66                 RGB101G3_MAIN.ASM   4-6-2016  9:04:50         PAGE 28


SYMBOL TABLE
  LABEL                             VALUE 

INTEDG                            00000006
INTF                              00000001
IOC                               00000096
IOC0                              00000000
IOC1                              00000001
IOC2                              00000002
IOC3                              00000003
IOC4                              00000004
IOC5                              00000005
IOCB                              00000096
IOCB0                             00000000
IOCB1                             00000001
IOCB2                             00000002
IOCB3                             00000003
IOCB4                             00000004
IOCB5                             00000005
IRP                               00000007
NOT_BOD                           00000000
NOT_BOR                           00000000
NOT_GPPU                          00000007
NOT_PD                            00000003
NOT_POR                           00000001
NOT_T1SYNC                        00000002
NOT_TO                            00000004
OPTION_REG                        00000081
OSCCAL                            00000090
PCL                               00000002
PCLATH                            0000000A
PCON                              0000008E
PEIE                              00000006
PIE1                              0000008C
PIR1                              0000000C
PS0                               00000000
PS1                               00000001
PS2                               00000002
PSA                               00000003
RD                                00000000
RP0                               00000005
RP1                               00000006
Rcnt                              00000026
Rdif                              00000023
STATUS                            00000003
T0CS                              00000005
T0IE                              00000005
T0IF                              00000002
T0SE                              00000004
T1CKPS0                           00000004
T1CKPS1                           00000005
T1CON                             00000010
T1IE                              00000000
T1IF                              00000000
T1OSCEN                           00000003
TMR0                              00000001
MPASM 5.66                 RGB101G3_MAIN.ASM   4-6-2016  9:04:50         PAGE 29


SYMBOL TABLE
  LABEL                             VALUE 

TMR0IE                            00000005
TMR0IF                            00000002
TMR1                              0000000E
TMR1CS                            00000001
TMR1GE                            00000006
TMR1H                             0000000F
TMR1IE                            00000000
TMR1IF                            00000000
TMR1L                             0000000E
TMR1ON                            00000000
TRISIO                            00000085
TRISIO0                           00000000
TRISIO1                           00000001
TRISIO2                           00000002
TRISIO3                           00000003
TRISIO4                           00000004
TRISIO5                           00000005
VR0                               00000000
VR1                               00000001
VR2                               00000002
VR3                               00000003
VRCON                             00000099
VREN                              00000007
VRR                               00000005
W                                 00000000
WPU                               00000095
WPU0                              00000000
WPU1                              00000001
WPU2                              00000002
WPU4                              00000004
WPU5                              00000005
WR                                00000001
WREN                              00000002
WRERR                             00000003
Z                                 00000002
_.org_0_0142                      00000142
_.org_0_0195                      00000195
_.org_0_01A3                      000001A3
_.org_0_01B1                      000001B1
_BODEN_OFF                        00003FBF
_BODEN_ON                         00003FFF
_BOREN_OFF                        00003FBF
_BOREN_ON                         00003FFF
_Bfade                            000001AE
_CONFIG                           00002007
_CPD_OFF                          00003FFF
_CPD_ON                           00003EFF
_CP_OFF                           00003FFF
_CP_ON                            00003F7F
_DEVID1                           00002006
_EC_OSC                           00003FFB
_EXTRC_OSC_CLKOUT                 00003FFF
_EXTRC_OSC_NOCLKOUT               00003FFE
MPASM 5.66                 RGB101G3_MAIN.ASM   4-6-2016  9:04:50         PAGE 30


SYMBOL TABLE
  LABEL                             VALUE 

_FOSC_EC                          00003FFB
_FOSC_EXTRCCLK                    00003FFF
_FOSC_EXTRCIO                     00003FFE
_FOSC_HS                          00003FFA
_FOSC_INTRCCLK                    00003FFD
_FOSC_INTRCIO                     00003FFC
_FOSC_LP                          00003FF8
_FOSC_XT                          00003FF9
_Gfade                            000001A0
_HS_OSC                           00003FFA
_IDLOC0                           00002000
_IDLOC1                           00002001
_IDLOC2                           00002002
_IDLOC3                           00002003
_INTRC_OSC_CLKOUT                 00003FFD
_INTRC_OSC_NOCLKOUT               00003FFC
_LP_OSC                           00003FF8
_MCLRE_OFF                        00003FDF
_MCLRE_ON                         00003FFF
_PWRTE_OFF                        00003FFF
_PWRTE_ON                         00003FEF
_Rfade                            00000192
_WDTE_OFF                         00003FF7
_WDTE_ON                          00003FFF
_WDT_OFF                          00003FF7
_WDT_ON                           00003FFF
_XT_OSC                           00003FF9
__12F629                          00000001
_advEnd                           00000078
_advLookup                        0000008F
_advResetBase                     00000086
_advSeq                           0000006F
_babs                             000000BE
_base                             000001C9
_calcFade                         000000A1
_calcLargest                      000000BF
_checksumOK                       00000027
_chkGB                            000000CA
_clrNext                          00000012
_compSeqNo                        0000002B
_done                             000000CF
_eeRead                           000000FC
_eeWrite                          000000F1
_essInit                          00000122
_essRun                           0000010E
_essSave                          00000114
_fadeDir                          00000093
_fadeState                        00000189
_fading                           0000018E
_findNoSeq                        0000001D
_gabs                             000000B6
_getSavedSeq                      00000022
_holdSeqNext                      000001C6
MPASM 5.66                 RGB101G3_MAIN.ASM   4-6-2016  9:04:50         PAGE 31


SYMBOL TABLE
  LABEL                             VALUE 

_holding                          000001BD
_initEEPROM                       00000102
_initLoop                         00000109
_noRolloverHi                     00000047
_pwmDriveHi                       00000036
_rabs                             000000AE
_readEEPROM                       00000140
_seqData                          00000051
_seqLookup                        0000006B
_seqNxtData                       00000058
_seqRestart                       00000066
_seqSet                           00000031
_seqSwDown                        0000016B
_seqSwUp                          0000016D
_sleep                            000000D5
_startup                          00000000
_swDelay                          000000E9
_swDoubleClick                    0000017C
_swShort                          00000173
_swapFSR                          0000013A
_switchCheck                      00000166
_timerOut                         00000156
_waitSleep                        000000EB
_waitSwRelSleep                   000000DA
_waitSwRelWake                    000000E6
auxIn                             00000002
base                              00000041
bdir                              00000022
blue                              00000004
bnew                              0000003A
bpwm                              0000004E
bpwmWkg                           0000002C
cHOLDPRESCALER                    0000000A
cSAVETIMER                        00000008
cTIMER                            000000B3
currentSeqNo                      00000034
driveLevel                        0000002F
ess                               0000004A
fadeTimer                         0000003E
fadeflag                          0000002D
freeze                            00000049
gdir                              00000021
gnew                              00000039
gpio3                             00000003
gpwm                              0000004D
gpwmWkg                           0000002B
green                             00000001
highSeqNo                         00000035
hold                              00000037
holdTimerHi                       00000040
holdTimerPS                       0000003F
pwmramp                           0000002E
rate                              00000036
MPASM 5.66                 RGB101G3_MAIN.ASM   4-6-2016  9:04:50         PAGE 32


SYMBOL TABLE
  LABEL                             VALUE 

rdir                              00000020
red                               00000000
rnew                              00000038
rpwm                              0000004C
rpwmWkg                           0000002A
saveCnt                           00000047
saveCntPS                         0000003D
savedSeqNo                        00000048
sbh                               00000031
sbl                               00000030
seqSw                             00000005
seqSwCnt                          0000003B
seqSwDblClk                       0000003C
seqh                              00000033
seql                              00000032
setbank0                          bcf             STATUS,RP0
setbank1                          bsf             STATUS,RP0

Errors   :     0
Warnings :     0 reported,     0 suppressed
Messages :     0 reported,    19 suppressed

