

Microchip Technology PIC LITE Macro Assembler V1.12 build 49521 
                                                                                               Fri Jul 12 19:01:35 2013

HI-TECH Software Omniscient Code Generator (Lite mode) build 49521
     1  0000                     opt subtitle "HI-TECH Software Omniscient Code Generator (Lite mode) build 49521"
     2                           opt subtitle "HI-TECH Software Omniscient Code Generator (Lite mode) build 49521"
     3                           
     4                           opt pagewidth 120
     5                           
     6                           	opt lm
     7                           
     8                           	processor	16F877A
     9                           clrc	macro
    10  0000                     	endm
    11                           opt subtitle "HI-TECH Software Omniscient Code Generator (Lite mode) build 49521"
    12                           
    13  0000                     	endm
    14                           opt subtitle "HI-TECH Software Omniscient Code Generator (Lite mode) build 49521"
    15                           
    16  0000                     	endm
    17                           opt subtitle "HI-TECH Software Omniscient Code Generator (Lite mode) build 49521"
    18                           
    19  0000                     	endm
    20                           opt subtitle "HI-TECH Software Omniscient Code Generator (Lite mode) build 49521"
    21                           
    22  0000                     	endm
    23                           opt subtitle "HI-TECH Software Omniscient Code Generator (Lite mode) build 49521"
    24                           
    25  0000                     	endm
    26                           opt subtitle "HI-TECH Software Omniscient Code Generator (Lite mode) build 49521"
    27                           
    28  0000                     	endm
    29                           opt subtitle "HI-TECH Software Omniscient Code Generator (Lite mode) build 49521"
    30                           
    31  0000                     	endm
    32  0000                     indf	equ	0
    33  0000                     indf0	equ	0
    34  0002                     pc	equ	2
    35  0002                     pcl	equ	2
    36  0003                     status	equ	3
    37  0004                     fsr	equ	4
    38  0004                     fsr0	equ	4
    39  0001                     c	equ	1
    40  0000                     z	equ	0
    41  000A                     pclath	equ	10
    42                           opt subtitle "HI-TECH Software Omniscient Code Generator (Lite mode) build 49521"
    43  0000                     INDF equ 00h ;# 
    44                           opt subtitle "HI-TECH Software Omniscient Code Generator (Lite mode) build 49521"
    45  0001                     TMR0 equ 01h ;# 
    46                           opt subtitle "HI-TECH Software Omniscient Code Generator (Lite mode) build 49521"
    47  0002                     PCL equ 02h ;# 
    48                           opt subtitle "HI-TECH Software Omniscient Code Generator (Lite mode) build 49521"
    49  0003                     STATUS equ 03h ;# 
    50                           opt subtitle "HI-TECH Software Omniscient Code Generator (Lite mode) build 49521"
    51  0004                     FSR equ 04h ;# 
    52                           opt subtitle "HI-TECH Software Omniscient Code Generator (Lite mode) build 49521"
    53  0005                     PORTA equ 05h ;# 
    54                           opt subtitle "HI-TECH Software Omniscient Code Generator (Lite mode) build 49521"
    55  0006                     PORTB equ 06h ;# 
    56                           opt subtitle "HI-TECH Software Omniscient Code Generator (Lite mode) build 49521"
    57  0007                     PORTC equ 07h ;# 
    58                           opt subtitle "HI-TECH Software Omniscient Code Generator (Lite mode) build 49521"
    59  0008                     PORTD equ 08h ;# 
    60                           opt subtitle "HI-TECH Software Omniscient Code Generator (Lite mode) build 49521"
    61  0009                     PORTE equ 09h ;# 
    62                           opt subtitle "HI-TECH Software Omniscient Code Generator (Lite mode) build 49521"
    63  000A                     PCLATH equ 0Ah ;# 
    64                           opt subtitle "HI-TECH Software Omniscient Code Generator (Lite mode) build 49521"
    65  000B                     INTCON equ 0Bh ;# 
    66                           opt subtitle "HI-TECH Software Omniscient Code Generator (Lite mode) build 49521"
    67  000C                     PIR1 equ 0Ch ;# 
    68                           opt subtitle "HI-TECH Software Omniscient Code Generator (Lite mode) build 49521"
    69  000D                     PIR2 equ 0Dh ;# 
    70                           opt subtitle "HI-TECH Software Omniscient Code Generator (Lite mode) build 49521"
    71  000E                     TMR1 equ 0Eh ;# 
    72                           opt subtitle "HI-TECH Software Omniscient Code Generator (Lite mode) build 49521"
    73  000E                     TMR1L equ 0Eh ;# 
    74                           opt subtitle "HI-TECH Software Omniscient Code Generator (Lite mode) build 49521"
    75  000F                     TMR1H equ 0Fh ;# 
    76                           opt subtitle "HI-TECH Software Omniscient Code Generator (Lite mode) build 49521"
    77  0010                     T1CON equ 010h ;# 
    78                           opt subtitle "HI-TECH Software Omniscient Code Generator (Lite mode) build 49521"
    79  0011                     TMR2 equ 011h ;# 
    80                           opt subtitle "HI-TECH Software Omniscient Code Generator (Lite mode) build 49521"
    81  0012                     T2CON equ 012h ;# 
    82                           opt subtitle "HI-TECH Software Omniscient Code Generator (Lite mode) build 49521"
    83  0013                     SSPBUF equ 013h ;# 
    84                           opt subtitle "HI-TECH Software Omniscient Code Generator (Lite mode) build 49521"
    85  0014                     SSPCON equ 014h ;# 
    86                           opt subtitle "HI-TECH Software Omniscient Code Generator (Lite mode) build 49521"
    87  0015                     CCPR1 equ 015h ;# 
    88                           opt subtitle "HI-TECH Software Omniscient Code Generator (Lite mode) build 49521"
    89  0015                     CCPR1L equ 015h ;# 
    90                           opt subtitle "HI-TECH Software Omniscient Code Generator (Lite mode) build 49521"
    91  0016                     CCPR1H equ 016h ;# 
    92                           opt subtitle "HI-TECH Software Omniscient Code Generator (Lite mode) build 49521"
    93  0017                     CCP1CON equ 017h ;# 
    94                           opt subtitle "HI-TECH Software Omniscient Code Generator (Lite mode) build 49521"
    95  0018                     RCSTA equ 018h ;# 
    96                           opt subtitle "HI-TECH Software Omniscient Code Generator (Lite mode) build 49521"
    97  0019                     TXREG equ 019h ;# 
    98                           opt subtitle "HI-TECH Software Omniscient Code Generator (Lite mode) build 49521"
    99  001A                     RCREG equ 01Ah ;# 
   100                           opt subtitle "HI-TECH Software Omniscient Code Generator (Lite mode) build 49521"
   101  001B                     CCPR2 equ 01Bh ;# 
   102                           opt subtitle "HI-TECH Software Omniscient Code Generator (Lite mode) build 49521"
   103  001B                     CCPR2L equ 01Bh ;# 
   104                           opt subtitle "HI-TECH Software Omniscient Code Generator (Lite mode) build 49521"
   105  001C                     CCPR2H equ 01Ch ;# 
   106                           opt subtitle "HI-TECH Software Omniscient Code Generator (Lite mode) build 49521"
   107  001D                     CCP2CON equ 01Dh ;# 
   108                           opt subtitle "HI-TECH Software Omniscient Code Generator (Lite mode) build 49521"
   109  001E                     ADRESH equ 01Eh ;# 
   110                           opt subtitle "HI-TECH Software Omniscient Code Generator (Lite mode) build 49521"
   111  001F                     ADCON0 equ 01Fh ;# 
   112                           opt subtitle "HI-TECH Software Omniscient Code Generator (Lite mode) build 49521"
   113  0081                     OPTION_REG equ 081h ;# 
   114                           opt subtitle "HI-TECH Software Omniscient Code Generator (Lite mode) build 49521"
   115  0085                     TRISA equ 085h ;# 
   116                           opt subtitle "HI-TECH Software Omniscient Code Generator (Lite mode) build 49521"
   117  0086                     TRISB equ 086h ;# 
   118                           opt subtitle "HI-TECH Software Omniscient Code Generator (Lite mode) build 49521"
   119  0087                     TRISC equ 087h ;# 
   120                           opt subtitle "HI-TECH Software Omniscient Code Generator (Lite mode) build 49521"
   121  0088                     TRISD equ 088h ;# 
   122                           opt subtitle "HI-TECH Software Omniscient Code Generator (Lite mode) build 49521"
   123  0089                     TRISE equ 089h ;# 
   124                           opt subtitle "HI-TECH Software Omniscient Code Generator (Lite mode) build 49521"
   125  008C                     PIE1 equ 08Ch ;# 
   126                           opt subtitle "HI-TECH Software Omniscient Code Generator (Lite mode) build 49521"
   127  008D                     PIE2 equ 08Dh ;# 
   128                           opt subtitle "HI-TECH Software Omniscient Code Generator (Lite mode) build 49521"
   129  008E                     PCON equ 08Eh ;# 
   130                           opt subtitle "HI-TECH Software Omniscient Code Generator (Lite mode) build 49521"
   131  0091                     SSPCON2 equ 091h ;# 
   132                           opt subtitle "HI-TECH Software Omniscient Code Generator (Lite mode) build 49521"
   133  0092                     PR2 equ 092h ;# 
   134                           opt subtitle "HI-TECH Software Omniscient Code Generator (Lite mode) build 49521"
   135  0093                     SSPADD equ 093h ;# 
   136                           opt subtitle "HI-TECH Software Omniscient Code Generator (Lite mode) build 49521"
   137  0094                     SSPSTAT equ 094h ;# 
   138                           opt subtitle "HI-TECH Software Omniscient Code Generator (Lite mode) build 49521"
   139  0098                     TXSTA equ 098h ;# 
   140                           opt subtitle "HI-TECH Software Omniscient Code Generator (Lite mode) build 49521"
   141  0099                     SPBRG equ 099h ;# 
   142                           opt subtitle "HI-TECH Software Omniscient Code Generator (Lite mode) build 49521"
   143  009C                     CMCON equ 09Ch ;# 
   144                           opt subtitle "HI-TECH Software Omniscient Code Generator (Lite mode) build 49521"
   145  009D                     CVRCON equ 09Dh ;# 
   146                           opt subtitle "HI-TECH Software Omniscient Code Generator (Lite mode) build 49521"
   147  009E                     ADRESL equ 09Eh ;# 
   148                           opt subtitle "HI-TECH Software Omniscient Code Generator (Lite mode) build 49521"
   149  009F                     ADCON1 equ 09Fh ;# 
   150                           opt subtitle "HI-TECH Software Omniscient Code Generator (Lite mode) build 49521"
   151  010C                     EEDATA equ 010Ch ;# 
   152                           opt subtitle "HI-TECH Software Omniscient Code Generator (Lite mode) build 49521"
   153  010D                     EEADR equ 010Dh ;# 
   154                           opt subtitle "HI-TECH Software Omniscient Code Generator (Lite mode) build 49521"
   155  010E                     EEDATH equ 010Eh ;# 
   156                           opt subtitle "HI-TECH Software Omniscient Code Generator (Lite mode) build 49521"
   157  010F                     EEADRH equ 010Fh ;# 
   158                           opt subtitle "HI-TECH Software Omniscient Code Generator (Lite mode) build 49521"
   159  018C                     EECON1 equ 018Ch ;# 
   160                           opt subtitle "HI-TECH Software Omniscient Code Generator (Lite mode) build 49521"
   161  018D                     EECON2 equ 018Dh ;# 
   162                           opt subtitle "HI-TECH Software Omniscient Code Generator (Lite mode) build 49521"
   163  0000                     INDF equ 00h ;# 
   164                           opt subtitle "HI-TECH Software Omniscient Code Generator (Lite mode) build 49521"
   165  0001                     TMR0 equ 01h ;# 
   166                           opt subtitle "HI-TECH Software Omniscient Code Generator (Lite mode) build 49521"
   167  0002                     PCL equ 02h ;# 
   168                           opt subtitle "HI-TECH Software Omniscient Code Generator (Lite mode) build 49521"
   169  0003                     STATUS equ 03h ;# 
   170                           opt subtitle "HI-TECH Software Omniscient Code Generator (Lite mode) build 49521"
   171  0004                     FSR equ 04h ;# 
   172                           opt subtitle "HI-TECH Software Omniscient Code Generator (Lite mode) build 49521"
   173  0005                     PORTA equ 05h ;# 
   174                           opt subtitle "HI-TECH Software Omniscient Code Generator (Lite mode) build 49521"
   175  0006                     PORTB equ 06h ;# 
   176                           opt subtitle "HI-TECH Software Omniscient Code Generator (Lite mode) build 49521"
   177  0007                     PORTC equ 07h ;# 
   178                           opt subtitle "HI-TECH Software Omniscient Code Generator (Lite mode) build 49521"
   179  0008                     PORTD equ 08h ;# 
   180                           opt subtitle "HI-TECH Software Omniscient Code Generator (Lite mode) build 49521"
   181  0009                     PORTE equ 09h ;# 
   182                           opt subtitle "HI-TECH Software Omniscient Code Generator (Lite mode) build 49521"
   183  000A                     PCLATH equ 0Ah ;# 
   184                           opt subtitle "HI-TECH Software Omniscient Code Generator (Lite mode) build 49521"
   185  000B                     INTCON equ 0Bh ;# 
   186                           opt subtitle "HI-TECH Software Omniscient Code Generator (Lite mode) build 49521"
   187  000C                     PIR1 equ 0Ch ;# 
   188                           opt subtitle "HI-TECH Software Omniscient Code Generator (Lite mode) build 49521"
   189  000D                     PIR2 equ 0Dh ;# 
   190                           opt subtitle "HI-TECH Software Omniscient Code Generator (Lite mode) build 49521"
   191  000E                     TMR1 equ 0Eh ;# 
   192                           opt subtitle "HI-TECH Software Omniscient Code Generator (Lite mode) build 49521"
   193  000E                     TMR1L equ 0Eh ;# 
   194                           opt subtitle "HI-TECH Software Omniscient Code Generator (Lite mode) build 49521"
   195  000F                     TMR1H equ 0Fh ;# 
   196                           opt subtitle "HI-TECH Software Omniscient Code Generator (Lite mode) build 49521"
   197  0010                     T1CON equ 010h ;# 
   198                           opt subtitle "HI-TECH Software Omniscient Code Generator (Lite mode) build 49521"
   199  0011                     TMR2 equ 011h ;# 
   200                           opt subtitle "HI-TECH Software Omniscient Code Generator (Lite mode) build 49521"
   201  0012                     T2CON equ 012h ;# 
   202                           opt subtitle "HI-TECH Software Omniscient Code Generator (Lite mode) build 49521"
   203  0013                     SSPBUF equ 013h ;# 
   204                           opt subtitle "HI-TECH Software Omniscient Code Generator (Lite mode) build 49521"
   205  0014                     SSPCON equ 014h ;# 
   206                           opt subtitle "HI-TECH Software Omniscient Code Generator (Lite mode) build 49521"
   207  0015                     CCPR1 equ 015h ;# 
   208                           opt subtitle "HI-TECH Software Omniscient Code Generator (Lite mode) build 49521"
   209  0015                     CCPR1L equ 015h ;# 
   210                           opt subtitle "HI-TECH Software Omniscient Code Generator (Lite mode) build 49521"
   211  0016                     CCPR1H equ 016h ;# 
   212                           opt subtitle "HI-TECH Software Omniscient Code Generator (Lite mode) build 49521"
   213  0017                     CCP1CON equ 017h ;# 
   214                           opt subtitle "HI-TECH Software Omniscient Code Generator (Lite mode) build 49521"
   215  0018                     RCSTA equ 018h ;# 
   216                           opt subtitle "HI-TECH Software Omniscient Code Generator (Lite mode) build 49521"
   217  0019                     TXREG equ 019h ;# 
   218                           opt subtitle "HI-TECH Software Omniscient Code Generator (Lite mode) build 49521"
   219  001A                     RCREG equ 01Ah ;# 
   220                           opt subtitle "HI-TECH Software Omniscient Code Generator (Lite mode) build 49521"
   221  001B                     CCPR2 equ 01Bh ;# 
   222                           opt subtitle "HI-TECH Software Omniscient Code Generator (Lite mode) build 49521"
   223  001B                     CCPR2L equ 01Bh ;# 
   224                           opt subtitle "HI-TECH Software Omniscient Code Generator (Lite mode) build 49521"
   225  001C                     CCPR2H equ 01Ch ;# 
   226                           opt subtitle "HI-TECH Software Omniscient Code Generator (Lite mode) build 49521"
   227  001D                     CCP2CON equ 01Dh ;# 
   228                           opt subtitle "HI-TECH Software Omniscient Code Generator (Lite mode) build 49521"
   229  001E                     ADRESH equ 01Eh ;# 
   230                           opt subtitle "HI-TECH Software Omniscient Code Generator (Lite mode) build 49521"
   231  001F                     ADCON0 equ 01Fh ;# 
   232                           opt subtitle "HI-TECH Software Omniscient Code Generator (Lite mode) build 49521"
   233  0081                     OPTION_REG equ 081h ;# 
   234                           opt subtitle "HI-TECH Software Omniscient Code Generator (Lite mode) build 49521"
   235  0085                     TRISA equ 085h ;# 
   236                           opt subtitle "HI-TECH Software Omniscient Code Generator (Lite mode) build 49521"
   237  0086                     TRISB equ 086h ;# 
   238                           opt subtitle "HI-TECH Software Omniscient Code Generator (Lite mode) build 49521"
   239  0087                     TRISC equ 087h ;# 
   240                           opt subtitle "HI-TECH Software Omniscient Code Generator (Lite mode) build 49521"
   241  0088                     TRISD equ 088h ;# 
   242                           opt subtitle "HI-TECH Software Omniscient Code Generator (Lite mode) build 49521"
   243  0089                     TRISE equ 089h ;# 
   244                           opt subtitle "HI-TECH Software Omniscient Code Generator (Lite mode) build 49521"
   245  008C                     PIE1 equ 08Ch ;# 
   246                           opt subtitle "HI-TECH Software Omniscient Code Generator (Lite mode) build 49521"
   247  008D                     PIE2 equ 08Dh ;# 
   248                           opt subtitle "HI-TECH Software Omniscient Code Generator (Lite mode) build 49521"
   249  008E                     PCON equ 08Eh ;# 
   250                           opt subtitle "HI-TECH Software Omniscient Code Generator (Lite mode) build 49521"
   251  0091                     SSPCON2 equ 091h ;# 
   252                           opt subtitle "HI-TECH Software Omniscient Code Generator (Lite mode) build 49521"
   253  0092                     PR2 equ 092h ;# 
   254                           opt subtitle "HI-TECH Software Omniscient Code Generator (Lite mode) build 49521"
   255  0093                     SSPADD equ 093h ;# 
   256                           opt subtitle "HI-TECH Software Omniscient Code Generator (Lite mode) build 49521"
   257  0094                     SSPSTAT equ 094h ;# 
   258                           opt subtitle "HI-TECH Software Omniscient Code Generator (Lite mode) build 49521"
   259  0098                     TXSTA equ 098h ;# 
   260                           opt subtitle "HI-TECH Software Omniscient Code Generator (Lite mode) build 49521"
   261  0099                     SPBRG equ 099h ;# 
   262                           opt subtitle "HI-TECH Software Omniscient Code Generator (Lite mode) build 49521"
   263  009C                     CMCON equ 09Ch ;# 
   264                           opt subtitle "HI-TECH Software Omniscient Code Generator (Lite mode) build 49521"
   265  009D                     CVRCON equ 09Dh ;# 
   266                           opt subtitle "HI-TECH Software Omniscient Code Generator (Lite mode) build 49521"
   267  009E                     ADRESL equ 09Eh ;# 
   268                           opt subtitle "HI-TECH Software Omniscient Code Generator (Lite mode) build 49521"
   269  009F                     ADCON1 equ 09Fh ;# 
   270                           opt subtitle "HI-TECH Software Omniscient Code Generator (Lite mode) build 49521"
   271  010C                     EEDATA equ 010Ch ;# 
   272                           opt subtitle "HI-TECH Software Omniscient Code Generator (Lite mode) build 49521"
   273  010D                     EEADR equ 010Dh ;# 
   274                           opt subtitle "HI-TECH Software Omniscient Code Generator (Lite mode) build 49521"
   275  010E                     EEDATH equ 010Eh ;# 
   276                           opt subtitle "HI-TECH Software Omniscient Code Generator (Lite mode) build 49521"
   277  010F                     EEADRH equ 010Fh ;# 
   278                           opt subtitle "HI-TECH Software Omniscient Code Generator (Lite mode) build 49521"
   279  018C                     EECON1 equ 018Ch ;# 
   280                           opt subtitle "HI-TECH Software Omniscient Code Generator (Lite mode) build 49521"
   281  018D                     EECON2 equ 018Dh ;# 
   282                           opt subtitle "HI-TECH Software Omniscient Code Generator (Lite mode) build 49521"
   283  0000                     INDF equ 00h ;# 
   284                           opt subtitle "HI-TECH Software Omniscient Code Generator (Lite mode) build 49521"
   285  0001                     TMR0 equ 01h ;# 
   286                           opt subtitle "HI-TECH Software Omniscient Code Generator (Lite mode) build 49521"
   287  0002                     PCL equ 02h ;# 
   288                           opt subtitle "HI-TECH Software Omniscient Code Generator (Lite mode) build 49521"
   289  0003                     STATUS equ 03h ;# 
   290                           opt subtitle "HI-TECH Software Omniscient Code Generator (Lite mode) build 49521"
   291  0004                     FSR equ 04h ;# 
   292                           opt subtitle "HI-TECH Software Omniscient Code Generator (Lite mode) build 49521"
   293  0005                     PORTA equ 05h ;# 
   294                           opt subtitle "HI-TECH Software Omniscient Code Generator (Lite mode) build 49521"
   295  0006                     PORTB equ 06h ;# 
   296                           opt subtitle "HI-TECH Software Omniscient Code Generator (Lite mode) build 49521"
   297  0007                     PORTC equ 07h ;# 
   298                           opt subtitle "HI-TECH Software Omniscient Code Generator (Lite mode) build 49521"
   299  0008                     PORTD equ 08h ;# 
   300                           opt subtitle "HI-TECH Software Omniscient Code Generator (Lite mode) build 49521"
   301  0009                     PORTE equ 09h ;# 
   302                           opt subtitle "HI-TECH Software Omniscient Code Generator (Lite mode) build 49521"
   303  000A                     PCLATH equ 0Ah ;# 
   304                           opt subtitle "HI-TECH Software Omniscient Code Generator (Lite mode) build 49521"
   305  000B                     INTCON equ 0Bh ;# 
   306                           opt subtitle "HI-TECH Software Omniscient Code Generator (Lite mode) build 49521"
   307  000C                     PIR1 equ 0Ch ;# 
   308                           opt subtitle "HI-TECH Software Omniscient Code Generator (Lite mode) build 49521"
   309  000D                     PIR2 equ 0Dh ;# 
   310                           opt subtitle "HI-TECH Software Omniscient Code Generator (Lite mode) build 49521"
   311  000E                     TMR1 equ 0Eh ;# 
   312                           opt subtitle "HI-TECH Software Omniscient Code Generator (Lite mode) build 49521"
   313  000E                     TMR1L equ 0Eh ;# 
   314                           opt subtitle "HI-TECH Software Omniscient Code Generator (Lite mode) build 49521"
   315  000F                     TMR1H equ 0Fh ;# 
   316                           opt subtitle "HI-TECH Software Omniscient Code Generator (Lite mode) build 49521"
   317  0010                     T1CON equ 010h ;# 
   318                           opt subtitle "HI-TECH Software Omniscient Code Generator (Lite mode) build 49521"
   319  0011                     TMR2 equ 011h ;# 
   320                           opt subtitle "HI-TECH Software Omniscient Code Generator (Lite mode) build 49521"
   321  0012                     T2CON equ 012h ;# 
   322                           opt subtitle "HI-TECH Software Omniscient Code Generator (Lite mode) build 49521"
   323  0013                     SSPBUF equ 013h ;# 
   324                           opt subtitle "HI-TECH Software Omniscient Code Generator (Lite mode) build 49521"
   325  0014                     SSPCON equ 014h ;# 
   326                           opt subtitle "HI-TECH Software Omniscient Code Generator (Lite mode) build 49521"
   327  0015                     CCPR1 equ 015h ;# 
   328                           opt subtitle "HI-TECH Software Omniscient Code Generator (Lite mode) build 49521"
   329  0015                     CCPR1L equ 015h ;# 
   330                           opt subtitle "HI-TECH Software Omniscient Code Generator (Lite mode) build 49521"
   331  0016                     CCPR1H equ 016h ;# 
   332                           opt subtitle "HI-TECH Software Omniscient Code Generator (Lite mode) build 49521"
   333  0017                     CCP1CON equ 017h ;# 
   334                           opt subtitle "HI-TECH Software Omniscient Code Generator (Lite mode) build 49521"
   335  0018                     RCSTA equ 018h ;# 
   336                           opt subtitle "HI-TECH Software Omniscient Code Generator (Lite mode) build 49521"
   337  0019                     TXREG equ 019h ;# 
   338                           opt subtitle "HI-TECH Software Omniscient Code Generator (Lite mode) build 49521"
   339  001A                     RCREG equ 01Ah ;# 
   340                           opt subtitle "HI-TECH Software Omniscient Code Generator (Lite mode) build 49521"
   341  001B                     CCPR2 equ 01Bh ;# 
   342                           opt subtitle "HI-TECH Software Omniscient Code Generator (Lite mode) build 49521"
   343  001B                     CCPR2L equ 01Bh ;# 
   344                           opt subtitle "HI-TECH Software Omniscient Code Generator (Lite mode) build 49521"
   345  001C                     CCPR2H equ 01Ch ;# 
   346                           opt subtitle "HI-TECH Software Omniscient Code Generator (Lite mode) build 49521"
   347  001D                     CCP2CON equ 01Dh ;# 
   348                           opt subtitle "HI-TECH Software Omniscient Code Generator (Lite mode) build 49521"
   349  001E                     ADRESH equ 01Eh ;# 
   350                           opt subtitle "HI-TECH Software Omniscient Code Generator (Lite mode) build 49521"
   351  001F                     ADCON0 equ 01Fh ;# 
   352                           opt subtitle "HI-TECH Software Omniscient Code Generator (Lite mode) build 49521"
   353  0081                     OPTION_REG equ 081h ;# 
   354                           opt subtitle "HI-TECH Software Omniscient Code Generator (Lite mode) build 49521"
   355  0085                     TRISA equ 085h ;# 
   356                           opt subtitle "HI-TECH Software Omniscient Code Generator (Lite mode) build 49521"
   357  0086                     TRISB equ 086h ;# 
   358                           opt subtitle "HI-TECH Software Omniscient Code Generator (Lite mode) build 49521"
   359  0087                     TRISC equ 087h ;# 
   360                           opt subtitle "HI-TECH Software Omniscient Code Generator (Lite mode) build 49521"
   361  0088                     TRISD equ 088h ;# 
   362                           opt subtitle "HI-TECH Software Omniscient Code Generator (Lite mode) build 49521"
   363  0089                     TRISE equ 089h ;# 
   364                           opt subtitle "HI-TECH Software Omniscient Code Generator (Lite mode) build 49521"
   365  008C                     PIE1 equ 08Ch ;# 
   366                           opt subtitle "HI-TECH Software Omniscient Code Generator (Lite mode) build 49521"
   367  008D                     PIE2 equ 08Dh ;# 
   368                           opt subtitle "HI-TECH Software Omniscient Code Generator (Lite mode) build 49521"
   369  008E                     PCON equ 08Eh ;# 
   370                           opt subtitle "HI-TECH Software Omniscient Code Generator (Lite mode) build 49521"
   371  0091                     SSPCON2 equ 091h ;# 
   372                           opt subtitle "HI-TECH Software Omniscient Code Generator (Lite mode) build 49521"
   373  0092                     PR2 equ 092h ;# 
   374                           opt subtitle "HI-TECH Software Omniscient Code Generator (Lite mode) build 49521"
   375  0093                     SSPADD equ 093h ;# 
   376                           opt subtitle "HI-TECH Software Omniscient Code Generator (Lite mode) build 49521"
   377  0094                     SSPSTAT equ 094h ;# 
   378                           opt subtitle "HI-TECH Software Omniscient Code Generator (Lite mode) build 49521"
   379  0098                     TXSTA equ 098h ;# 
   380                           opt subtitle "HI-TECH Software Omniscient Code Generator (Lite mode) build 49521"
   381  0099                     SPBRG equ 099h ;# 
   382                           opt subtitle "HI-TECH Software Omniscient Code Generator (Lite mode) build 49521"
   383  009C                     CMCON equ 09Ch ;# 
   384                           opt subtitle "HI-TECH Software Omniscient Code Generator (Lite mode) build 49521"
   385  009D                     CVRCON equ 09Dh ;# 
   386                           opt subtitle "HI-TECH Software Omniscient Code Generator (Lite mode) build 49521"
   387  009E                     ADRESL equ 09Eh ;# 
   388                           opt subtitle "HI-TECH Software Omniscient Code Generator (Lite mode) build 49521"
   389  009F                     ADCON1 equ 09Fh ;# 
   390                           opt subtitle "HI-TECH Software Omniscient Code Generator (Lite mode) build 49521"
   391  010C                     EEDATA equ 010Ch ;# 
   392                           opt subtitle "HI-TECH Software Omniscient Code Generator (Lite mode) build 49521"
   393  010D                     EEADR equ 010Dh ;# 
   394                           opt subtitle "HI-TECH Software Omniscient Code Generator (Lite mode) build 49521"
   395  010E                     EEDATH equ 010Eh ;# 
   396                           opt subtitle "HI-TECH Software Omniscient Code Generator (Lite mode) build 49521"
   397  010F                     EEADRH equ 010Fh ;# 
   398                           opt subtitle "HI-TECH Software Omniscient Code Generator (Lite mode) build 49521"
   399  018C                     EECON1 equ 018Ch ;# 
   400                           opt subtitle "HI-TECH Software Omniscient Code Generator (Lite mode) build 49521"
   401  018D                     EECON2 equ 018Dh ;# 
   402                           opt subtitle "HI-TECH Software Omniscient Code Generator (Lite mode) build 49521"
   403  0000                     INDF equ 00h ;# 
   404                           opt subtitle "HI-TECH Software Omniscient Code Generator (Lite mode) build 49521"
   405  0001                     TMR0 equ 01h ;# 
   406                           opt subtitle "HI-TECH Software Omniscient Code Generator (Lite mode) build 49521"
   407  0002                     PCL equ 02h ;# 
   408                           opt subtitle "HI-TECH Software Omniscient Code Generator (Lite mode) build 49521"
   409  0003                     STATUS equ 03h ;# 
   410                           opt subtitle "HI-TECH Software Omniscient Code Generator (Lite mode) build 49521"
   411  0004                     FSR equ 04h ;# 
   412                           opt subtitle "HI-TECH Software Omniscient Code Generator (Lite mode) build 49521"
   413  0005                     PORTA equ 05h ;# 
   414                           opt subtitle "HI-TECH Software Omniscient Code Generator (Lite mode) build 49521"
   415  0006                     PORTB equ 06h ;# 
   416                           opt subtitle "HI-TECH Software Omniscient Code Generator (Lite mode) build 49521"
   417  0007                     PORTC equ 07h ;# 
   418                           opt subtitle "HI-TECH Software Omniscient Code Generator (Lite mode) build 49521"
   419  0008                     PORTD equ 08h ;# 
   420                           opt subtitle "HI-TECH Software Omniscient Code Generator (Lite mode) build 49521"
   421  0009                     PORTE equ 09h ;# 
   422                           opt subtitle "HI-TECH Software Omniscient Code Generator (Lite mode) build 49521"
   423  000A                     PCLATH equ 0Ah ;# 
   424                           opt subtitle "HI-TECH Software Omniscient Code Generator (Lite mode) build 49521"
   425  000B                     INTCON equ 0Bh ;# 
   426                           opt subtitle "HI-TECH Software Omniscient Code Generator (Lite mode) build 49521"
   427  000C                     PIR1 equ 0Ch ;# 
   428                           opt subtitle "HI-TECH Software Omniscient Code Generator (Lite mode) build 49521"
   429  000D                     PIR2 equ 0Dh ;# 
   430                           opt subtitle "HI-TECH Software Omniscient Code Generator (Lite mode) build 49521"
   431  000E                     TMR1 equ 0Eh ;# 
   432                           opt subtitle "HI-TECH Software Omniscient Code Generator (Lite mode) build 49521"
   433  000E                     TMR1L equ 0Eh ;# 
   434                           opt subtitle "HI-TECH Software Omniscient Code Generator (Lite mode) build 49521"
   435  000F                     TMR1H equ 0Fh ;# 
   436                           opt subtitle "HI-TECH Software Omniscient Code Generator (Lite mode) build 49521"
   437  0010                     T1CON equ 010h ;# 
   438                           opt subtitle "HI-TECH Software Omniscient Code Generator (Lite mode) build 49521"
   439  0011                     TMR2 equ 011h ;# 
   440                           opt subtitle "HI-TECH Software Omniscient Code Generator (Lite mode) build 49521"
   441  0012                     T2CON equ 012h ;# 
   442                           opt subtitle "HI-TECH Software Omniscient Code Generator (Lite mode) build 49521"
   443  0013                     SSPBUF equ 013h ;# 
   444                           opt subtitle "HI-TECH Software Omniscient Code Generator (Lite mode) build 49521"
   445  0014                     SSPCON equ 014h ;# 
   446                           opt subtitle "HI-TECH Software Omniscient Code Generator (Lite mode) build 49521"
   447  0015                     CCPR1 equ 015h ;# 
   448                           opt subtitle "HI-TECH Software Omniscient Code Generator (Lite mode) build 49521"
   449  0015                     CCPR1L equ 015h ;# 
   450                           opt subtitle "HI-TECH Software Omniscient Code Generator (Lite mode) build 49521"
   451  0016                     CCPR1H equ 016h ;# 
   452                           opt subtitle "HI-TECH Software Omniscient Code Generator (Lite mode) build 49521"
   453  0017                     CCP1CON equ 017h ;# 
   454                           opt subtitle "HI-TECH Software Omniscient Code Generator (Lite mode) build 49521"
   455  0018                     RCSTA equ 018h ;# 
   456                           opt subtitle "HI-TECH Software Omniscient Code Generator (Lite mode) build 49521"
   457  0019                     TXREG equ 019h ;# 
   458                           opt subtitle "HI-TECH Software Omniscient Code Generator (Lite mode) build 49521"
   459  001A                     RCREG equ 01Ah ;# 
   460                           opt subtitle "HI-TECH Software Omniscient Code Generator (Lite mode) build 49521"
   461  001B                     CCPR2 equ 01Bh ;# 
   462                           opt subtitle "HI-TECH Software Omniscient Code Generator (Lite mode) build 49521"
   463  001B                     CCPR2L equ 01Bh ;# 
   464                           opt subtitle "HI-TECH Software Omniscient Code Generator (Lite mode) build 49521"
   465  001C                     CCPR2H equ 01Ch ;# 
   466                           opt subtitle "HI-TECH Software Omniscient Code Generator (Lite mode) build 49521"
   467  001D                     CCP2CON equ 01Dh ;# 
   468                           opt subtitle "HI-TECH Software Omniscient Code Generator (Lite mode) build 49521"
   469  001E                     ADRESH equ 01Eh ;# 
   470                           opt subtitle "HI-TECH Software Omniscient Code Generator (Lite mode) build 49521"
   471  001F                     ADCON0 equ 01Fh ;# 
   472                           opt subtitle "HI-TECH Software Omniscient Code Generator (Lite mode) build 49521"
   473  0081                     OPTION_REG equ 081h ;# 
   474                           opt subtitle "HI-TECH Software Omniscient Code Generator (Lite mode) build 49521"
   475  0085                     TRISA equ 085h ;# 
   476                           opt subtitle "HI-TECH Software Omniscient Code Generator (Lite mode) build 49521"
   477  0086                     TRISB equ 086h ;# 
   478                           opt subtitle "HI-TECH Software Omniscient Code Generator (Lite mode) build 49521"
   479  0087                     TRISC equ 087h ;# 
   480                           opt subtitle "HI-TECH Software Omniscient Code Generator (Lite mode) build 49521"
   481  0088                     TRISD equ 088h ;# 
   482                           opt subtitle "HI-TECH Software Omniscient Code Generator (Lite mode) build 49521"
   483  0089                     TRISE equ 089h ;# 
   484                           opt subtitle "HI-TECH Software Omniscient Code Generator (Lite mode) build 49521"
   485  008C                     PIE1 equ 08Ch ;# 
   486                           opt subtitle "HI-TECH Software Omniscient Code Generator (Lite mode) build 49521"
   487  008D                     PIE2 equ 08Dh ;# 
   488                           opt subtitle "HI-TECH Software Omniscient Code Generator (Lite mode) build 49521"
   489  008E                     PCON equ 08Eh ;# 
   490                           opt subtitle "HI-TECH Software Omniscient Code Generator (Lite mode) build 49521"
   491  0091                     SSPCON2 equ 091h ;# 
   492                           opt subtitle "HI-TECH Software Omniscient Code Generator (Lite mode) build 49521"
   493  0092                     PR2 equ 092h ;# 
   494                           opt subtitle "HI-TECH Software Omniscient Code Generator (Lite mode) build 49521"
   495  0093                     SSPADD equ 093h ;# 
   496                           opt subtitle "HI-TECH Software Omniscient Code Generator (Lite mode) build 49521"
   497  0094                     SSPSTAT equ 094h ;# 
   498                           opt subtitle "HI-TECH Software Omniscient Code Generator (Lite mode) build 49521"
   499  0098                     TXSTA equ 098h ;# 
   500                           opt subtitle "HI-TECH Software Omniscient Code Generator (Lite mode) build 49521"
   501  0099                     SPBRG equ 099h ;# 
   502                           opt subtitle "HI-TECH Software Omniscient Code Generator (Lite mode) build 49521"
   503  009C                     CMCON equ 09Ch ;# 
   504                           opt subtitle "HI-TECH Software Omniscient Code Generator (Lite mode) build 49521"
   505  009D                     CVRCON equ 09Dh ;# 
   506                           opt subtitle "HI-TECH Software Omniscient Code Generator (Lite mode) build 49521"
   507  009E                     ADRESL equ 09Eh ;# 
   508                           opt subtitle "HI-TECH Software Omniscient Code Generator (Lite mode) build 49521"
   509  009F                     ADCON1 equ 09Fh ;# 
   510                           opt subtitle "HI-TECH Software Omniscient Code Generator (Lite mode) build 49521"
   511  010C                     EEDATA equ 010Ch ;# 
   512                           opt subtitle "HI-TECH Software Omniscient Code Generator (Lite mode) build 49521"
   513  010D                     EEADR equ 010Dh ;# 
   514                           opt subtitle "HI-TECH Software Omniscient Code Generator (Lite mode) build 49521"
   515  010E                     EEDATH equ 010Eh ;# 
   516                           opt subtitle "HI-TECH Software Omniscient Code Generator (Lite mode) build 49521"
   517  010F                     EEADRH equ 010Fh ;# 
   518                           opt subtitle "HI-TECH Software Omniscient Code Generator (Lite mode) build 49521"
   519  018C                     EECON1 equ 018Ch ;# 
   520                           opt subtitle "HI-TECH Software Omniscient Code Generator (Lite mode) build 49521"
   521  018D                     EECON2 equ 018Dh ;# 
   522                           opt subtitle "HI-TECH Software Omniscient Code Generator (Lite mode) build 49521"
   523                           
   524                           opt pagewidth 120
   525                           
   526                           	opt lm
   527                           
   528                           	processor	16F877A
   529                           clrc	macro
   530                           	bcf	3,0
   531                           	endm
   532                           clrz	macro
   533                           	bcf	3,2
   534                           	endm
   535                           setc	macro
   536                           	bsf	3,0
   537                           	endm
   538                           setz	macro
   539                           	bsf	3,2
   540                           	endm
   541                           skipc	macro
   542                           	btfss	3,0
   543                           	endm
   544                           skipz	macro
   545                           	btfss	3,2
   546                           	endm
   547                           skipnc	macro
   548                           	btfsc	3,0
   549                           	endm
   550  0076                     __pidataBANK1:
   551                           opt subtitle "HI-TECH Software Omniscient Code Generator (Lite mode) build 49521"
   552                           
   553                           opt pagewidth 120
   554                           
   555  0076  340C               	retlw	0Ch
   556  0077  3412               	retlw	012h
   557  0078  3412               	retlw	012h
   558  0079  340C               	retlw	0Ch
   559  007A  3400               	retlw	0
   560  007B  3400               	retlw	0
   561  007C  3400               	retlw	0
   562  007D  3400               	retlw	0
   563  007E  3400               	retlw	0
   564  007F  3404               	retlw	04h
   565  0080  340E               	retlw	0Eh
   566  0081  341F               	retlw	01Fh
   567  0082  340E               	retlw	0Eh
   568  0083  3404               	retlw	04h
   569  0084  3400               	retlw	0
   570  0085  3400               	retlw	0
   571  0086  3404               	retlw	04h
   572  0087  3404               	retlw	04h
   573  0088  3404               	retlw	04h
   574  0089  3404               	retlw	04h
   575  008A  341F               	retlw	01Fh
   576  008B  340E               	retlw	0Eh
   577  008C  3404               	retlw	04h
   578  008D  3400               	retlw	0
   579  008E  340A               	retlw	0Ah
   580  008F  3415               	retlw	015h
   581  0090  3411               	retlw	011h
   582  0091  340A               	retlw	0Ah
   583  0092  3404               	retlw	04h
   584  0093  3400               	retlw	0
   585  0094  3400               	retlw	0
   586  0095  3400               	retlw	0
   587  0096  340A               	retlw	0Ah
   588  0097  341F               	retlw	01Fh
   589  0098  341F               	retlw	01Fh
   590  0099  340E               	retlw	0Eh
   591  009A  3404               	retlw	04h
   592  009B  3400               	retlw	0
   593  009C  3400               	retlw	0
   594  009D  3400               	retlw	0
   595  009E  3400               	retlw	0
   596  009F  3400               	retlw	0
   597  00A0  3400               	retlw	0
   598  00A1  3400               	retlw	0
   599  00A2  3400               	retlw	0
   600  00A3  3400               	retlw	0
   601  00A4  3400               	retlw	0
   602  00A5  3400               	retlw	0
   603  00A6  3400               	retlw	0
   604  00A7  3400               	retlw	0
   605  00A8  3400               	retlw	0
   606  00A9  3400               	retlw	0
   607  00AA  3400               	retlw	0
   608  00AB  3400               	retlw	0
   609  00AC  3400               	retlw	0
   610  00AD  3400               	retlw	0
   611  00AE  3400               	retlw	0
   612  00AF  3400               	retlw	0
   613  00B0  3400               	retlw	0
   614  00B1  3400               	retlw	0
   615  00B2  3400               	retlw	0
   616  00B3  3400               	retlw	0
   617  00B4  3400               	retlw	0
   618  00B5  3400               	retlw	0
   619                           opt subtitle "HI-TECH Software Omniscient Code Generator (Lite mode) build 49521"
   620                           
   621  001F                     _ADCON0bits	set	0x1F
   622                           opt subtitle "HI-TECH Software Omniscient Code Generator (Lite mode) build 49521"
   623  001E                     _ADRESH	set	0x1E
   624                           opt subtitle "HI-TECH Software Omniscient Code Generator (Lite mode) build 49521"
   625  0008                     _PORTD	set	0x8
   626                           opt subtitle "HI-TECH Software Omniscient Code Generator (Lite mode) build 49521"
   627  0031                     _RB1	set	0x31
   628                           opt subtitle "HI-TECH Software Omniscient Code Generator (Lite mode) build 49521"
   629  0032                     _RB2	set	0x32
   630                           opt subtitle "HI-TECH Software Omniscient Code Generator (Lite mode) build 49521"
   631  0044                     _RD4	set	0x44
   632                           opt subtitle "HI-TECH Software Omniscient Code Generator (Lite mode) build 49521"
   633  009F                     _ADCON1bits	set	0x9F
   634                           opt subtitle "HI-TECH Software Omniscient Code Generator (Lite mode) build 49521"
   635  009E                     _ADRESL	set	0x9E
   636                           opt subtitle "HI-TECH Software Omniscient Code Generator (Lite mode) build 49521"
   637  0086                     _TRISBbits	set	0x86
   638                           opt subtitle "HI-TECH Software Omniscient Code Generator (Lite mode) build 49521"
   639  0088                     _TRISD	set	0x88
   640                           opt subtitle "HI-TECH Software Omniscient Code Generator (Lite mode) build 49521"
   641  0088                     _TRISDbits	set	0x88
   642                           opt subtitle "HI-TECH Software Omniscient Code Generator (Lite mode) build 49521"
   643                           
   644  0800                     __pstrings:
   645                           opt subtitle "HI-TECH Software Omniscient Code Generator (Lite mode) build 49521"
   646  0800                     stringtab:
   647                           opt subtitle "HI-TECH Software Omniscient Code Generator (Lite mode) build 49521"
   648  0800                     __stringtab:
   649                           opt subtitle "HI-TECH Software Omniscient Code Generator (Lite mode) build 49521"
   650  0800                     stringcode:stringdir:
      + 0800                     stringdir:	
   651  0800  3008               movlw high(stringdir)
   652  0801  008A               movwf pclath
   653  0802  0804               movf fsr,w
   654  0803  0A84               incf fsr
   655  0804  0782               	addwf pc
   656  0805                     __stringbase:
   657  0805  3400               	retlw	0
   658                           opt subtitle "HI-TECH Software Omniscient Code Generator (Lite mode) build 49521"
   659                           
   660  0806                     __end_of__stringtab:
   661                           opt subtitle "HI-TECH Software Omniscient Code Generator (Lite mode) build 49521"
   662  0806                     __stringdata:
   663                           opt subtitle "HI-TECH Software Omniscient Code Generator (Lite mode) build 49521"
   664  0806                     STR_1:	
   665  0806  3454               	retlw	84	;'T'
   666  0807  3468               	retlw	104	;'h'
   667  0808  3465               	retlw	101	;'e'
   668  0809  3472               	retlw	114	;'r'
   669  080A  346D               	retlw	109	;'m'
   670  080B  346F               	retlw	111	;'o'
   671  080C  346D               	retlw	109	;'m'
   672  080D  3465               	retlw	101	;'e'
   673  080E  3474               	retlw	116	;'t'
   674  080F  3465               	retlw	101	;'e'
   675  0810  3472               	retlw	114	;'r'
   676  0811  3400               	retlw	0
   677                           opt subtitle "HI-TECH Software Omniscient Code Generator (Lite mode) build 49521"
   678                           
   679  0812                     STR_2:	
   680  0812  3425               	retlw	37	;'%'
   681  0813  3430               	retlw	48	;'0'
   682  0814  3443               	retlw	67	;'C'
   683  0815  3400               	retlw	0
   684                           opt subtitle "HI-TECH Software Omniscient Code Generator (Lite mode) build 49521"
   685                           
   686  0816                     __end_of__stringdata:
   687                           opt subtitle "HI-TECH Software Omniscient Code Generator (Lite mode) build 49521"
   688                           
   689  0000                     __CFG_BOREN$ON equ 0x0
   690                           opt subtitle "HI-TECH Software Omniscient Code Generator (Lite mode) build 49521"
   691  0000                     __CFG_CPD$OFF equ 0x0
   692                           opt subtitle "HI-TECH Software Omniscient Code Generator (Lite mode) build 49521"
   693  0000                     __CFG_WRT$OFF equ 0x0
   694                           opt subtitle "HI-TECH Software Omniscient Code Generator (Lite mode) build 49521"
   695  0000                     __CFG_FOSC$HS equ 0x0
   696                           opt subtitle "HI-TECH Software Omniscient Code Generator (Lite mode) build 49521"
   697  0000                     __CFG_WDTE$OFF equ 0x0
   698                           opt subtitle "HI-TECH Software Omniscient Code Generator (Lite mode) build 49521"
   699  0000                     __CFG_CP$OFF equ 0x0
   700                           opt subtitle "HI-TECH Software Omniscient Code Generator (Lite mode) build 49521"
   701  0000                     __CFG_LVP$ON equ 0x0
   702                           opt subtitle "HI-TECH Software Omniscient Code Generator (Lite mode) build 49521"
   703  0000                     __CFG_PWRTE$OFF equ 0x0
   704                           opt subtitle "HI-TECH Software Omniscient Code Generator (Lite mode) build 49521"
   705                           
   706                           opt pagewidth 120
   707                           
   708  0FE9                     start_initialization:
   709                           opt subtitle "HI-TECH Software Omniscient Code Generator (Lite mode) build 49521"
   710                           
   711  0FE9                     __initialization:
   712                           opt subtitle "HI-TECH Software Omniscient Code Generator (Lite mode) build 49521"
   713                           
   714  004E                     __pbssBANK0:
   715  004E                     LCDWriteInt@F1160:
   716  004E                            ds      5
   717                           opt subtitle "HI-TECH Software Omniscient Code Generator (Lite mode) build 49521"
   718                           
   719                           opt pagewidth 120
   720  00A0                     __pdataBANK1:
   721                           opt subtitle "HI-TECH Software Omniscient Code Generator (Lite mode) build 49521"
   722  00A0                     ___cgram:
   723  00A0                            ds      64
   724                           opt subtitle "HI-TECH Software Omniscient Code Generator (Lite mode) build 49521"
   725                           
   726                           opt pagewidth 120
   727  0FE9  01CE               	clrf	((__pbssBANK0)+0)&07Fh
   728  0FEA  01CF               	clrf	((__pbssBANK0)+1)&07Fh
   729  0FEB  01D0               	clrf	((__pbssBANK0)+2)&07Fh
   730  0FEC  01D1               	clrf	((__pbssBANK0)+3)&07Fh
   731  0FED  01D2               	clrf	((__pbssBANK0)+4)&07Fh
   732                           opt subtitle "HI-TECH Software Omniscient Code Generator (Lite mode) build 49521"
   733                           
   734                           opt pagewidth 120
   735                           
   736  0003                     init_fetch:
   737  0003  087E               	movf btemp,w
   738  0004  008A               	movwf pclath
   739  0005  087F               	movf btemp+1,w
   740  0006  0082               	movwf pc
   741                           opt subtitle "HI-TECH Software Omniscient Code Generator (Lite mode) build 49521"
   742                           
   743                           opt pagewidth 120
   744                           
   745                           	opt lm
   746                           
   747  0007                     init_ram:
   748  0007  120A  118A  2003   	fcall init_fetch
              120A  118A         
   749  000C  0080               	movwf indf,f
   750  000D  0A84               	incf fsr,f
   751  000E  0804               	movf fsr,w
   752  000F  067D               	xorwf btemp-1,w
   753  0010  1903               	btfsc status,2
   754  0011  3400               	retlw 0
   755  0012  0AFF               	incf btemp+1,f
   756  0013  1903               	btfsc status,2
   757  0014  0AFE               	incf btemp,f
   758  0015  2807               	goto init_ram
   759                           opt subtitle "HI-TECH Software Omniscient Code Generator (Lite mode) build 49521"
   760                           
   761                           opt pagewidth 120
   762  0FEE  1383               	bcf	status, 7	;select IRP bank0
   763  0FEF  30E0               	movlw low(__pdataBANK1+64)
   764  0FF0  00FD               	movwf btemp-1,f
   765  0FF1  3000               	movlw high(__pidataBANK1)
   766  0FF2  00FE               	movwf btemp,f
   767  0FF3  3076               	movlw low(__pidataBANK1)
   768  0FF4  00FF               	movwf btemp+1,f
   769  0FF5  30A0               	movlw low(__pdataBANK1)
   770  0FF6  0084               	movwf fsr,f
   771  0FF7  120A  118A  2007   	fcall init_ram
              120A  158A         
   772                           opt subtitle "HI-TECH Software Omniscient Code Generator (Lite mode) build 49521"
   773                           
   774                           opt pagewidth 120
   775                           
   776                           	opt lm
   777  0FFC                     end_of_initialization:
   778  0FFC                     __end_of__initialization:clrf status
      + 0FFC  0183               	clrf	3
   779  0FFD  120A  118A  2A0D   ljmp _main	;jump to C main() function
   780                           opt subtitle "HI-TECH Software Omniscient Code Generator (Lite mode) build 49521"
   781                           
   782  0070                     __pcstackCOMMON:
   783  0070                     ?_LCDInit:	; 0 bytes @ 0x0
   784  0070                     ?_ADCInit:	; 0 bytes @ 0x0
   785  0070                     ??_ADCInit:	; 0 bytes @ 0x0
   786  0070                     ?_LCDWriteString:	; 0 bytes @ 0x0
   787  0070                     ?_LCDBusyLoop:	; 0 bytes @ 0x0
   788  0070                     ??_LCDBusyLoop:	; 0 bytes @ 0x0
   789  0070                     ?_main:	; 0 bytes @ 0x0
   790                           opt subtitle "HI-TECH Software Omniscient Code Generator (Lite mode) build 49521"
   791  0070                     ?_ReadADC:	; 2 bytes @ 0x0
   792                           opt subtitle "HI-TECH Software Omniscient Code Generator (Lite mode) build 49521"
   793  0070                     ?___lwdiv:	; 2 bytes @ 0x0
   794                           opt subtitle "HI-TECH Software Omniscient Code Generator (Lite mode) build 49521"
   795  0070                     ?___awdiv:	; 2 bytes @ 0x0
   796                           opt subtitle "HI-TECH Software Omniscient Code Generator (Lite mode) build 49521"
   797  0070                     ?___awmod:	; 2 bytes @ 0x0
   798                           opt subtitle "HI-TECH Software Omniscient Code Generator (Lite mode) build 49521"
   799  0070                     ?___ftpack:	; 3 bytes @ 0x0
   800                           opt subtitle "HI-TECH Software Omniscient Code Generator (Lite mode) build 49521"
   801  0070                     ?___fttol:	; 4 bytes @ 0x0
   802                           opt subtitle "HI-TECH Software Omniscient Code Generator (Lite mode) build 49521"
   803  0070                     ___lwdiv@divisor:	; 2 bytes @ 0x0
   804                           opt subtitle "HI-TECH Software Omniscient Code Generator (Lite mode) build 49521"
   805  0070                     ___awdiv@divisor:	; 2 bytes @ 0x0
   806                           opt subtitle "HI-TECH Software Omniscient Code Generator (Lite mode) build 49521"
   807  0070                     ___awmod@divisor:	; 2 bytes @ 0x0
   808                           opt subtitle "HI-TECH Software Omniscient Code Generator (Lite mode) build 49521"
   809  0070                     ___fttol@f1:	; 3 bytes @ 0x0
   810                           opt subtitle "HI-TECH Software Omniscient Code Generator (Lite mode) build 49521"
   811  0070                     ___ftpack@arg:	; 3 bytes @ 0x0
   812  0070                     	ds	2
   813  0072                     ??_ReadADC:	; 0 bytes @ 0x2
   814                           opt subtitle "HI-TECH Software Omniscient Code Generator (Lite mode) build 49521"
   815  0072                     LCDBusyLoop@busy:	; 1 bytes @ 0x2
   816                           opt subtitle "HI-TECH Software Omniscient Code Generator (Lite mode) build 49521"
   817  0072                     ___lwdiv@dividend:	; 2 bytes @ 0x2
   818                           opt subtitle "HI-TECH Software Omniscient Code Generator (Lite mode) build 49521"
   819  0072                     ___awdiv@dividend:	; 2 bytes @ 0x2
   820                           opt subtitle "HI-TECH Software Omniscient Code Generator (Lite mode) build 49521"
   821  0072                     ___awmod@dividend:	; 2 bytes @ 0x2
   822  0072                     	ds	1
   823                           opt subtitle "HI-TECH Software Omniscient Code Generator (Lite mode) build 49521"
   824  0073                     LCDBusyLoop@temp:	; 1 bytes @ 0x3
   825                           opt subtitle "HI-TECH Software Omniscient Code Generator (Lite mode) build 49521"
   826  0073                     ReadADC@ch:	; 1 bytes @ 0x3
   827                           opt subtitle "HI-TECH Software Omniscient Code Generator (Lite mode) build 49521"
   828  0073                     ___ftpack@exp:	; 1 bytes @ 0x3
   829  0073                     	ds	1
   830  0074                     ??___lwdiv:	; 0 bytes @ 0x4
   831  0074                     ??___fttol:	; 0 bytes @ 0x4
   832  0074                     ??___awdiv:	; 0 bytes @ 0x4
   833  0074                     ??___awmod:	; 0 bytes @ 0x4
   834                           opt subtitle "HI-TECH Software Omniscient Code Generator (Lite mode) build 49521"
   835  0074                     LCDBusyLoop@status:	; 1 bytes @ 0x4
   836                           opt subtitle "HI-TECH Software Omniscient Code Generator (Lite mode) build 49521"
   837  0074                     ___ftpack@sign:	; 1 bytes @ 0x4
   838  0074                     	ds	1
   839                           opt subtitle "HI-TECH Software Omniscient Code Generator (Lite mode) build 49521"
   840  0075                     ?_LCDByte:	; 0 bytes @ 0x5
   841  0075                     ??___ftpack:	; 0 bytes @ 0x5
   842                           opt subtitle "HI-TECH Software Omniscient Code Generator (Lite mode) build 49521"
   843  0075                     LCDByte@isdata:	; 1 bytes @ 0x5
   844                           opt subtitle "HI-TECH Software Omniscient Code Generator (Lite mode) build 49521"
   845  0075                     ___awdiv@counter:	; 1 bytes @ 0x5
   846                           opt subtitle "HI-TECH Software Omniscient Code Generator (Lite mode) build 49521"
   847  0075                     ___awmod@counter:	; 1 bytes @ 0x5
   848                           opt subtitle "HI-TECH Software Omniscient Code Generator (Lite mode) build 49521"
   849  0075                     ___lwdiv@quotient:	; 2 bytes @ 0x5
   850  0075                     	ds	1
   851  0076                     ??_LCDByte:	; 0 bytes @ 0x6
   852                           opt subtitle "HI-TECH Software Omniscient Code Generator (Lite mode) build 49521"
   853  0076                     ___awdiv@sign:	; 1 bytes @ 0x6
   854                           opt subtitle "HI-TECH Software Omniscient Code Generator (Lite mode) build 49521"
   855  0076                     ___awmod@sign:	; 1 bytes @ 0x6
   856  0076                     	ds	1
   857                           opt subtitle "HI-TECH Software Omniscient Code Generator (Lite mode) build 49521"
   858  0077                     ___lwdiv@counter:	; 1 bytes @ 0x7
   859                           opt subtitle "HI-TECH Software Omniscient Code Generator (Lite mode) build 49521"
   860  0077                     ___awdiv@quotient:	; 2 bytes @ 0x7
   861  0077                     	ds	1
   862                           opt subtitle "HI-TECH Software Omniscient Code Generator (Lite mode) build 49521"
   863  0078                     ?___lwtoft:	; 3 bytes @ 0x8
   864                           opt subtitle "HI-TECH Software Omniscient Code Generator (Lite mode) build 49521"
   865  0078                     LCDByte@hn:	; 1 bytes @ 0x8
   866                           opt subtitle "HI-TECH Software Omniscient Code Generator (Lite mode) build 49521"
   867  0078                     ___fttol@sign1:	; 1 bytes @ 0x8
   868                           opt subtitle "HI-TECH Software Omniscient Code Generator (Lite mode) build 49521"
   869  0078                     ___lwtoft@c:	; 2 bytes @ 0x8
   870  0078                     	ds	1
   871                           opt subtitle "HI-TECH Software Omniscient Code Generator (Lite mode) build 49521"
   872  0079                     LCDByte@ln:	; 1 bytes @ 0x9
   873                           opt subtitle "HI-TECH Software Omniscient Code Generator (Lite mode) build 49521"
   874  0079                     ___fttol@lval:	; 4 bytes @ 0x9
   875  0079                     	ds	1
   876                           opt subtitle "HI-TECH Software Omniscient Code Generator (Lite mode) build 49521"
   877  007A                     LCDByte@c:	; 1 bytes @ 0xA
   878  007A                     	ds	1
   879  007B                     ??___lwtoft:	; 0 bytes @ 0xB
   880                           opt subtitle "HI-TECH Software Omniscient Code Generator (Lite mode) build 49521"
   881  007B                     LCDByte@temp:	; 1 bytes @ 0xB
   882  007B                     	ds	1
   883  007C                     ??_LCDInit:	; 0 bytes @ 0xC
   884  007C                     ??_LCDWriteString:	; 0 bytes @ 0xC
   885  007C                     ??_LM35ReadTemp:	; 0 bytes @ 0xC
   886                           opt subtitle "HI-TECH Software Omniscient Code Generator (Lite mode) build 49521"
   887  007C                     ?_LCDGotoXY:	; 0 bytes @ 0xC
   888                           opt subtitle "HI-TECH Software Omniscient Code Generator (Lite mode) build 49521"
   889  007C                     LCDGotoXY@y:	; 1 bytes @ 0xC
   890  007C                     	ds	1
   891  007D                     ??_LCDGotoXY:	; 0 bytes @ 0xD
   892                           opt subtitle "HI-TECH Software Omniscient Code Generator (Lite mode) build 49521"
   893  007D                     ___fttol@exp1:	; 1 bytes @ 0xD
   894  007D                     	ds	1
   895                           opt subtitle "HI-TECH Software Omniscient Code Generator (Lite mode) build 49521"
   896                           
   897  0020                     __pcstackBANK0:
   898                           opt subtitle "HI-TECH Software Omniscient Code Generator (Lite mode) build 49521"
   899  0020                     ?_LCDWriteInt:	; 0 bytes @ 0x0
   900                           opt subtitle "HI-TECH Software Omniscient Code Generator (Lite mode) build 49521"
   901  0020                     ?___ftdiv:	; 3 bytes @ 0x0
   902                           opt subtitle "HI-TECH Software Omniscient Code Generator (Lite mode) build 49521"
   903  0020                     LCDInit@style:	; 1 bytes @ 0x0
   904                           opt subtitle "HI-TECH Software Omniscient Code Generator (Lite mode) build 49521"
   905  0020                     LCDWriteString@cc:	; 1 bytes @ 0x0
   906                           opt subtitle "HI-TECH Software Omniscient Code Generator (Lite mode) build 49521"
   907  0020                     LCDGotoXY@x:	; 1 bytes @ 0x0
   908                           opt subtitle "HI-TECH Software Omniscient Code Generator (Lite mode) build 49521"
   909  0020                     LCDWriteInt@val:	; 2 bytes @ 0x0
   910                           opt subtitle "HI-TECH Software Omniscient Code Generator (Lite mode) build 49521"
   911  0020                     ___ftdiv@f2:	; 3 bytes @ 0x0
   912  0020                     	ds	1
   913                           opt subtitle "HI-TECH Software Omniscient Code Generator (Lite mode) build 49521"
   914  0021                     LCDInit@__i:	; 1 bytes @ 0x1
   915                           opt subtitle "HI-TECH Software Omniscient Code Generator (Lite mode) build 49521"
   916  0021                     LCDWriteString@msg:	; 1 bytes @ 0x1
   917  0021                     	ds	1
   918                           opt subtitle "HI-TECH Software Omniscient Code Generator (Lite mode) build 49521"
   919  0022                     LCDWriteInt@field_length:	; 1 bytes @ 0x2
   920  0022                     	ds	1
   921  0023                     ??_LCDWriteInt:	; 0 bytes @ 0x3
   922                           opt subtitle "HI-TECH Software Omniscient Code Generator (Lite mode) build 49521"
   923  0023                     ___ftdiv@f1:	; 3 bytes @ 0x3
   924  0023                     	ds	2
   925                           opt subtitle "HI-TECH Software Omniscient Code Generator (Lite mode) build 49521"
   926  0025                     LCDWriteInt@str:	; 5 bytes @ 0x5
   927  0025                     	ds	1
   928  0026                     ??___ftdiv:	; 0 bytes @ 0x6
   929  0026                     	ds	4
   930                           opt subtitle "HI-TECH Software Omniscient Code Generator (Lite mode) build 49521"
   931  002A                     ___ftdiv@cntr:	; 1 bytes @ 0xA
   932                           opt subtitle "HI-TECH Software Omniscient Code Generator (Lite mode) build 49521"
   933  002A                     LCDWriteInt@j:	; 2 bytes @ 0xA
   934  002A                     	ds	1
   935                           opt subtitle "HI-TECH Software Omniscient Code Generator (Lite mode) build 49521"
   936  002B                     ___ftdiv@f3:	; 3 bytes @ 0xB
   937  002B                     	ds	1
   938                           opt subtitle "HI-TECH Software Omniscient Code Generator (Lite mode) build 49521"
   939  002C                     LCDWriteInt@i:	; 2 bytes @ 0xC
   940  002C                     	ds	2
   941                           opt subtitle "HI-TECH Software Omniscient Code Generator (Lite mode) build 49521"
   942  002E                     ___ftdiv@exp:	; 1 bytes @ 0xE
   943  002E                     	ds	1
   944                           opt subtitle "HI-TECH Software Omniscient Code Generator (Lite mode) build 49521"
   945  002F                     ___ftdiv@sign:	; 1 bytes @ 0xF
   946  002F                     	ds	1
   947                           opt subtitle "HI-TECH Software Omniscient Code Generator (Lite mode) build 49521"
   948  0030                     ?___ftmul:	; 3 bytes @ 0x10
   949                           opt subtitle "HI-TECH Software Omniscient Code Generator (Lite mode) build 49521"
   950  0030                     ___ftmul@f1:	; 3 bytes @ 0x10
   951  0030                     	ds	3
   952                           opt subtitle "HI-TECH Software Omniscient Code Generator (Lite mode) build 49521"
   953  0033                     ___ftmul@f2:	; 3 bytes @ 0x13
   954  0033                     	ds	3
   955  0036                     ??___ftmul:	; 0 bytes @ 0x16
   956  0036                     	ds	4
   957                           opt subtitle "HI-TECH Software Omniscient Code Generator (Lite mode) build 49521"
   958  003A                     ___ftmul@exp:	; 1 bytes @ 0x1A
   959  003A                     	ds	1
   960                           opt subtitle "HI-TECH Software Omniscient Code Generator (Lite mode) build 49521"
   961  003B                     ___ftmul@f3_as_product:	; 3 bytes @ 0x1B
   962  003B                     	ds	3
   963                           opt subtitle "HI-TECH Software Omniscient Code Generator (Lite mode) build 49521"
   964  003E                     ___ftmul@cntr:	; 1 bytes @ 0x1E
   965  003E                     	ds	1
   966                           opt subtitle "HI-TECH Software Omniscient Code Generator (Lite mode) build 49521"
   967  003F                     ___ftmul@sign:	; 1 bytes @ 0x1F
   968  003F                     	ds	1
   969                           opt subtitle "HI-TECH Software Omniscient Code Generator (Lite mode) build 49521"
   970  0040                     ?_LM35ReadTemp:	; 3 bytes @ 0x20
   971  0040                     	ds	3
   972                           opt subtitle "HI-TECH Software Omniscient Code Generator (Lite mode) build 49521"
   973  0043                     LM35ReadTemp@t:	; 3 bytes @ 0x23
   974  0043                     	ds	3
   975                           opt subtitle "HI-TECH Software Omniscient Code Generator (Lite mode) build 49521"
   976  0046                     LM35ReadTemp@adc_value:	; 2 bytes @ 0x26
   977  0046                     	ds	2
   978  0048                     ??_main:	; 0 bytes @ 0x28
   979  0048                     	ds	3
   980                           opt subtitle "HI-TECH Software Omniscient Code Generator (Lite mode) build 49521"
   981  004B                     main@t:	; 3 bytes @ 0x2B
   982  004B                     	ds	3
   983                           opt subtitle "HI-TECH Software Omniscient Code Generator (Lite mode) build 49521"
   984                           
   985                           opt pagewidth 120
   986                           
   987                           	opt lm
   988                           
   989                           	processor	16F877A
   990                           clrc	macro
   991                           	bcf	3,0
   992                           	endm
   993                           clrz	macro
   994                           	bcf	3,2
   995                           	endm
   996                           setc	macro
   997                           	bsf	3,0
   998                           	endm
   999                           setz	macro
  1000                           	bsf	3,2
  1001                           	endm
  1002                           skipc	macro
  1003                           	btfss	3,0
  1004                           	endm
  1005                           skipz	macro
  1006                           	btfss	3,2
  1007                           	endm
  1008                           skipnc	macro
  1009                           	btfsc	3,0
  1010                           	endm
  1011                           skipnz	macro
  1012                           	btfsc	3,2
  1013                           	endm
  1014                           indf	equ	0
  1015                           indf0	equ	0
  1016                           pc	equ	2
  1017                           pcl	equ	2
  1018                           status	equ	3
  1019                           fsr	equ	4
  1020                           fsr0	equ	4
  1021                           c	equ	1
  1022                           z	equ	0
  1023                           pclath	equ	10
  1024                           # 46 "D:\Program Files\Microchip\xc8\v1.12\include\pic16f877a.h"
  1025                           INDF equ 00h ;# 
  1026                           # 52 "D:\Program Files\Microchip\xc8\v1.12\include\pic16f877a.h"
  1027                           TMR0 equ 01h ;# 
  1028                           # 58 "D:\Program Files\Microchip\xc8\v1.12\include\pic16f877a.h"
  1029                           PCL equ 02h ;# 
  1030                           # 64 "D:\Program Files\Microchip\xc8\v1.12\include\pic16f877a.h"
  1031                           STATUS equ 03h ;# 
  1032                           # 151 "D:\Program Files\Microchip\xc8\v1.12\include\pic16f877a.h"
  1033                           FSR equ 04h ;# 
  1034                           # 157 "D:\Program Files\Microchip\xc8\v1.12\include\pic16f877a.h"
  1035                           PORTA equ 05h ;# 
  1036                           # 206 "D:\Program Files\Microchip\xc8\v1.12\include\pic16f877a.h"
  1037                           PORTB equ 06h ;# 
  1038                           # 267 "D:\Program Files\Microchip\xc8\v1.12\include\pic16f877a.h"
  1039                           PORTC equ 07h ;# 
  1040                           # 328 "D:\Program Files\Microchip\xc8\v1.12\include\pic16f877a.h"
  1041                           PORTD equ 08h ;# 
  1042                           # 389 "D:\Program Files\Microchip\xc8\v1.12\include\pic16f877a.h"
  1043                           PORTE equ 09h ;# 
  1044                           # 420 "D:\Program Files\Microchip\xc8\v1.12\include\pic16f877a.h"
  1045                           PCLATH equ 0Ah ;# 
  1046                           # 439 "D:\Program Files\Microchip\xc8\v1.12\include\pic16f877a.h"
  1047                           INTCON equ 0Bh ;# 
  1048                           # 516 "D:\Program Files\Microchip\xc8\v1.12\include\pic16f877a.h"
  1049                           PIR1 equ 0Ch ;# 
  1050                           # 577 "D:\Program Files\Microchip\xc8\v1.12\include\pic16f877a.h"
  1051                           PIR2 equ 0Dh ;# 
  1052                           # 616 "D:\Program Files\Microchip\xc8\v1.12\include\pic16f877a.h"
  1053                           TMR1 equ 0Eh ;# 
  1054                           # 622 "D:\Program Files\Microchip\xc8\v1.12\include\pic16f877a.h"
  1055                           TMR1L equ 0Eh ;# 
  1056                           # 628 "D:\Program Files\Microchip\xc8\v1.12\include\pic16f877a.h"
  1057                           TMR1H equ 0Fh ;# 
  1058                           # 634 "D:\Program Files\Microchip\xc8\v1.12\include\pic16f877a.h"
  1059                           T1CON equ 010h ;# 
  1060                           # 708 "D:\Program Files\Microchip\xc8\v1.12\include\pic16f877a.h"
  1061                           TMR2 equ 011h ;# 
  1062                           # 714 "D:\Program Files\Microchip\xc8\v1.12\include\pic16f877a.h"
  1063                           T2CON equ 012h ;# 
  1064                           # 784 "D:\Program Files\Microchip\xc8\v1.12\include\pic16f877a.h"
  1065                           SSPBUF equ 013h ;# 
  1066                           # 790 "D:\Program Files\Microchip\xc8\v1.12\include\pic16f877a.h"
  1067                           SSPCON equ 014h ;# 
  1068                           # 859 "D:\Program Files\Microchip\xc8\v1.12\include\pic16f877a.h"
  1069                           CCPR1 equ 015h ;# 
  1070                           # 865 "D:\Program Files\Microchip\xc8\v1.12\include\pic16f877a.h"
  1071                           CCPR1L equ 015h ;# 
  1072                           # 871 "D:\Program Files\Microchip\xc8\v1.12\include\pic16f877a.h"
  1073                           CCPR1H equ 016h ;# 
  1074                           # 877 "D:\Program Files\Microchip\xc8\v1.12\include\pic16f877a.h"
  1075                           CCP1CON equ 017h ;# 
  1076                           # 934 "D:\Program Files\Microchip\xc8\v1.12\include\pic16f877a.h"
  1077                           RCSTA equ 018h ;# 
  1078                           # 1028 "D:\Program Files\Microchip\xc8\v1.12\include\pic16f877a.h"
  1079                           TXREG equ 019h ;# 
  1080                           # 1034 "D:\Program Files\Microchip\xc8\v1.12\include\pic16f877a.h"
  1081                           RCREG equ 01Ah ;# 
  1082                           # 1040 "D:\Program Files\Microchip\xc8\v1.12\include\pic16f877a.h"
  1083                           CCPR2 equ 01Bh ;# 
  1084                           # 1046 "D:\Program Files\Microchip\xc8\v1.12\include\pic16f877a.h"
  1085                           CCPR2L equ 01Bh ;# 
  1086                           # 1052 "D:\Program Files\Microchip\xc8\v1.12\include\pic16f877a.h"
  1087                           CCPR2H equ 01Ch ;# 
  1088                           # 1058 "D:\Program Files\Microchip\xc8\v1.12\include\pic16f877a.h"
  1089                           CCP2CON equ 01Dh ;# 
  1090                           # 1115 "D:\Program Files\Microchip\xc8\v1.12\include\pic16f877a.h"
  1091                           ADRESH equ 01Eh ;# 
  1092                           # 1121 "D:\Program Files\Microchip\xc8\v1.12\include\pic16f877a.h"
  1093                           ADCON0 equ 01Fh ;# 
  1094                           # 1216 "D:\Program Files\Microchip\xc8\v1.12\include\pic16f877a.h"
  1095                           OPTION_REG equ 081h ;# 
  1096                           # 1285 "D:\Program Files\Microchip\xc8\v1.12\include\pic16f877a.h"
  1097                           TRISA equ 085h ;# 
  1098                           # 1334 "D:\Program Files\Microchip\xc8\v1.12\include\pic16f877a.h"
  1099                           TRISB equ 086h ;# 
  1100                           # 1395 "D:\Program Files\Microchip\xc8\v1.12\include\pic16f877a.h"
  1101                           TRISC equ 087h ;# 
  1102                           # 1456 "D:\Program Files\Microchip\xc8\v1.12\include\pic16f877a.h"
  1103                           TRISD equ 088h ;# 
  1104                           # 1517 "D:\Program Files\Microchip\xc8\v1.12\include\pic16f877a.h"
  1105                           TRISE equ 089h ;# 
  1106                           # 1573 "D:\Program Files\Microchip\xc8\v1.12\include\pic16f877a.h"
  1107                           PIE1 equ 08Ch ;# 
  1108                           # 1634 "D:\Program Files\Microchip\xc8\v1.12\include\pic16f877a.h"
  1109                           PIE2 equ 08Dh ;# 
  1110                           # 1673 "D:\Program Files\Microchip\xc8\v1.12\include\pic16f877a.h"
  1111                           PCON equ 08Eh ;# 
  1112                           # 1706 "D:\Program Files\Microchip\xc8\v1.12\include\pic16f877a.h"
  1113                           SSPCON2 equ 091h ;# 
  1114                           # 1767 "D:\Program Files\Microchip\xc8\v1.12\include\pic16f877a.h"
  1115                           PR2 equ 092h ;# 
  1116                           # 1773 "D:\Program Files\Microchip\xc8\v1.12\include\pic16f877a.h"
  1117                           SSPADD equ 093h ;# 
  1118                           # 1779 "D:\Program Files\Microchip\xc8\v1.12\include\pic16f877a.h"
  1119                           SSPSTAT equ 094h ;# 
  1120                           # 1947 "D:\Program Files\Microchip\xc8\v1.12\include\pic16f877a.h"
  1121                           TXSTA equ 098h ;# 
  1122                           # 2027 "D:\Program Files\Microchip\xc8\v1.12\include\pic16f877a.h"
  1123                           SPBRG equ 099h ;# 
  1124                           # 2033 "D:\Program Files\Microchip\xc8\v1.12\include\pic16f877a.h"
  1125                           CMCON equ 09Ch ;# 
  1126                           # 2102 "D:\Program Files\Microchip\xc8\v1.12\include\pic16f877a.h"
  1127                           CVRCON equ 09Dh ;# 
  1128                           # 2166 "D:\Program Files\Microchip\xc8\v1.12\include\pic16f877a.h"
  1129                           ADRESL equ 09Eh ;# 
  1130                           # 2172 "D:\Program Files\Microchip\xc8\v1.12\include\pic16f877a.h"
  1131                           ADCON1 equ 09Fh ;# 
  1132                           # 2230 "D:\Program Files\Microchip\xc8\v1.12\include\pic16f877a.h"
  1133                           EEDATA equ 010Ch ;# 
  1134                           # 2236 "D:\Program Files\Microchip\xc8\v1.12\include\pic16f877a.h"
  1135                           EEADR equ 010Dh ;# 
  1136                           # 2242 "D:\Program Files\Microchip\xc8\v1.12\include\pic16f877a.h"
  1137                           EEDATH equ 010Eh ;# 
  1138                           # 2248 "D:\Program Files\Microchip\xc8\v1.12\include\pic16f877a.h"
  1139                           EEADRH equ 010Fh ;# 
  1140                           # 2254 "D:\Program Files\Microchip\xc8\v1.12\include\pic16f877a.h"
  1141                           EECON1 equ 018Ch ;# 
  1142                           # 2298 "D:\Program Files\Microchip\xc8\v1.12\include\pic16f877a.h"
  1143                           EECON2 equ 018Dh ;# 
  1144                           # 46 "D:\Program Files\Microchip\xc8\v1.12\include\pic16f877a.h"
  1145                           INDF equ 00h ;# 
  1146                           # 52 "D:\Program Files\Microchip\xc8\v1.12\include\pic16f877a.h"
  1147                           TMR0 equ 01h ;# 
  1148                           # 58 "D:\Program Files\Microchip\xc8\v1.12\include\pic16f877a.h"
  1149                           PCL equ 02h ;# 
  1150                           # 64 "D:\Program Files\Microchip\xc8\v1.12\include\pic16f877a.h"
  1151                           STATUS equ 03h ;# 
  1152                           # 151 "D:\Program Files\Microchip\xc8\v1.12\include\pic16f877a.h"
  1153                           FSR equ 04h ;# 
  1154                           # 157 "D:\Program Files\Microchip\xc8\v1.12\include\pic16f877a.h"
  1155                           PORTA equ 05h ;# 
  1156                           # 206 "D:\Program Files\Microchip\xc8\v1.12\include\pic16f877a.h"
  1157                           PORTB equ 06h ;# 
  1158                           # 267 "D:\Program Files\Microchip\xc8\v1.12\include\pic16f877a.h"
  1159                           PORTC equ 07h ;# 
  1160                           # 328 "D:\Program Files\Microchip\xc8\v1.12\include\pic16f877a.h"
  1161                           PORTD equ 08h ;# 
  1162                           # 389 "D:\Program Files\Microchip\xc8\v1.12\include\pic16f877a.h"
  1163                           PORTE equ 09h ;# 
  1164                           # 420 "D:\Program Files\Microchip\xc8\v1.12\include\pic16f877a.h"
  1165                           PCLATH equ 0Ah ;# 
  1166                           # 439 "D:\Program Files\Microchip\xc8\v1.12\include\pic16f877a.h"
  1167                           INTCON equ 0Bh ;# 
  1168                           # 516 "D:\Program Files\Microchip\xc8\v1.12\include\pic16f877a.h"
  1169                           PIR1 equ 0Ch ;# 
  1170                           # 577 "D:\Program Files\Microchip\xc8\v1.12\include\pic16f877a.h"
  1171                           PIR2 equ 0Dh ;# 
  1172                           # 616 "D:\Program Files\Microchip\xc8\v1.12\include\pic16f877a.h"
  1173                           TMR1 equ 0Eh ;# 
  1174                           # 622 "D:\Program Files\Microchip\xc8\v1.12\include\pic16f877a.h"
  1175                           TMR1L equ 0Eh ;# 
  1176                           # 628 "D:\Program Files\Microchip\xc8\v1.12\include\pic16f877a.h"
  1177                           TMR1H equ 0Fh ;# 
  1178                           # 634 "D:\Program Files\Microchip\xc8\v1.12\include\pic16f877a.h"
  1179                           T1CON equ 010h ;# 
  1180                           # 708 "D:\Program Files\Microchip\xc8\v1.12\include\pic16f877a.h"
  1181                           TMR2 equ 011h ;# 
  1182                           # 714 "D:\Program Files\Microchip\xc8\v1.12\include\pic16f877a.h"
  1183                           T2CON equ 012h ;# 
  1184                           # 784 "D:\Program Files\Microchip\xc8\v1.12\include\pic16f877a.h"
  1185                           SSPBUF equ 013h ;# 
  1186                           # 790 "D:\Program Files\Microchip\xc8\v1.12\include\pic16f877a.h"
  1187                           SSPCON equ 014h ;# 
  1188                           # 859 "D:\Program Files\Microchip\xc8\v1.12\include\pic16f877a.h"
  1189                           CCPR1 equ 015h ;# 
  1190                           # 865 "D:\Program Files\Microchip\xc8\v1.12\include\pic16f877a.h"
  1191                           CCPR1L equ 015h ;# 
  1192                           # 871 "D:\Program Files\Microchip\xc8\v1.12\include\pic16f877a.h"
  1193                           CCPR1H equ 016h ;# 
  1194                           # 877 "D:\Program Files\Microchip\xc8\v1.12\include\pic16f877a.h"
  1195                           CCP1CON equ 017h ;# 
  1196                           # 934 "D:\Program Files\Microchip\xc8\v1.12\include\pic16f877a.h"
  1197                           RCSTA equ 018h ;# 
  1198                           # 1028 "D:\Program Files\Microchip\xc8\v1.12\include\pic16f877a.h"
  1199                           TXREG equ 019h ;# 
  1200                           # 1034 "D:\Program Files\Microchip\xc8\v1.12\include\pic16f877a.h"
  1201                           RCREG equ 01Ah ;# 
  1202                           # 1040 "D:\Program Files\Microchip\xc8\v1.12\include\pic16f877a.h"
  1203                           CCPR2 equ 01Bh ;# 
  1204                           # 1046 "D:\Program Files\Microchip\xc8\v1.12\include\pic16f877a.h"
  1205                           CCPR2L equ 01Bh ;# 
  1206                           # 1052 "D:\Program Files\Microchip\xc8\v1.12\include\pic16f877a.h"
  1207                           CCPR2H equ 01Ch ;# 
  1208                           # 1058 "D:\Program Files\Microchip\xc8\v1.12\include\pic16f877a.h"
  1209                           CCP2CON equ 01Dh ;# 
  1210                           # 1115 "D:\Program Files\Microchip\xc8\v1.12\include\pic16f877a.h"
  1211                           ADRESH equ 01Eh ;# 
  1212                           # 1121 "D:\Program Files\Microchip\xc8\v1.12\include\pic16f877a.h"
  1213                           ADCON0 equ 01Fh ;# 
  1214                           # 1216 "D:\Program Files\Microchip\xc8\v1.12\include\pic16f877a.h"
  1215                           OPTION_REG equ 081h ;# 
  1216                           # 1285 "D:\Program Files\Microchip\xc8\v1.12\include\pic16f877a.h"
  1217                           TRISA equ 085h ;# 
  1218                           # 1334 "D:\Program Files\Microchip\xc8\v1.12\include\pic16f877a.h"
  1219                           TRISB equ 086h ;# 
  1220                           # 1395 "D:\Program Files\Microchip\xc8\v1.12\include\pic16f877a.h"
  1221                           TRISC equ 087h ;# 
  1222                           # 1456 "D:\Program Files\Microchip\xc8\v1.12\include\pic16f877a.h"
  1223                           TRISD equ 088h ;# 
  1224                           # 1517 "D:\Program Files\Microchip\xc8\v1.12\include\pic16f877a.h"
  1225                           TRISE equ 089h ;# 
  1226                           # 1573 "D:\Program Files\Microchip\xc8\v1.12\include\pic16f877a.h"
  1227                           PIE1 equ 08Ch ;# 
  1228                           # 1634 "D:\Program Files\Microchip\xc8\v1.12\include\pic16f877a.h"
  1229                           PIE2 equ 08Dh ;# 
  1230                           # 1673 "D:\Program Files\Microchip\xc8\v1.12\include\pic16f877a.h"
  1231                           PCON equ 08Eh ;# 
  1232                           # 1706 "D:\Program Files\Microchip\xc8\v1.12\include\pic16f877a.h"
  1233                           SSPCON2 equ 091h ;# 
  1234                           # 1767 "D:\Program Files\Microchip\xc8\v1.12\include\pic16f877a.h"
  1235                           PR2 equ 092h ;# 
  1236                           # 1773 "D:\Program Files\Microchip\xc8\v1.12\include\pic16f877a.h"
  1237                           SSPADD equ 093h ;# 
  1238                           # 1779 "D:\Program Files\Microchip\xc8\v1.12\include\pic16f877a.h"
  1239                           SSPSTAT equ 094h ;# 
  1240                           # 1947 "D:\Program Files\Microchip\xc8\v1.12\include\pic16f877a.h"
  1241                           TXSTA equ 098h ;# 
  1242                           # 2027 "D:\Program Files\Microchip\xc8\v1.12\include\pic16f877a.h"
  1243                           SPBRG equ 099h ;# 
  1244                           # 2033 "D:\Program Files\Microchip\xc8\v1.12\include\pic16f877a.h"
  1245                           CMCON equ 09Ch ;# 
  1246                           # 2102 "D:\Program Files\Microchip\xc8\v1.12\include\pic16f877a.h"
  1247                           CVRCON equ 09Dh ;# 
  1248                           # 2166 "D:\Program Files\Microchip\xc8\v1.12\include\pic16f877a.h"
  1249                           ADRESL equ 09Eh ;# 
  1250                           # 2172 "D:\Program Files\Microchip\xc8\v1.12\include\pic16f877a.h"
  1251                           ADCON1 equ 09Fh ;# 
  1252                           # 2230 "D:\Program Files\Microchip\xc8\v1.12\include\pic16f877a.h"
  1253                           EEDATA equ 010Ch ;# 
  1254                           # 2236 "D:\Program Files\Microchip\xc8\v1.12\include\pic16f877a.h"
  1255                           EEADR equ 010Dh ;# 
  1256                           # 2242 "D:\Program Files\Microchip\xc8\v1.12\include\pic16f877a.h"
  1257                           EEDATH equ 010Eh ;# 
  1258                           # 2248 "D:\Program Files\Microchip\xc8\v1.12\include\pic16f877a.h"
  1259                           EEADRH equ 010Fh ;# 
  1260                           # 2254 "D:\Program Files\Microchip\xc8\v1.12\include\pic16f877a.h"
  1261                           EECON1 equ 018Ch ;# 
  1262                           # 2298 "D:\Program Files\Microchip\xc8\v1.12\include\pic16f877a.h"
  1263                           EECON2 equ 018Dh ;# 
  1264                           # 46 "D:\Program Files\Microchip\xc8\v1.12\include\pic16f877a.h"
  1265                           INDF equ 00h ;# 
  1266                           # 52 "D:\Program Files\Microchip\xc8\v1.12\include\pic16f877a.h"
  1267                           TMR0 equ 01h ;# 
  1268                           # 58 "D:\Program Files\Microchip\xc8\v1.12\include\pic16f877a.h"
  1269                           PCL equ 02h ;# 
  1270  020D                     __pmaintext:	;psect for function _main
  1271                           opt subtitle "HI-TECH Software Omniscient Code Generator (Lite mode) build 49521"
  1272                           
  1273                           opt pagewidth 120
  1274                           
  1275  0066                     	__size_of_main	equ	__end_of_main-_main
  1276                           opt subtitle "HI-TECH Software Omniscient Code Generator (Lite mode) build 49521"
  1277  020D                     _main:	
  1278                           opt subtitle "HI-TECH Software Omniscient Code Generator (Lite mode) build 49521"
  1279                           
  1280                           opt pagewidth 120
  1281                           
  1282  020D                     l1761:	
  1283                           opt subtitle "HI-TECH Software Omniscient Code Generator (Lite mode) build 49521"
  1284  020D  3000               	movlw	(0)
  1285  020E  120A  118A  2273   	fcall	_LCDInit
              120A  118A         
  1286                           opt subtitle "HI-TECH Software Omniscient Code Generator (Lite mode) build 49521"
  1287                           
  1288  0213                     l1763:	
  1289                           opt subtitle "HI-TECH Software Omniscient Code Generator (Lite mode) build 49521"
  1290  0213  120A  158A  27C0   	fcall	_ADCInit
              120A  118A         
  1291                           opt subtitle "HI-TECH Software Omniscient Code Generator (Lite mode) build 49521"
  1292                           
  1293  0218                     l1765:	
  1294                           opt subtitle "HI-TECH Software Omniscient Code Generator (Lite mode) build 49521"
  1295  0218  01F5               	clrf	(?_LCDByte)
  1296  0219  3001               	movlw	(01h)
  1297  021A  120A  118A  2103   	fcall	_LCDByte
              120A  118A         
  1298                           opt subtitle "HI-TECH Software Omniscient Code Generator (Lite mode) build 49521"
  1299                           
  1300  021F  3001               	movlw	((STR_1-__stringbase))&0ffh
  1301  0220  120A  118A  2352   	fcall	_LCDWriteString
              120A  118A         
  1302  0225  2A26               	goto	l1767
  1303                           opt subtitle "HI-TECH Software Omniscient Code Generator (Lite mode) build 49521"
  1304                           
  1305                           opt pagewidth 120
  1306  0226                     l19:	
  1307                           opt subtitle "HI-TECH Software Omniscient Code Generator (Lite mode) build 49521"
  1308                           
  1309  0226                     l1767:	
  1310                           opt subtitle "HI-TECH Software Omniscient Code Generator (Lite mode) build 49521"
  1311                           
  1312  0226  120A  118A  2440   	fcall	_LM35ReadTemp
              120A  118A         
  1313  022B  1283               	bcf	status, 5	;RP0=0, select bank0
  1314  022C  1303               	bcf	status, 6	;RP1=0, select bank0
  1315  022D  0840               	movf	(0+(?_LM35ReadTemp)),w
  1316  022E  00CB               	movwf	(main@t)
  1317  022F  0841               	movf	(1+(?_LM35ReadTemp)),w
  1318  0230  00CC               	movwf	(main@t+1)
  1319  0231  0842               	movf	(2+(?_LM35ReadTemp)),w
  1320  0232  00CD               	movwf	(main@t+2)
  1321                           opt subtitle "HI-TECH Software Omniscient Code Generator (Lite mode) build 49521"
  1322                           
  1323  0233                     l1769:	
  1324                           opt subtitle "HI-TECH Software Omniscient Code Generator (Lite mode) build 49521"
  1325  0233  01FC               	clrf	(?_LCDGotoXY)
  1326  0234  0AFC               	incf	(?_LCDGotoXY),f
  1327  0235  3000               	movlw	(0)
  1328  0236  120A  118A  2045   	fcall	_LCDGotoXY
              120A  118A         
  1329                           opt subtitle "HI-TECH Software Omniscient Code Generator (Lite mode) build 49521"
  1330  023B                     l1771:	
  1331  023B  1283               	bcf	status, 5	;RP0=0, select bank0
  1332  023C  1303               	bcf	status, 6	;RP1=0, select bank0
  1333  023D  084B               	movf	(main@t),w
  1334  023E  00F0               	movwf	(?___fttol)
  1335  023F  084C               	movf	(main@t+1),w
  1336  0240  00F1               	movwf	(?___fttol+1)
  1337  0241  084D               	movf	(main@t+2),w
  1338  0242  00F2               	movwf	(?___fttol+2)
  1339  0243  120A  118A  24D3   	fcall	___fttol
              120A  118A         
  1340  0248  0871               	movf	1+(((0+(?___fttol)))),w
  1341  0249  1283               	bcf	status, 5	;RP0=0, select bank0
  1342  024A  1303               	bcf	status, 6	;RP1=0, select bank0
  1343  024B  01A1               	clrf	(?_LCDWriteInt+1)
  1344  024C  07A1               	addwf	(?_LCDWriteInt+1)
  1345  024D  0870               	movf	0+(((0+(?___fttol)))),w
  1346  024E  01A0               	clrf	(?_LCDWriteInt)
  1347  024F  07A0               	addwf	(?_LCDWriteInt)
  1348                           opt subtitle "HI-TECH Software Omniscient Code Generator (Lite mode) build 49521"
  1349  0250  3003               	movlw	(03h)
  1350  0251  00C8               	movwf	(??_main+0)+0
  1351  0252  0848               	movf	(??_main+0)+0,w
  1352  0253  00A2               	movwf	0+(?_LCDWriteInt)+02h
  1353  0254  120A  118A  263F   	fcall	_LCDWriteInt
              120A  118A         
  1354                           opt subtitle "HI-TECH Software Omniscient Code Generator (Lite mode) build 49521"
  1355                           
  1356  0259                     l1773:	
  1357                           opt subtitle "HI-TECH Software Omniscient Code Generator (Lite mode) build 49521"
  1358  0259  300D               	movlw	((STR_2-__stringbase))&0ffh
  1359  025A  120A  118A  2352   	fcall	_LCDWriteString
              120A  118A         
  1360                           opt subtitle "HI-TECH Software Omniscient Code Generator (Lite mode) build 49521"
  1361                           
  1362  025F                     l1775:	
  1363                           opt subtitle "HI-TECH Software Omniscient Code Generator (Lite mode) build 49521"
  1364                           
  1365  025F  3006               movlw  6
  1366  0260  1283               	bcf	status, 5	;RP0=0, select bank0
  1367  0261  1303               	bcf	status, 6	;RP1=0, select bank0
  1368  0262  00CA               movwf	((??_main+0)+0+2),f
  1369  0263  3013               movlw	19
  1370  0264  00C9               movwf	((??_main+0)+0+1),f
  1371  0265  30B1               	movlw	177
  1372  0266  00C8               movwf	((??_main+0)+0),f
  1373  0267                     u1777:
  1374  0267  0BC8               	decfsz	((??_main+0)+0),f
  1375  0268  2A67               	goto	u1777
  1376  0269  0BC9               	decfsz	((??_main+0)+0+1),f
  1377  026A  2A67               	goto	u1777
  1378  026B  0BCA               	decfsz	((??_main+0)+0+2),f
  1379  026C  2A67               	goto	u1777
  1380  026D  2A6E               	nop2
  1381                           opt subtitle "HI-TECH Software Omniscient Code Generator (Lite mode) build 49521"
  1382                           
  1383  026E  2A26               	goto	l1767
  1384                           opt subtitle "HI-TECH Software Omniscient Code Generator (Lite mode) build 49521"
  1385                           
  1386  026F                     l20:	
  1387                           opt subtitle "HI-TECH Software Omniscient Code Generator (Lite mode) build 49521"
  1388  026F  2A26               	goto	l1767
  1389                           opt subtitle "HI-TECH Software Omniscient Code Generator (Lite mode) build 49521"
  1390  0270                     l21:	
  1391                           opt subtitle "HI-TECH Software Omniscient Code Generator (Lite mode) build 49521"
  1392                           
  1393  0270                     l22:	
  1394                           opt subtitle "HI-TECH Software Omniscient Code Generator (Lite mode) build 49521"
  1395  0270  120A  118A  2800   	ljmp	start
  1396                           opt subtitle "HI-TECH Software Omniscient Code Generator (Lite mode) build 49521"
  1397                           
  1398  0273                     	__end_of_main:
  1399                           opt subtitle "HI-TECH Software Omniscient Code Generator (Lite mode) build 49521"
  1400                           
  1401                           opt pagewidth 120
  1402                           
  1403                           	opt lm
  1404                           
  1405                           	processor	16F877A
  1406                           clrc	macro
  1407                           	bcf	3,0
  1408                           	endm
  1409                           clrz	macro
  1410                           	bcf	3,2
  1411                           	endm
  1412                           setc	macro
  1413                           	bsf	3,0
  1414                           	endm
  1415                           setz	macro
  1416                           	bsf	3,2
  1417                           	endm
  1418                           skipc	macro
  1419                           	btfss	3,0
  1420                           	endm
  1421                           skipz	macro
  1422                           	btfss	3,2
  1423                           	endm
  1424                           skipnc	macro
  1425                           	btfsc	3,0
  1426                           	endm
  1427                           skipnz	macro
  1428                           	btfsc	3,2
  1429                           	endm
  1430                           indf	equ	0
  1431                           indf0	equ	0
  1432                           pc	equ	2
  1433                           pcl	equ	2
  1434                           status	equ	3
  1435  0273                     __ptext349:	;psect for function _LCDInit
  1436                           opt subtitle "HI-TECH Software Omniscient Code Generator (Lite mode) build 49521"
  1437                           
  1438                           opt pagewidth 120
  1439                           
  1440  006D                     	__size_of_LCDInit	equ	__end_of_LCDInit-_LCDInit
  1441                           opt subtitle "HI-TECH Software Omniscient Code Generator (Lite mode) build 49521"
  1442  0273                     _LCDInit:	
  1443                           opt subtitle "HI-TECH Software Omniscient Code Generator (Lite mode) build 49521"
  1444                           
  1445                           opt pagewidth 120
  1446                           
  1447  0273  1283               	bcf	status, 5	;RP0=0, select bank0
  1448  0274  1303               	bcf	status, 6	;RP1=0, select bank0
  1449  0275  00A0               	movwf	(LCDInit@style)
  1450                           opt subtitle "HI-TECH Software Omniscient Code Generator (Lite mode) build 49521"
  1451  0276                     l1621:	
  1452                           opt subtitle "HI-TECH Software Omniscient Code Generator (Lite mode) build 49521"
  1453                           
  1454  0276  30C3               movlw	195
  1455  0277  00FD               movwf	((??_LCDInit+0)+0+1),f
  1456  0278  30CD               	movlw	205
  1457  0279  00FC               movwf	((??_LCDInit+0)+0),f
  1458  027A                     u1787:
  1459  027A  0BFC               	decfsz	((??_LCDInit+0)+0),f
  1460  027B  2A7A               	goto	u1787
  1461  027C  0BFD               	decfsz	((??_LCDInit+0)+0+1),f
  1462  027D  2A7A               	goto	u1787
  1463                           opt subtitle "HI-TECH Software Omniscient Code Generator (Lite mode) build 49521"
  1464                           
  1465                           opt pagewidth 120
  1466                           
  1467  027E                     l1623:	
  1468                           opt subtitle "HI-TECH Software Omniscient Code Generator (Lite mode) build 49521"
  1469  027E  30F0               	movlw	(0F0h)
  1470  027F  00FC               	movwf	(??_LCDInit+0)+0
  1471  0280  087C               	movf	(??_LCDInit+0)+0,w
  1472  0281  1683               	bsf	status, 5	;RP0=1, select bank1
  1473  0282  1303               	bcf	status, 6	;RP1=0, select bank1
  1474  0283  0588               	andwf	(136)^080h,f	;volatile
  1475                           opt subtitle "HI-TECH Software Omniscient Code Generator (Lite mode) build 49521"
  1476                           
  1477  0284                     l1625:	
  1478                           opt subtitle "HI-TECH Software Omniscient Code Generator (Lite mode) build 49521"
  1479  0284  1208               	bcf	(136)^080h,4	;volatile
  1480                           opt subtitle "HI-TECH Software Omniscient Code Generator (Lite mode) build 49521"
  1481                           
  1482  0285                     l1627:	
  1483                           opt subtitle "HI-TECH Software Omniscient Code Generator (Lite mode) build 49521"
  1484  0285  1086               	bcf	(134)^080h,1	;volatile
  1485                           opt subtitle "HI-TECH Software Omniscient Code Generator (Lite mode) build 49521"
  1486                           
  1487  0286                     l1629:	
  1488                           opt subtitle "HI-TECH Software Omniscient Code Generator (Lite mode) build 49521"
  1489  0286  1106               	bcf	(134)^080h,2	;volatile
  1490                           opt subtitle "HI-TECH Software Omniscient Code Generator (Lite mode) build 49521"
  1491                           
  1492  0287                     l1631:	
  1493                           opt subtitle "HI-TECH Software Omniscient Code Generator (Lite mode) build 49521"
  1494  0287  30F0               	movlw	(0F0h)
  1495  0288  00FC               	movwf	(??_LCDInit+0)+0
  1496  0289  087C               	movf	(??_LCDInit+0)+0,w
  1497  028A  1283               	bcf	status, 5	;RP0=0, select bank0
  1498  028B  1303               	bcf	status, 6	;RP1=0, select bank0
  1499  028C  0588               	andwf	(8),f	;volatile
  1500                           opt subtitle "HI-TECH Software Omniscient Code Generator (Lite mode) build 49521"
  1501                           
  1502  028D                     l1633:	
  1503                           opt subtitle "HI-TECH Software Omniscient Code Generator (Lite mode) build 49521"
  1504  028D  1208               	bcf	(68/8),(68)&7	;volatile
  1505                           opt subtitle "HI-TECH Software Omniscient Code Generator (Lite mode) build 49521"
  1506                           
  1507  028E                     l1635:	
  1508                           opt subtitle "HI-TECH Software Omniscient Code Generator (Lite mode) build 49521"
  1509  028E  1106               	bcf	(50/8),(50)&7	;volatile
  1510                           opt subtitle "HI-TECH Software Omniscient Code Generator (Lite mode) build 49521"
  1511                           
  1512  028F                     l1637:	
  1513                           opt subtitle "HI-TECH Software Omniscient Code Generator (Lite mode) build 49521"
  1514  028F  1086               	bcf	(49/8),(49)&7	;volatile
  1515                           opt subtitle "HI-TECH Software Omniscient Code Generator (Lite mode) build 49521"
  1516                           
  1517  0290                     l1639:	
  1518                           opt subtitle "HI-TECH Software Omniscient Code Generator (Lite mode) build 49521"
  1519                           
  1520  0290  2A91               	nop2	;2 cycle nop
  1521                           opt subtitle "HI-TECH Software Omniscient Code Generator (Lite mode) build 49521"
  1522                           
  1523                           opt pagewidth 120
  1524                           
  1525  0291                     l1641:	
  1526                           opt subtitle "HI-TECH Software Omniscient Code Generator (Lite mode) build 49521"
  1527  0291  1283               	bcf	status, 5	;RP0=0, select bank0
  1528  0292  1303               	bcf	status, 6	;RP1=0, select bank0
  1529  0293  1608               	bsf	(68/8),(68)&7	;volatile
  1530                           opt subtitle "HI-TECH Software Omniscient Code Generator (Lite mode) build 49521"
  1531                           
  1532  0294                     l1643:	
  1533                           opt subtitle "HI-TECH Software Omniscient Code Generator (Lite mode) build 49521"
  1534  0294  1488               	bsf	(8)+(1/8),(1)&7	;volatile
  1535                           opt subtitle "HI-TECH Software Omniscient Code Generator (Lite mode) build 49521"
  1536                           
  1537  0295                     l1645:	
  1538                           opt subtitle "HI-TECH Software Omniscient Code Generator (Lite mode) build 49521"
  1539                           
  1540  0295  2A96               	nop2	;2 cycle nop
  1541                           opt subtitle "HI-TECH Software Omniscient Code Generator (Lite mode) build 49521"
  1542                           
  1543  0296  2A97               	nop2	;2 cycle nop
  1544                           opt subtitle "HI-TECH Software Omniscient Code Generator (Lite mode) build 49521"
  1545                           
  1546  0297  0000               	nop
  1547                           opt subtitle "HI-TECH Software Omniscient Code Generator (Lite mode) build 49521"
  1548                           
  1549                           opt pagewidth 120
  1550                           
  1551  0298                     l1647:	
  1552                           opt subtitle "HI-TECH Software Omniscient Code Generator (Lite mode) build 49521"
  1553  0298  1283               	bcf	status, 5	;RP0=0, select bank0
  1554  0299  1303               	bcf	status, 6	;RP1=0, select bank0
  1555  029A  1208               	bcf	(68/8),(68)&7	;volatile
  1556                           opt subtitle "HI-TECH Software Omniscient Code Generator (Lite mode) build 49521"
  1557                           
  1558  029B                     l1649:	
  1559                           opt subtitle "HI-TECH Software Omniscient Code Generator (Lite mode) build 49521"
  1560                           
  1561  029B  2A9C               	nop2	;2 cycle nop
  1562                           opt subtitle "HI-TECH Software Omniscient Code Generator (Lite mode) build 49521"
  1563                           
  1564  029C  2A9D               	nop2	;2 cycle nop
  1565                           opt subtitle "HI-TECH Software Omniscient Code Generator (Lite mode) build 49521"
  1566                           
  1567  029D  0000               	nop
  1568                           opt subtitle "HI-TECH Software Omniscient Code Generator (Lite mode) build 49521"
  1569                           
  1570                           opt pagewidth 120
  1571                           
  1572  029E                     l1651:	
  1573                           opt subtitle "HI-TECH Software Omniscient Code Generator (Lite mode) build 49521"
  1574  029E  120A  118A  2150   	fcall	_LCDBusyLoop
              120A  118A         
  1575                           opt subtitle "HI-TECH Software Omniscient Code Generator (Lite mode) build 49521"
  1576                           
  1577  02A3                     l1653:	
  1578                           opt subtitle "HI-TECH Software Omniscient Code Generator (Lite mode) build 49521"
  1579  02A3  01F5               	clrf	(?_LCDByte)
  1580  02A4  3028               	movlw	(028h)
  1581  02A5  120A  118A  2103   	fcall	_LCDByte
              120A  118A         
  1582                           opt subtitle "HI-TECH Software Omniscient Code Generator (Lite mode) build 49521"
  1583                           
  1584  02AA                     l1655:	
  1585                           opt subtitle "HI-TECH Software Omniscient Code Generator (Lite mode) build 49521"
  1586  02AA  01F5               	clrf	(?_LCDByte)
  1587  02AB  1283               	bcf	status, 5	;RP0=0, select bank0
  1588  02AC  1303               	bcf	status, 6	;RP1=0, select bank0
  1589  02AD  0820               	movf	(LCDInit@style),w
  1590  02AE  380C               	iorlw	0Ch
  1591  02AF  120A  118A  2103   	fcall	_LCDByte
              120A  118A         
  1592                           opt subtitle "HI-TECH Software Omniscient Code Generator (Lite mode) build 49521"
  1593                           
  1594  02B4                     l1657:	
  1595                           opt subtitle "HI-TECH Software Omniscient Code Generator (Lite mode) build 49521"
  1596  02B4  01F5               	clrf	(?_LCDByte)
  1597  02B5  3040               	movlw	(040h)
  1598  02B6  120A  118A  2103   	fcall	_LCDByte
              120A  118A         
  1599                           opt subtitle "HI-TECH Software Omniscient Code Generator (Lite mode) build 49521"
  1600                           
  1601  02BB                     l1659:	
  1602                           opt subtitle "HI-TECH Software Omniscient Code Generator (Lite mode) build 49521"
  1603                           
  1604  02BB  1283               	bcf	status, 5	;RP0=0, select bank0
  1605  02BC  1303               	bcf	status, 6	;RP1=0, select bank0
  1606  02BD  01A1               	clrf	(LCDInit@__i)
  1607  02BE  3040               	movlw	(040h)
  1608  02BF  0221               	subwf	(LCDInit@__i),w
  1609  02C0  1C03               	skipc
  1610  02C1  2AC3               	goto	u1641
  1611  02C2  2AC4               	goto	u1640
  1612  02C3                     u1641:
  1613  02C3  2AC6               	goto	l1663
  1614  02C4                     u1640:
  1615  02C4  2ADF               	goto	l57
  1616                           opt subtitle "HI-TECH Software Omniscient Code Generator (Lite mode) build 49521"
  1617  02C5                     l1661:	
  1618  02C5  2ADF               	goto	l57
  1619                           opt subtitle "HI-TECH Software Omniscient Code Generator (Lite mode) build 49521"
  1620                           
  1621  02C6                     l55:	
  1622                           opt subtitle "HI-TECH Software Omniscient Code Generator (Lite mode) build 49521"
  1623  02C6                     l1663:	
  1624                           opt subtitle "HI-TECH Software Omniscient Code Generator (Lite mode) build 49521"
  1625  02C6  01F5               	clrf	(?_LCDByte)
  1626  02C7  0AF5               	incf	(?_LCDByte),f
  1627  02C8  0821               	movf	(LCDInit@__i),w
  1628  02C9  3EA0               	addlw	___cgram&0ffh
  1629  02CA  0084               	movwf	fsr0
  1630  02CB  1383               	bcf	status, 7	;select IRP bank1
  1631  02CC  0800               	movf	indf,w
  1632  02CD  120A  118A  2103   	fcall	_LCDByte
              120A  118A         
  1633                           opt subtitle "HI-TECH Software Omniscient Code Generator (Lite mode) build 49521"
  1634                           
  1635  02D2                     l1665:	
  1636  02D2  3001               	movlw	(01h)
  1637  02D3  00FC               	movwf	(??_LCDInit+0)+0
  1638  02D4  087C               	movf	(??_LCDInit+0)+0,w
  1639  02D5  1283               	bcf	status, 5	;RP0=0, select bank0
  1640  02D6  1303               	bcf	status, 6	;RP1=0, select bank0
  1641  02D7  07A1               	addwf	(LCDInit@__i),f
  1642                           opt subtitle "HI-TECH Software Omniscient Code Generator (Lite mode) build 49521"
  1643  02D8                     l1667:	
  1644  02D8  3040               	movlw	(040h)
  1645  02D9  0221               	subwf	(LCDInit@__i),w
  1646  02DA  1C03               	skipc
  1647  02DB  2ADD               	goto	u1651
  1648  02DC  2ADE               	goto	u1650
  1649  02DD                     u1651:
  1650  02DD  2AC6               	goto	l1663
  1651  02DE                     u1650:
  1652  02DE  2ADF               	goto	l57
  1653                           opt subtitle "HI-TECH Software Omniscient Code Generator (Lite mode) build 49521"
  1654  02DF                     l56:	
  1655                           opt subtitle "HI-TECH Software Omniscient Code Generator (Lite mode) build 49521"
  1656                           
  1657  02DF                     l57:	
  1658  02DF  0008               	return
  1659                           opt subtitle "HI-TECH Software Omniscient Code Generator (Lite mode) build 49521"
  1660                           
  1661  02E0                     	__end_of_LCDInit:
  1662                           opt subtitle "HI-TECH Software Omniscient Code Generator (Lite mode) build 49521"
  1663                           
  1664                           opt pagewidth 120
  1665                           
  1666                           	opt lm
  1667                           
  1668                           	processor	16F877A
  1669                           clrc	macro
  1670                           	bcf	3,0
  1671                           	endm
  1672                           clrz	macro
  1673                           	bcf	3,2
  1674                           	endm
  1675                           setc	macro
  1676                           	bsf	3,0
  1677                           	endm
  1678                           setz	macro
  1679                           	bsf	3,2
  1680                           	endm
  1681                           skipc	macro
  1682                           	btfss	3,0
  1683                           	endm
  1684                           skipz	macro
  1685                           	btfss	3,2
  1686                           	endm
  1687                           skipnc	macro
  1688                           	btfsc	3,0
  1689                           	endm
  1690                           skipnz	macro
  1691                           	btfsc	3,2
  1692                           	endm
  1693                           indf	equ	0
  1694                           indf0	equ	0
  1695  0FC0                     __ptext350:	;psect for function _ADCInit
  1696                           opt subtitle "HI-TECH Software Omniscient Code Generator (Lite mode) build 49521"
  1697                           
  1698                           opt pagewidth 120
  1699                           
  1700  0012                     	__size_of_ADCInit	equ	__end_of_ADCInit-_ADCInit
  1701                           opt subtitle "HI-TECH Software Omniscient Code Generator (Lite mode) build 49521"
  1702  0FC0                     _ADCInit:	
  1703                           opt subtitle "HI-TECH Software Omniscient Code Generator (Lite mode) build 49521"
  1704                           
  1705                           opt pagewidth 120
  1706                           
  1707  0FC0                     l1249:	
  1708                           opt subtitle "HI-TECH Software Omniscient Code Generator (Lite mode) build 49521"
  1709  0FC0  1683               	bsf	status, 5	;RP0=1, select bank1
  1710  0FC1  1303               	bcf	status, 6	;RP1=0, select bank1
  1711  0FC2  179F               	bsf	(159)^080h,7	;volatile
  1712                           opt subtitle "HI-TECH Software Omniscient Code Generator (Lite mode) build 49521"
  1713                           
  1714  0FC3                     l1251:	
  1715                           opt subtitle "HI-TECH Software Omniscient Code Generator (Lite mode) build 49521"
  1716  0FC3  30F0               	movlw	((0 & ((1<<4)-1))<<0)|not (((1<<4)-1)<<0)
  1717  0FC4  059F               	andwf	(159)^080h,f	;volatile
  1718                           opt subtitle "HI-TECH Software Omniscient Code Generator (Lite mode) build 49521"
  1719                           
  1720  0FC5  1283               	bcf	status, 5	;RP0=0, select bank0
  1721  0FC6  1303               	bcf	status, 6	;RP1=0, select bank0
  1722  0FC7  081F               	movf	(31),w	;volatile
  1723  0FC8  393F               	andlw	not (((1<<2)-1)<<6)
  1724  0FC9  3880               	iorlw	(02h & ((1<<2)-1))<<6
  1725  0FCA  009F               	movwf	(31)	;volatile
  1726                           opt subtitle "HI-TECH Software Omniscient Code Generator (Lite mode) build 49521"
  1727                           
  1728  0FCB                     l1253:	
  1729                           opt subtitle "HI-TECH Software Omniscient Code Generator (Lite mode) build 49521"
  1730  0FCB  1683               	bsf	status, 5	;RP0=1, select bank1
  1731  0FCC  1303               	bcf	status, 6	;RP1=0, select bank1
  1732  0FCD  171F               	bsf	(159)^080h,6	;volatile
  1733                           opt subtitle "HI-TECH Software Omniscient Code Generator (Lite mode) build 49521"
  1734                           
  1735  0FCE                     l1255:	
  1736                           opt subtitle "HI-TECH Software Omniscient Code Generator (Lite mode) build 49521"
  1737  0FCE  1283               	bcf	status, 5	;RP0=0, select bank0
  1738  0FCF  1303               	bcf	status, 6	;RP1=0, select bank0
  1739  0FD0  141F               	bsf	(31),0	;volatile
  1740                           opt subtitle "HI-TECH Software Omniscient Code Generator (Lite mode) build 49521"
  1741                           
  1742  0FD1                     l106:	
  1743  0FD1  0008               	return
  1744                           opt subtitle "HI-TECH Software Omniscient Code Generator (Lite mode) build 49521"
  1745                           
  1746  0FD2                     	__end_of_ADCInit:
  1747                           opt subtitle "HI-TECH Software Omniscient Code Generator (Lite mode) build 49521"
  1748                           
  1749                           opt pagewidth 120
  1750                           
  1751                           	opt lm
  1752                           
  1753                           	processor	16F877A
  1754                           clrc	macro
  1755                           	bcf	3,0
  1756                           	endm
  1757                           clrz	macro
  1758                           	bcf	3,2
  1759                           	endm
  1760                           setc	macro
  1761                           	bsf	3,0
  1762                           	endm
  1763                           setz	macro
  1764                           	bsf	3,2
  1765                           	endm
  1766                           skipc	macro
  1767                           	btfss	3,0
  1768                           	endm
  1769                           skipz	macro
  1770                           	btfss	3,2
  1771                           	endm
  1772                           skipnc	macro
  1773                           	btfsc	3,0
  1774                           	endm
  1775                           skipnz	macro
  1776                           	btfsc	3,2
  1777                           	endm
  1778                           indf	equ	0
  1779                           indf0	equ	0
  1780                           pc	equ	2
  1781                           pcl	equ	2
  1782                           status	equ	3
  1783                           fsr	equ	4
  1784  0352                     __ptext351:	;psect for function _LCDWriteString
  1785                           opt subtitle "HI-TECH Software Omniscient Code Generator (Lite mode) build 49521"
  1786                           
  1787                           opt pagewidth 120
  1788                           
  1789  0073                     	__size_of_LCDWriteString	equ	__end_of_LCDWriteString-_LCDWriteString
  1790                           opt subtitle "HI-TECH Software Omniscient Code Generator (Lite mode) build 49521"
  1791  0352                     _LCDWriteString:	
  1792                           opt subtitle "HI-TECH Software Omniscient Code Generator (Lite mode) build 49521"
  1793                           
  1794                           opt pagewidth 120
  1795  0352  1283               	bcf	status, 5	;RP0=0, select bank0
  1796  0353  1303               	bcf	status, 6	;RP1=0, select bank0
  1797  0354  00A1               	movwf	(LCDWriteString@msg)
  1798                           opt subtitle "HI-TECH Software Omniscient Code Generator (Lite mode) build 49521"
  1799                           
  1800  0355                     l1669:	
  1801                           opt subtitle "HI-TECH Software Omniscient Code Generator (Lite mode) build 49521"
  1802  0355  2BB7               	goto	l1691
  1803                           opt subtitle "HI-TECH Software Omniscient Code Generator (Lite mode) build 49521"
  1804  0356                     l61:	
  1805                           opt subtitle "HI-TECH Software Omniscient Code Generator (Lite mode) build 49521"
  1806                           
  1807  0356                     l1671:	
  1808                           opt subtitle "HI-TECH Software Omniscient Code Generator (Lite mode) build 49521"
  1809                           
  1810  0356  0821               	movf	(LCDWriteString@msg),w
  1811  0357  0084               	movwf	fsr0
  1812  0358  120A  158A  2000   	fcall	stringdir
              120A  118A         
  1813  035D  3A25               	xorlw	025h
  1814  035E  1D03               	skipz
  1815  035F  2B61               	goto	u1661
  1816  0360  2B62               	goto	u1660
  1817  0361                     u1661:
  1818  0361  2B9F               	goto	l1687
  1819  0362                     u1660:
  1820                           opt subtitle "HI-TECH Software Omniscient Code Generator (Lite mode) build 49521"
  1821                           
  1822  0362                     l1673:	
  1823                           opt subtitle "HI-TECH Software Omniscient Code Generator (Lite mode) build 49521"
  1824                           
  1825  0362  3001               	movlw	(01h)
  1826  0363  00FC               	movwf	(??_LCDWriteString+0)+0
  1827  0364  087C               	movf	(??_LCDWriteString+0)+0,w
  1828  0365  07A1               	addwf	(LCDWriteString@msg),f
  1829                           opt subtitle "HI-TECH Software Omniscient Code Generator (Lite mode) build 49521"
  1830                           
  1831  0366                     l1675:	
  1832                           opt subtitle "HI-TECH Software Omniscient Code Generator (Lite mode) build 49521"
  1833  0366  0821               	movf	(LCDWriteString@msg),w
  1834  0367  0084               	movwf	fsr0
  1835  0368  120A  158A  2000   	fcall	stringdir
              120A  118A         
  1836  036D  3ED0               	addlw	-48
  1837  036E  00FC               	movwf	(??_LCDWriteString+0)+0
  1838  036F  087C               	movf	(??_LCDWriteString+0)+0,w
  1839  0370  00A0               	movwf	(LCDWriteString@cc)
  1840                           opt subtitle "HI-TECH Software Omniscient Code Generator (Lite mode) build 49521"
  1841                           
  1842  0371                     l1677:	
  1843                           opt subtitle "HI-TECH Software Omniscient Code Generator (Lite mode) build 49521"
  1844  0371  1BA0               	btfsc	(LCDWriteString@cc),7
  1845  0372  2B74               	goto	u1671
  1846  0373  2B75               	goto	u1670
  1847  0374                     u1671:
  1848  0374  2B85               	goto	l1683
  1849  0375                     u1670:
  1850                           opt subtitle "HI-TECH Software Omniscient Code Generator (Lite mode) build 49521"
  1851  0375                     l1679:	
  1852  0375  0820               	movf	(LCDWriteString@cc),w
  1853  0376  3A80               	xorlw	80h
  1854  0377  3E78               	addlw	-((08h)^80h)
  1855  0378  1803               	skipnc
  1856  0379  2B7B               	goto	u1681
  1857  037A  2B7C               	goto	u1680
  1858  037B                     u1681:
  1859  037B  2B85               	goto	l1683
  1860  037C                     u1680:
  1861                           opt subtitle "HI-TECH Software Omniscient Code Generator (Lite mode) build 49521"
  1862                           
  1863  037C                     l1681:	
  1864                           opt subtitle "HI-TECH Software Omniscient Code Generator (Lite mode) build 49521"
  1865                           
  1866  037C  01F5               	clrf	(?_LCDByte)
  1867  037D  0AF5               	incf	(?_LCDByte),f
  1868  037E  0820               	movf	(LCDWriteString@cc),w
  1869  037F  120A  118A  2103   	fcall	_LCDByte
              120A  118A         
  1870                           opt subtitle "HI-TECH Software Omniscient Code Generator (Lite mode) build 49521"
  1871                           
  1872  0384  2BB0               	goto	l1689
  1873                           opt subtitle "HI-TECH Software Omniscient Code Generator (Lite mode) build 49521"
  1874                           
  1875  0385                     l63:	
  1876                           opt subtitle "HI-TECH Software Omniscient Code Generator (Lite mode) build 49521"
  1877                           
  1878  0385                     l1683:	
  1879                           opt subtitle "HI-TECH Software Omniscient Code Generator (Lite mode) build 49521"
  1880                           
  1881                           opt pagewidth 120
  1882  0385  01F5               	clrf	(?_LCDByte)
  1883  0386  0AF5               	incf	(?_LCDByte),f
  1884  0387  3025               	movlw	(025h)
  1885  0388  120A  118A  2103   	fcall	_LCDByte
              120A  118A         
  1886                           opt subtitle "HI-TECH Software Omniscient Code Generator (Lite mode) build 49521"
  1887                           
  1888  038D                     l1685:	
  1889                           opt subtitle "HI-TECH Software Omniscient Code Generator (Lite mode) build 49521"
  1890  038D  01F5               	clrf	(?_LCDByte)
  1891  038E  0AF5               	incf	(?_LCDByte),f
  1892  038F  1283               	bcf	status, 5	;RP0=0, select bank0
  1893  0390  1303               	bcf	status, 6	;RP1=0, select bank0
  1894  0391  0821               	movf	(LCDWriteString@msg),w
  1895  0392  0084               	movwf	fsr0
  1896  0393  120A  158A  2000   	fcall	stringdir
              120A  118A         
  1897  0398  120A  118A  2103   	fcall	_LCDByte
              120A  118A         
  1898  039D  2BB0               	goto	l1689
  1899                           opt subtitle "HI-TECH Software Omniscient Code Generator (Lite mode) build 49521"
  1900                           
  1901  039E                     l64:	
  1902                           opt subtitle "HI-TECH Software Omniscient Code Generator (Lite mode) build 49521"
  1903                           
  1904                           opt pagewidth 120
  1905  039E  2BB0               	goto	l1689
  1906                           opt subtitle "HI-TECH Software Omniscient Code Generator (Lite mode) build 49521"
  1907                           
  1908  039F                     l62:	
  1909                           opt subtitle "HI-TECH Software Omniscient Code Generator (Lite mode) build 49521"
  1910                           
  1911  039F                     l1687:	
  1912                           opt subtitle "HI-TECH Software Omniscient Code Generator (Lite mode) build 49521"
  1913                           
  1914                           opt pagewidth 120
  1915  039F  01F5               	clrf	(?_LCDByte)
  1916  03A0  0AF5               	incf	(?_LCDByte),f
  1917  03A1  1283               	bcf	status, 5	;RP0=0, select bank0
  1918  03A2  1303               	bcf	status, 6	;RP1=0, select bank0
  1919  03A3  0821               	movf	(LCDWriteString@msg),w
  1920  03A4  0084               	movwf	fsr0
  1921  03A5  120A  158A  2000   	fcall	stringdir
              120A  118A         
  1922  03AA  120A  118A  2103   	fcall	_LCDByte
              120A  118A         
  1923  03AF  2BB0               	goto	l1689
  1924                           opt subtitle "HI-TECH Software Omniscient Code Generator (Lite mode) build 49521"
  1925                           
  1926  03B0                     l65:	
  1927                           opt subtitle "HI-TECH Software Omniscient Code Generator (Lite mode) build 49521"
  1928                           
  1929  03B0                     l1689:	
  1930                           opt subtitle "HI-TECH Software Omniscient Code Generator (Lite mode) build 49521"
  1931                           
  1932  03B0  3001               	movlw	(01h)
  1933  03B1  00FC               	movwf	(??_LCDWriteString+0)+0
  1934  03B2  087C               	movf	(??_LCDWriteString+0)+0,w
  1935  03B3  1283               	bcf	status, 5	;RP0=0, select bank0
  1936  03B4  1303               	bcf	status, 6	;RP1=0, select bank0
  1937  03B5  07A1               	addwf	(LCDWriteString@msg),f
  1938  03B6  2BB7               	goto	l1691
  1939                           opt subtitle "HI-TECH Software Omniscient Code Generator (Lite mode) build 49521"
  1940                           
  1941  03B7                     l60:	
  1942                           opt subtitle "HI-TECH Software Omniscient Code Generator (Lite mode) build 49521"
  1943                           
  1944  03B7                     l1691:	
  1945  03B7  0821               	movf	(LCDWriteString@msg),w
  1946  03B8  0084               	movwf	fsr0
  1947  03B9  120A  158A  2000   	fcall	stringdir
              120A  118A         
  1948  03BE  3800               	iorlw	0
  1949  03BF  1D03               	skipz
  1950  03C0  2BC2               	goto	u1691
  1951  03C1  2BC3               	goto	u1690
  1952  03C2                     u1691:
  1953  03C2  2B56               	goto	l1671
  1954  03C3                     u1690:
  1955  03C3  2BC4               	goto	l67
  1956                           opt subtitle "HI-TECH Software Omniscient Code Generator (Lite mode) build 49521"
  1957  03C4                     l66:	
  1958                           opt subtitle "HI-TECH Software Omniscient Code Generator (Lite mode) build 49521"
  1959                           
  1960  03C4                     l67:	
  1961  03C4  0008               	return
  1962                           opt subtitle "HI-TECH Software Omniscient Code Generator (Lite mode) build 49521"
  1963                           
  1964  03C5                     	__end_of_LCDWriteString:
  1965                           opt subtitle "HI-TECH Software Omniscient Code Generator (Lite mode) build 49521"
  1966                           
  1967                           opt pagewidth 120
  1968                           
  1969                           	opt lm
  1970                           
  1971                           	processor	16F877A
  1972                           clrc	macro
  1973                           	bcf	3,0
  1974                           	endm
  1975                           clrz	macro
  1976                           	bcf	3,2
  1977                           	endm
  1978                           setc	macro
  1979                           	bsf	3,0
  1980                           	endm
  1981                           setz	macro
  1982                           	bsf	3,2
  1983                           	endm
  1984                           skipc	macro
  1985                           	btfss	3,0
  1986                           	endm
  1987                           skipz	macro
  1988                           	btfss	3,2
  1989                           	endm
  1990                           skipnc	macro
  1991                           	btfsc	3,0
  1992                           	endm
  1993                           skipnz	macro
  1994                           	btfsc	3,2
  1995                           	endm
  1996                           indf	equ	0
  1997                           indf0	equ	0
  1998                           pc	equ	2
  1999                           pcl	equ	2
  2000                           status	equ	3
  2001                           fsr	equ	4
  2002                           fsr0	equ	4
  2003                           c	equ	1
  2004  0440                     __ptext352:	;psect for function _LM35ReadTemp
  2005                           opt subtitle "HI-TECH Software Omniscient Code Generator (Lite mode) build 49521"
  2006                           
  2007                           opt pagewidth 120
  2008                           
  2009  0093                     	__size_of_LM35ReadTemp	equ	__end_of_LM35ReadTemp-_LM35ReadTemp
  2010                           opt subtitle "HI-TECH Software Omniscient Code Generator (Lite mode) build 49521"
  2011  0440                     _LM35ReadTemp:	
  2012                           opt subtitle "HI-TECH Software Omniscient Code Generator (Lite mode) build 49521"
  2013                           
  2014                           opt pagewidth 120
  2015                           
  2016  0440                     l1693:	
  2017                           opt subtitle "HI-TECH Software Omniscient Code Generator (Lite mode) build 49521"
  2018                           
  2019  0440  3000               	movlw	(0)
  2020  0441  120A  118A  2016   	fcall	_ReadADC
              120A  118A         
  2021  0446  0871               	movf	(1+(?_ReadADC)),w
  2022  0447  1283               	bcf	status, 5	;RP0=0, select bank0
  2023  0448  1303               	bcf	status, 6	;RP1=0, select bank0
  2024  0449  01C7               	clrf	(LM35ReadTemp@adc_value+1)
  2025  044A  07C7               	addwf	(LM35ReadTemp@adc_value+1)
  2026  044B  0870               	movf	(0+(?_ReadADC)),w
  2027  044C  01C6               	clrf	(LM35ReadTemp@adc_value)
  2028  044D  07C6               	addwf	(LM35ReadTemp@adc_value)
  2029                           opt subtitle "HI-TECH Software Omniscient Code Generator (Lite mode) build 49521"
  2030                           
  2031                           opt pagewidth 120
  2032  044E                     l1695:	
  2033                           opt subtitle "HI-TECH Software Omniscient Code Generator (Lite mode) build 49521"
  2034                           
  2035  044E  30A6               movlw	166
  2036  044F  00FC               movwf	(??_LM35ReadTemp+0)+0,f
  2037  0450                     u1797:
  2038  0450  0BFC               decfsz	(??_LM35ReadTemp+0)+0,f
  2039  0451  2C50               	goto	u1797
  2040  0452  0000               	nop
  2041                           opt subtitle "HI-TECH Software Omniscient Code Generator (Lite mode) build 49521"
  2042                           
  2043                           opt pagewidth 120
  2044                           
  2045  0453                     l1697:	
  2046                           opt subtitle "HI-TECH Software Omniscient Code Generator (Lite mode) build 49521"
  2047  0453  3000               	movlw	(0)
  2048  0454  120A  118A  2016   	fcall	_ReadADC
              120A  118A         
  2049  0459  0870               	movf	(0+(?_ReadADC)),w
  2050  045A  1283               	bcf	status, 5	;RP0=0, select bank0
  2051  045B  1303               	bcf	status, 6	;RP1=0, select bank0
  2052  045C  07C6               	addwf	(LM35ReadTemp@adc_value),f
  2053  045D  1803               	skipnc
  2054  045E  0AC7               	incf	(LM35ReadTemp@adc_value+1),f
  2055  045F  0871               	movf	(1+(?_ReadADC)),w
  2056  0460  07C7               	addwf	(LM35ReadTemp@adc_value+1),f
  2057                           opt subtitle "HI-TECH Software Omniscient Code Generator (Lite mode) build 49521"
  2058                           
  2059                           opt pagewidth 120
  2060  0461  30A6               movlw	166
  2061  0462  00FC               movwf	(??_LM35ReadTemp+0)+0,f
  2062  0463                     u1807:
  2063  0463  0BFC               decfsz	(??_LM35ReadTemp+0)+0,f
  2064  0464  2C63               	goto	u1807
  2065  0465  0000               	nop
  2066                           opt subtitle "HI-TECH Software Omniscient Code Generator (Lite mode) build 49521"
  2067                           
  2068                           opt pagewidth 120
  2069                           
  2070  0466                     l1699:	
  2071                           opt subtitle "HI-TECH Software Omniscient Code Generator (Lite mode) build 49521"
  2072  0466  3000               	movlw	(0)
  2073  0467  120A  118A  2016   	fcall	_ReadADC
              120A  118A         
  2074  046C  0870               	movf	(0+(?_ReadADC)),w
  2075  046D  1283               	bcf	status, 5	;RP0=0, select bank0
  2076  046E  1303               	bcf	status, 6	;RP1=0, select bank0
  2077  046F  07C6               	addwf	(LM35ReadTemp@adc_value),f
  2078  0470  1803               	skipnc
  2079  0471  0AC7               	incf	(LM35ReadTemp@adc_value+1),f
  2080  0472  0871               	movf	(1+(?_ReadADC)),w
  2081  0473  07C7               	addwf	(LM35ReadTemp@adc_value+1),f
  2082                           opt subtitle "HI-TECH Software Omniscient Code Generator (Lite mode) build 49521"
  2083                           
  2084  0474                     l1701:	
  2085                           opt subtitle "HI-TECH Software Omniscient Code Generator (Lite mode) build 49521"
  2086                           
  2087  0474  30A6               movlw	166
  2088  0475  00FC               movwf	(??_LM35ReadTemp+0)+0,f
  2089  0476                     u1817:
  2090  0476  0BFC               decfsz	(??_LM35ReadTemp+0)+0,f
  2091  0477  2C76               	goto	u1817
  2092  0478  0000               	nop
  2093                           opt subtitle "HI-TECH Software Omniscient Code Generator (Lite mode) build 49521"
  2094                           
  2095                           opt pagewidth 120
  2096                           
  2097  0479  3003               	movlw	low(03h)
  2098  047A  00F0               	movwf	(?___lwdiv)
  2099  047B  3000               	movlw	high(03h)
  2100  047C  00F1               	movwf	((?___lwdiv))+1
  2101  047D  1283               	bcf	status, 5	;RP0=0, select bank0
  2102  047E  1303               	bcf	status, 6	;RP1=0, select bank0
  2103  047F  0847               	movf	(LM35ReadTemp@adc_value+1),w
  2104  0480  01F3               	clrf	1+(?___lwdiv)+02h
  2105  0481  07F3               	addwf	1+(?___lwdiv)+02h
  2106  0482  0846               	movf	(LM35ReadTemp@adc_value),w
  2107  0483  01F2               	clrf	0+(?___lwdiv)+02h
  2108  0484  07F2               	addwf	0+(?___lwdiv)+02h
  2109                           opt subtitle "HI-TECH Software Omniscient Code Generator (Lite mode) build 49521"
  2110  0485  120A  118A  20B6   	fcall	___lwdiv
              120A  118A         
  2111  048A  0871               	movf	(1+(?___lwdiv)),w
  2112  048B  1283               	bcf	status, 5	;RP0=0, select bank0
  2113  048C  1303               	bcf	status, 6	;RP1=0, select bank0
  2114  048D  01C7               	clrf	(LM35ReadTemp@adc_value+1)
  2115  048E  07C7               	addwf	(LM35ReadTemp@adc_value+1)
  2116  048F  0870               	movf	(0+(?___lwdiv)),w
  2117  0490  01C6               	clrf	(LM35ReadTemp@adc_value)
  2118  0491  07C6               	addwf	(LM35ReadTemp@adc_value)
  2119                           opt subtitle "HI-TECH Software Omniscient Code Generator (Lite mode) build 49521"
  2120                           
  2121                           opt pagewidth 120
  2122  0492  3000               	movlw	0x0
  2123  0493  00B0               	movwf	(?___ftmul)
  2124  0494  30FA               	movlw	0xfa
  2125  0495  00B1               	movwf	(?___ftmul+1)
  2126  0496  3043               	movlw	0x43
  2127  0497  00B2               	movwf	(?___ftmul+2)
  2128  0498  30C0               	movlw	0xc0
  2129  0499  00A0               	movwf	(?___ftdiv)
  2130  049A  307F               	movlw	0x7f
  2131  049B  00A1               	movwf	(?___ftdiv+1)
  2132  049C  3044               	movlw	0x44
  2133  049D  00A2               	movwf	(?___ftdiv+2)
  2134  049E  0847               	movf	(LM35ReadTemp@adc_value+1),w
  2135  049F  01F9               	clrf	(?___lwtoft+1)
  2136  04A0  07F9               	addwf	(?___lwtoft+1)
  2137  04A1  0846               	movf	(LM35ReadTemp@adc_value),w
  2138  04A2  01F8               	clrf	(?___lwtoft)
  2139  04A3  07F8               	addwf	(?___lwtoft)
  2140                           opt subtitle "HI-TECH Software Omniscient Code Generator (Lite mode) build 49521"
  2141  04A4  120A  158A  27D2   	fcall	___lwtoft
              120A  118A         
  2142  04A9  0878               	movf	(0+(?___lwtoft)),w
  2143  04AA  1283               	bcf	status, 5	;RP0=0, select bank0
  2144  04AB  1303               	bcf	status, 6	;RP1=0, select bank0
  2145  04AC  00A3               	movwf	0+(?___ftdiv)+03h
  2146  04AD  0879               	movf	(1+(?___lwtoft)),w
  2147  04AE  00A4               	movwf	1+(?___ftdiv)+03h
  2148  04AF  087A               	movf	(2+(?___lwtoft)),w
  2149  04B0  00A5               	movwf	2+(?___ftdiv)+03h
  2150  04B1  120A  118A  2577   	fcall	___ftdiv
              120A  118A         
  2151  04B6  1283               	bcf	status, 5	;RP0=0, select bank0
  2152  04B7  1303               	bcf	status, 6	;RP1=0, select bank0
  2153  04B8  0820               	movf	(0+(?___ftdiv)),w
  2154  04B9  00B3               	movwf	0+(?___ftmul)+03h
  2155  04BA  0821               	movf	(1+(?___ftdiv)),w
  2156  04BB  00B4               	movwf	1+(?___ftmul)+03h
  2157  04BC  0822               	movf	(2+(?___ftdiv)),w
  2158  04BD  00B5               	movwf	2+(?___ftmul)+03h
  2159  04BE  120A  118A  2712   	fcall	___ftmul
              120A  118A         
  2160  04C3  1283               	bcf	status, 5	;RP0=0, select bank0
  2161  04C4  1303               	bcf	status, 6	;RP1=0, select bank0
  2162  04C5  0830               	movf	(0+(?___ftmul)),w
  2163  04C6  00C3               	movwf	(LM35ReadTemp@t)
  2164  04C7  0831               	movf	(1+(?___ftmul)),w
  2165  04C8  00C4               	movwf	(LM35ReadTemp@t+1)
  2166  04C9  0832               	movf	(2+(?___ftmul)),w
  2167  04CA  00C5               	movwf	(LM35ReadTemp@t+2)
  2168                           opt subtitle "HI-TECH Software Omniscient Code Generator (Lite mode) build 49521"
  2169                           
  2170  04CB                     l1703:	
  2171                           opt subtitle "HI-TECH Software Omniscient Code Generator (Lite mode) build 49521"
  2172  04CB  0843               	movf	(LM35ReadTemp@t),w
  2173  04CC  00C0               	movwf	(?_LM35ReadTemp)
  2174  04CD  0844               	movf	(LM35ReadTemp@t+1),w
  2175  04CE  00C1               	movwf	(?_LM35ReadTemp+1)
  2176  04CF  0845               	movf	(LM35ReadTemp@t+2),w
  2177  04D0  00C2               	movwf	(?_LM35ReadTemp+2)
  2178  04D1  2CD2               	goto	l120
  2179                           opt subtitle "HI-TECH Software Omniscient Code Generator (Lite mode) build 49521"
  2180  04D2                     l1705:	
  2181                           opt subtitle "HI-TECH Software Omniscient Code Generator (Lite mode) build 49521"
  2182                           
  2183  04D2                     l120:	
  2184  04D2  0008               	return
  2185                           opt subtitle "HI-TECH Software Omniscient Code Generator (Lite mode) build 49521"
  2186                           
  2187  04D3                     	__end_of_LM35ReadTemp:
  2188                           opt subtitle "HI-TECH Software Omniscient Code Generator (Lite mode) build 49521"
  2189                           
  2190                           opt pagewidth 120
  2191                           
  2192                           	opt lm
  2193                           
  2194                           	processor	16F877A
  2195                           clrc	macro
  2196                           	bcf	3,0
  2197                           	endm
  2198                           clrz	macro
  2199                           	bcf	3,2
  2200                           	endm
  2201                           setc	macro
  2202                           	bsf	3,0
  2203                           	endm
  2204                           setz	macro
  2205                           	bsf	3,2
  2206                           	endm
  2207                           skipc	macro
  2208                           	btfss	3,0
  2209                           	endm
  2210                           skipz	macro
  2211                           	btfss	3,2
  2212                           	endm
  2213                           skipnc	macro
  2214                           	btfsc	3,0
  2215                           	endm
  2216                           skipnz	macro
  2217                           	btfsc	3,2
  2218                           	endm
  2219                           indf	equ	0
  2220                           indf0	equ	0
  2221                           pc	equ	2
  2222                           pcl	equ	2
  2223  0045                     __ptext353:	;psect for function _LCDGotoXY
  2224                           opt subtitle "HI-TECH Software Omniscient Code Generator (Lite mode) build 49521"
  2225                           
  2226                           opt pagewidth 120
  2227                           
  2228  0031                     	__size_of_LCDGotoXY	equ	__end_of_LCDGotoXY-_LCDGotoXY
  2229                           opt subtitle "HI-TECH Software Omniscient Code Generator (Lite mode) build 49521"
  2230  0045                     _LCDGotoXY:	
  2231                           opt subtitle "HI-TECH Software Omniscient Code Generator (Lite mode) build 49521"
  2232                           
  2233                           opt pagewidth 120
  2234  0045  1283               	bcf	status, 5	;RP0=0, select bank0
  2235  0046  1303               	bcf	status, 6	;RP1=0, select bank0
  2236  0047  00A0               	movwf	(LCDGotoXY@x)
  2237                           opt subtitle "HI-TECH Software Omniscient Code Generator (Lite mode) build 49521"
  2238                           
  2239  0048                     l1707:	
  2240                           opt subtitle "HI-TECH Software Omniscient Code Generator (Lite mode) build 49521"
  2241  0048  3014               	movlw	(014h)
  2242  0049  0220               	subwf	(LCDGotoXY@x),w
  2243  004A  1C03               	skipc
  2244  004B  284D               	goto	u1701
  2245  004C  284E               	goto	u1700
  2246  004D                     u1701:
  2247  004D  285F               	goto	l1717
  2248  004E                     u1700:
  2249  004E  2875               	goto	l87
  2250                           opt subtitle "HI-TECH Software Omniscient Code Generator (Lite mode) build 49521"
  2251  004F                     l1709:	
  2252  004F  2875               	goto	l87
  2253                           opt subtitle "HI-TECH Software Omniscient Code Generator (Lite mode) build 49521"
  2254  0050                     l86:	
  2255                           opt subtitle "HI-TECH Software Omniscient Code Generator (Lite mode) build 49521"
  2256                           
  2257  0050  285F               	goto	l1717
  2258                           opt subtitle "HI-TECH Software Omniscient Code Generator (Lite mode) build 49521"
  2259                           
  2260                           opt pagewidth 120
  2261                           
  2262  0051                     l89:	
  2263                           opt subtitle "HI-TECH Software Omniscient Code Generator (Lite mode) build 49521"
  2264                           
  2265  0051  286D               	goto	l90
  2266                           opt subtitle "HI-TECH Software Omniscient Code Generator (Lite mode) build 49521"
  2267                           
  2268                           opt pagewidth 120
  2269  0052                     l91:	
  2270                           opt subtitle "HI-TECH Software Omniscient Code Generator (Lite mode) build 49521"
  2271                           
  2272  0052  1720               	bsf	(LCDGotoXY@x)+(6/8),(6)&7
  2273                           opt subtitle "HI-TECH Software Omniscient Code Generator (Lite mode) build 49521"
  2274                           
  2275  0053  286D               	goto	l90
  2276                           opt subtitle "HI-TECH Software Omniscient Code Generator (Lite mode) build 49521"
  2277                           
  2278                           opt pagewidth 120
  2279  0054                     l92:	
  2280                           opt subtitle "HI-TECH Software Omniscient Code Generator (Lite mode) build 49521"
  2281                           
  2282  0054                     l1711:	
  2283                           opt subtitle "HI-TECH Software Omniscient Code Generator (Lite mode) build 49521"
  2284  0054  3014               	movlw	(014h)
  2285  0055  00FD               	movwf	(??_LCDGotoXY+0)+0
  2286  0056  087D               	movf	(??_LCDGotoXY+0)+0,w
  2287  0057  07A0               	addwf	(LCDGotoXY@x),f
  2288                           opt subtitle "HI-TECH Software Omniscient Code Generator (Lite mode) build 49521"
  2289                           
  2290  0058  286D               	goto	l90
  2291                           opt subtitle "HI-TECH Software Omniscient Code Generator (Lite mode) build 49521"
  2292                           
  2293                           opt pagewidth 120
  2294  0059                     l93:	
  2295                           opt subtitle "HI-TECH Software Omniscient Code Generator (Lite mode) build 49521"
  2296                           
  2297  0059                     l1713:	
  2298                           opt subtitle "HI-TECH Software Omniscient Code Generator (Lite mode) build 49521"
  2299  0059  3054               	movlw	(054h)
  2300  005A  00FD               	movwf	(??_LCDGotoXY+0)+0
  2301  005B  087D               	movf	(??_LCDGotoXY+0)+0,w
  2302  005C  07A0               	addwf	(LCDGotoXY@x),f
  2303                           opt subtitle "HI-TECH Software Omniscient Code Generator (Lite mode) build 49521"
  2304                           
  2305  005D  286D               	goto	l90
  2306                           opt subtitle "HI-TECH Software Omniscient Code Generator (Lite mode) build 49521"
  2307                           
  2308  005E                     l1715:	
  2309                           opt subtitle "HI-TECH Software Omniscient Code Generator (Lite mode) build 49521"
  2310  005E  286D               	goto	l90
  2311                           opt subtitle "HI-TECH Software Omniscient Code Generator (Lite mode) build 49521"
  2312                           
  2313  005F                     l88:	
  2314                           opt subtitle "HI-TECH Software Omniscient Code Generator (Lite mode) build 49521"
  2315  005F                     l1717:	
  2316  005F  087C               	movf	(LCDGotoXY@y),w
  2317                           opt subtitle "HI-TECH Software Omniscient Code Generator (Lite mode) build 49521"
  2318                           
  2319                           opt pagewidth 120
  2320                           
  2321                           	opt lm
  2322                           
  2323                           	processor	16F877A
  2324                           clrc	macro
  2325                           	bcf	3,0
  2326                           	endm
  2327                           clrz	macro
  2328                           	bcf	3,2
  2329                           	endm
  2330  0060  3A00               	xorlw	0^0	; case 0
  2331  0061  1903               	skipnz
  2332  0062  286D               	goto	l90
  2333  0063  3A01               	xorlw	1^0	; case 1
  2334  0064  1903               	skipnz
  2335  0065  2852               	goto	l91
  2336  0066  3A03               	xorlw	2^1	; case 2
  2337  0067  1903               	skipnz
  2338  0068  2854               	goto	l1711
  2339  0069  3A01               	xorlw	3^2	; case 3
  2340  006A  1903               	skipnz
  2341  006B  2859               	goto	l1713
  2342  006C  286D               	goto	l90
  2343                           opt subtitle "HI-TECH Software Omniscient Code Generator (Lite mode) build 49521"
  2344                           
  2345                           opt pagewidth 120
  2346                           
  2347  006D                     l90:	
  2348                           opt subtitle "HI-TECH Software Omniscient Code Generator (Lite mode) build 49521"
  2349                           
  2350  006D  17A0               	bsf	(LCDGotoXY@x)+(7/8),(7)&7
  2351                           opt subtitle "HI-TECH Software Omniscient Code Generator (Lite mode) build 49521"
  2352                           
  2353  006E                     l1719:	
  2354                           opt subtitle "HI-TECH Software Omniscient Code Generator (Lite mode) build 49521"
  2355  006E  01F5               	clrf	(?_LCDByte)
  2356  006F  0820               	movf	(LCDGotoXY@x),w
  2357  0070  120A  118A  2103   	fcall	_LCDByte
              120A  118A         
  2358                           opt subtitle "HI-TECH Software Omniscient Code Generator (Lite mode) build 49521"
  2359                           
  2360  0075                     l87:	
  2361  0075  0008               	return
  2362                           opt subtitle "HI-TECH Software Omniscient Code Generator (Lite mode) build 49521"
  2363                           
  2364  0076                     	__end_of_LCDGotoXY:
  2365                           opt subtitle "HI-TECH Software Omniscient Code Generator (Lite mode) build 49521"
  2366                           
  2367                           opt pagewidth 120
  2368                           
  2369                           	opt lm
  2370                           
  2371                           	processor	16F877A
  2372                           clrc	macro
  2373                           	bcf	3,0
  2374                           	endm
  2375                           clrz	macro
  2376                           	bcf	3,2
  2377                           	endm
  2378                           setc	macro
  2379                           	bsf	3,0
  2380                           	endm
  2381                           setz	macro
  2382                           	bsf	3,2
  2383                           	endm
  2384                           skipc	macro
  2385                           	btfss	3,0
  2386                           	endm
  2387                           skipz	macro
  2388                           	btfss	3,2
  2389                           	endm
  2390                           skipnc	macro
  2391                           	btfsc	3,0
  2392                           	endm
  2393                           skipnz	macro
  2394                           	btfsc	3,2
  2395                           	endm
  2396                           indf	equ	0
  2397                           indf0	equ	0
  2398                           pc	equ	2
  2399                           pcl	equ	2
  2400                           status	equ	3
  2401                           fsr	equ	4
  2402                           fsr0	equ	4
  2403                           c	equ	1
  2404  063F                     __ptext354:	;psect for function _LCDWriteInt
  2405                           opt subtitle "HI-TECH Software Omniscient Code Generator (Lite mode) build 49521"
  2406                           
  2407                           opt pagewidth 120
  2408                           
  2409  00D3                     	__size_of_LCDWriteInt	equ	__end_of_LCDWriteInt-_LCDWriteInt
  2410                           opt subtitle "HI-TECH Software Omniscient Code Generator (Lite mode) build 49521"
  2411  063F                     _LCDWriteInt:	
  2412                           opt subtitle "HI-TECH Software Omniscient Code Generator (Lite mode) build 49521"
  2413                           
  2414                           opt pagewidth 120
  2415                           
  2416  063F                     l1721:	
  2417                           opt subtitle "HI-TECH Software Omniscient Code Generator (Lite mode) build 49521"
  2418  063F  3025               	movlw	(LCDWriteInt@str)&0ffh
  2419  0640  0084               	movwf	fsr0
  2420  0641  1283               	bcf	status, 5	;RP0=0, select bank0
  2421  0642  1303               	bcf	status, 6	;RP1=0, select bank0
  2422  0643  084E               	movf	(LCDWriteInt@F1160),w
  2423  0644  1383               	bcf	status, 7	;select IRP bank0
  2424  0645  0080               	movwf	indf
  2425  0646  0A84               	incf	fsr0,f
  2426  0647  084F               	movf	(LCDWriteInt@F1160)+1,w
  2427  0648  0080               	movwf	indf
  2428  0649  0A84               	incf	fsr0,f
  2429  064A  0850               	movf	(LCDWriteInt@F1160)+2,w
  2430  064B  0080               	movwf	indf
  2431  064C  0A84               	incf	fsr0,f
  2432  064D  0851               	movf	(LCDWriteInt@F1160)+3,w
  2433  064E  0080               	movwf	indf
  2434  064F  0A84               	incf	fsr0,f
  2435  0650  0852               	movf	(LCDWriteInt@F1160)+4,w
  2436  0651  0080               	movwf	indf
  2437                           opt subtitle "HI-TECH Software Omniscient Code Generator (Lite mode) build 49521"
  2438                           
  2439  0652                     l1723:	
  2440                           opt subtitle "HI-TECH Software Omniscient Code Generator (Lite mode) build 49521"
  2441  0652  3004               	movlw	low(04h)
  2442  0653  00AC               	movwf	(LCDWriteInt@i)
  2443  0654  3000               	movlw	high(04h)
  2444  0655  00AD               	movwf	((LCDWriteInt@i))+1
  2445                           opt subtitle "HI-TECH Software Omniscient Code Generator (Lite mode) build 49521"
  2446  0656                     l1725:	
  2447  0656  01AA               	clrf	(LCDWriteInt@j)
  2448  0657  01AB               	clrf	(LCDWriteInt@j+1)
  2449                           opt subtitle "HI-TECH Software Omniscient Code Generator (Lite mode) build 49521"
  2450                           
  2451  0658                     l1727:	
  2452                           opt subtitle "HI-TECH Software Omniscient Code Generator (Lite mode) build 49521"
  2453  0658  1FA1               	btfss	(LCDWriteInt@val+1),7
  2454  0659  2E5B               	goto	u1711
  2455  065A  2E5C               	goto	u1710
  2456  065B                     u1711:
  2457  065B  2EA4               	goto	l1739
  2458  065C                     u1710:
  2459                           opt subtitle "HI-TECH Software Omniscient Code Generator (Lite mode) build 49521"
  2460                           
  2461  065C                     l1729:	
  2462                           opt subtitle "HI-TECH Software Omniscient Code Generator (Lite mode) build 49521"
  2463                           
  2464  065C  01F5               	clrf	(?_LCDByte)
  2465  065D  0AF5               	incf	(?_LCDByte),f
  2466  065E  302D               	movlw	(02Dh)
  2467  065F  120A  118A  2103   	fcall	_LCDByte
              120A  118A         
  2468                           opt subtitle "HI-TECH Software Omniscient Code Generator (Lite mode) build 49521"
  2469                           
  2470  0664                     l1731:	
  2471                           opt subtitle "HI-TECH Software Omniscient Code Generator (Lite mode) build 49521"
  2472  0664  1283               	bcf	status, 5	;RP0=0, select bank0
  2473  0665  1303               	bcf	status, 6	;RP1=0, select bank0
  2474  0666  09A0               	comf	(LCDWriteInt@val),f
  2475  0667  09A1               	comf	(LCDWriteInt@val+1),f
  2476  0668  0AA0               	incf	(LCDWriteInt@val),f
  2477  0669  1903               	skipnz
  2478  066A  0AA1               	incf	(LCDWriteInt@val+1),f
  2479  066B  2EA4               	goto	l1739
  2480                           opt subtitle "HI-TECH Software Omniscient Code Generator (Lite mode) build 49521"
  2481                           
  2482  066C                     l72:	
  2483                           opt subtitle "HI-TECH Software Omniscient Code Generator (Lite mode) build 49521"
  2484                           
  2485                           opt pagewidth 120
  2486  066C  2EA4               	goto	l1739
  2487                           opt subtitle "HI-TECH Software Omniscient Code Generator (Lite mode) build 49521"
  2488  066D                     l74:	
  2489                           opt subtitle "HI-TECH Software Omniscient Code Generator (Lite mode) build 49521"
  2490                           
  2491  066D                     l1733:	
  2492                           opt subtitle "HI-TECH Software Omniscient Code Generator (Lite mode) build 49521"
  2493                           
  2494  066D  300A               	movlw	low(0Ah)
  2495  066E  00F0               	movwf	(?___awmod)
  2496  066F  3000               	movlw	high(0Ah)
  2497  0670  00F1               	movwf	((?___awmod))+1
  2498  0671  0821               	movf	(LCDWriteInt@val+1),w
  2499  0672  01F3               	clrf	1+(?___awmod)+02h
  2500  0673  07F3               	addwf	1+(?___awmod)+02h
  2501  0674  0820               	movf	(LCDWriteInt@val),w
  2502  0675  01F2               	clrf	0+(?___awmod)+02h
  2503  0676  07F2               	addwf	0+(?___awmod)+02h
  2504                           opt subtitle "HI-TECH Software Omniscient Code Generator (Lite mode) build 49521"
  2505  0677  120A  118A  21A9   	fcall	___awmod
              120A  118A         
  2506  067C  0870               	movf	(0+(?___awmod)),w
  2507  067D  1283               	bcf	status, 5	;RP0=0, select bank0
  2508  067E  1303               	bcf	status, 6	;RP1=0, select bank0
  2509  067F  00A3               	movwf	(??_LCDWriteInt+0)+0
  2510  0680  082C               	movf	(LCDWriteInt@i),w
  2511  0681  3E25               	addlw	LCDWriteInt@str&0ffh
  2512  0682  0084               	movwf	fsr0
  2513  0683  0823               	movf	(??_LCDWriteInt+0)+0,w
  2514  0684  1383               	bcf	status, 7	;select IRP bank0
  2515  0685  0080               	movwf	indf
  2516                           opt subtitle "HI-TECH Software Omniscient Code Generator (Lite mode) build 49521"
  2517                           
  2518  0686                     l1735:	
  2519                           opt subtitle "HI-TECH Software Omniscient Code Generator (Lite mode) build 49521"
  2520  0686  300A               	movlw	low(0Ah)
  2521  0687  00F0               	movwf	(?___awdiv)
  2522  0688  3000               	movlw	high(0Ah)
  2523  0689  00F1               	movwf	((?___awdiv))+1
  2524  068A  0821               	movf	(LCDWriteInt@val+1),w
  2525  068B  01F3               	clrf	1+(?___awdiv)+02h
  2526  068C  07F3               	addwf	1+(?___awdiv)+02h
  2527  068D  0820               	movf	(LCDWriteInt@val),w
  2528  068E  01F2               	clrf	0+(?___awdiv)+02h
  2529  068F  07F2               	addwf	0+(?___awdiv)+02h
  2530                           opt subtitle "HI-TECH Software Omniscient Code Generator (Lite mode) build 49521"
  2531  0690  120A  118A  22E0   	fcall	___awdiv
              120A  118A         
  2532  0695  0871               	movf	(1+(?___awdiv)),w
  2533  0696  1283               	bcf	status, 5	;RP0=0, select bank0
  2534  0697  1303               	bcf	status, 6	;RP1=0, select bank0
  2535  0698  01A1               	clrf	(LCDWriteInt@val+1)
  2536  0699  07A1               	addwf	(LCDWriteInt@val+1)
  2537  069A  0870               	movf	(0+(?___awdiv)),w
  2538  069B  01A0               	clrf	(LCDWriteInt@val)
  2539  069C  07A0               	addwf	(LCDWriteInt@val)
  2540                           opt subtitle "HI-TECH Software Omniscient Code Generator (Lite mode) build 49521"
  2541                           
  2542                           opt pagewidth 120
  2543  069D                     l1737:	
  2544                           opt subtitle "HI-TECH Software Omniscient Code Generator (Lite mode) build 49521"
  2545  069D  30FF               	movlw	low(-1)
  2546  069E  07AC               	addwf	(LCDWriteInt@i),f
  2547  069F  1803               	skipnc
  2548  06A0  0AAD               	incf	(LCDWriteInt@i+1),f
  2549  06A1  30FF               	movlw	high(-1)
  2550  06A2  07AD               	addwf	(LCDWriteInt@i+1),f
  2551  06A3  2EA4               	goto	l1739
  2552                           opt subtitle "HI-TECH Software Omniscient Code Generator (Lite mode) build 49521"
  2553                           
  2554  06A4                     l73:	
  2555                           opt subtitle "HI-TECH Software Omniscient Code Generator (Lite mode) build 49521"
  2556                           
  2557  06A4                     l1739:	
  2558  06A4  0821               	movf	((LCDWriteInt@val+1)),w
  2559  06A5  0420               	iorwf	((LCDWriteInt@val)),w
  2560  06A6  1D03               	skipz
  2561  06A7  2EA9               	goto	u1721
  2562  06A8  2EAA               	goto	u1720
  2563  06A9                     u1721:
  2564  06A9  2E6D               	goto	l1733
  2565  06AA                     u1720:
  2566  06AA  2EAB               	goto	l1741
  2567                           opt subtitle "HI-TECH Software Omniscient Code Generator (Lite mode) build 49521"
  2568  06AB                     l75:	
  2569                           opt subtitle "HI-TECH Software Omniscient Code Generator (Lite mode) build 49521"
  2570                           
  2571  06AB                     l1741:	
  2572                           opt subtitle "HI-TECH Software Omniscient Code Generator (Lite mode) build 49521"
  2573                           
  2574  06AB  0822               	movf	(LCDWriteInt@field_length),w
  2575  06AC  3AFF               	xorlw	-1
  2576  06AD  1D03               	skipz
  2577  06AE  2EB0               	goto	u1731
  2578  06AF  2EB1               	goto	u1730
  2579  06B0                     u1731:
  2580  06B0  2EC5               	goto	l1749
  2581  06B1                     u1730:
  2582  06B1  2EBA               	goto	l1747
  2583                           opt subtitle "HI-TECH Software Omniscient Code Generator (Lite mode) build 49521"
  2584                           
  2585  06B2                     l1743:	
  2586                           opt subtitle "HI-TECH Software Omniscient Code Generator (Lite mode) build 49521"
  2587  06B2  2EBA               	goto	l1747
  2588                           opt subtitle "HI-TECH Software Omniscient Code Generator (Lite mode) build 49521"
  2589  06B3                     l78:	
  2590                           opt subtitle "HI-TECH Software Omniscient Code Generator (Lite mode) build 49521"
  2591  06B3                     l1745:	
  2592  06B3  3001               	movlw	low(01h)
  2593  06B4  07AA               	addwf	(LCDWriteInt@j),f
  2594  06B5  1803               	skipnc
  2595  06B6  0AAB               	incf	(LCDWriteInt@j+1),f
  2596  06B7  3000               	movlw	high(01h)
  2597  06B8  07AB               	addwf	(LCDWriteInt@j+1),f
  2598  06B9  2EBA               	goto	l1747
  2599                           opt subtitle "HI-TECH Software Omniscient Code Generator (Lite mode) build 49521"
  2600  06BA                     l77:	
  2601                           opt subtitle "HI-TECH Software Omniscient Code Generator (Lite mode) build 49521"
  2602  06BA                     l1747:	
  2603  06BA  082A               	movf	(LCDWriteInt@j),w
  2604  06BB  3E25               	addlw	LCDWriteInt@str&0ffh
  2605  06BC  0084               	movwf	fsr0
  2606  06BD  1383               	bcf	status, 7	;select IRP bank0
  2607  06BE  0880               	movf	indf
  2608  06BF  1903               	skipnz
  2609  06C0  2EC2               	goto	u1741
  2610  06C1  2EC3               	goto	u1740
  2611  06C2                     u1741:
  2612  06C2  2EB3               	goto	l1745
  2613  06C3                     u1740:
  2614  06C3  2ED7               	goto	l80
  2615                           opt subtitle "HI-TECH Software Omniscient Code Generator (Lite mode) build 49521"
  2616  06C4                     l79:	
  2617  06C4  2ED7               	goto	l80
  2618                           opt subtitle "HI-TECH Software Omniscient Code Generator (Lite mode) build 49521"
  2619                           
  2620  06C5                     l76:	
  2621                           opt subtitle "HI-TECH Software Omniscient Code Generator (Lite mode) build 49521"
  2622                           
  2623  06C5                     l1749:	
  2624                           opt subtitle "HI-TECH Software Omniscient Code Generator (Lite mode) build 49521"
  2625                           
  2626  06C5  0822               	movf	(LCDWriteInt@field_length),w
  2627  06C6  00A3               	movwf	(??_LCDWriteInt+0)+0
  2628  06C7  01A4               	clrf	(??_LCDWriteInt+0)+0+1
  2629  06C8  1BA3               	btfsc	(??_LCDWriteInt+0)+0,7
  2630  06C9  03A4               	decf	(??_LCDWriteInt+0)+0+1,f
  2631  06CA  09A3               	comf	(??_LCDWriteInt+0)+0,f
  2632  06CB  09A4               	comf	(??_LCDWriteInt+0)+1,f
  2633  06CC  0AA3               	incf	(??_LCDWriteInt+0)+0,f
  2634  06CD  1903               	skipnz
  2635  06CE  0AA4               	incf	(??_LCDWriteInt+0)+1,f
  2636  06CF  0823               	movf	0+(??_LCDWriteInt+0)+0,w
  2637  06D0  3E05               	addlw	low(05h)
  2638  06D1  00AA               	movwf	(LCDWriteInt@j)
  2639  06D2  0824               	movf	1+(??_LCDWriteInt+0)+0,w
  2640  06D3  1803               	skipnc
  2641  06D4  3E01               	addlw	1
  2642  06D5  3E00               	addlw	high(05h)
  2643  06D6  00AB               	movwf	1+(LCDWriteInt@j)
  2644                           opt subtitle "HI-TECH Software Omniscient Code Generator (Lite mode) build 49521"
  2645  06D7                     l80:	
  2646                           opt subtitle "HI-TECH Software Omniscient Code Generator (Lite mode) build 49521"
  2647                           
  2648  06D7  082B               	movf	(LCDWriteInt@j+1),w
  2649  06D8  01AD               	clrf	(LCDWriteInt@i+1)
  2650  06D9  07AD               	addwf	(LCDWriteInt@i+1)
  2651  06DA  082A               	movf	(LCDWriteInt@j),w
  2652  06DB  01AC               	clrf	(LCDWriteInt@i)
  2653  06DC  07AC               	addwf	(LCDWriteInt@i)
  2654                           opt subtitle "HI-TECH Software Omniscient Code Generator (Lite mode) build 49521"
  2655                           
  2656  06DD                     l1751:	
  2657  06DD  082D               	movf	(LCDWriteInt@i+1),w
  2658  06DE  3A80               	xorlw	80h
  2659  06DF  00FF               	movwf	btemp+1
  2660  06E0  3080               	movlw	(high(05h))^80h
  2661  06E1  027F               	subwf	btemp+1,w
  2662  06E2  1D03               	skipz
  2663  06E3  2EE6               	goto	u1755
  2664  06E4  3005               	movlw	low(05h)
  2665  06E5  022C               	subwf	(LCDWriteInt@i),w
  2666  06E6                     u1755:
  2667                           opt subtitle "HI-TECH Software Omniscient Code Generator (Lite mode) build 49521"
  2668  06E6  1C03               	skipc
  2669  06E7  2EE9               	goto	u1751
  2670  06E8  2EEA               	goto	u1750
  2671  06E9                     u1751:
  2672  06E9  2EEC               	goto	l1755
  2673  06EA                     u1750:
  2674  06EA  2F11               	goto	l83
  2675                           opt subtitle "HI-TECH Software Omniscient Code Generator (Lite mode) build 49521"
  2676  06EB                     l1753:	
  2677  06EB  2F11               	goto	l83
  2678                           opt subtitle "HI-TECH Software Omniscient Code Generator (Lite mode) build 49521"
  2679                           
  2680  06EC                     l81:	
  2681                           opt subtitle "HI-TECH Software Omniscient Code Generator (Lite mode) build 49521"
  2682                           
  2683  06EC                     l1755:	
  2684                           opt subtitle "HI-TECH Software Omniscient Code Generator (Lite mode) build 49521"
  2685                           
  2686  06EC  01F5               	clrf	(?_LCDByte)
  2687  06ED  0AF5               	incf	(?_LCDByte),f
  2688  06EE  1283               	bcf	status, 5	;RP0=0, select bank0
  2689  06EF  1303               	bcf	status, 6	;RP1=0, select bank0
  2690  06F0  082C               	movf	(LCDWriteInt@i),w
  2691  06F1  3E25               	addlw	LCDWriteInt@str&0ffh
  2692  06F2  0084               	movwf	fsr0
  2693  06F3  1383               	bcf	status, 7	;select IRP bank0
  2694  06F4  0800               	movf	indf,w
  2695  06F5  3E30               	addlw	030h
  2696  06F6  120A  118A  2103   	fcall	_LCDByte
              120A  118A         
  2697                           opt subtitle "HI-TECH Software Omniscient Code Generator (Lite mode) build 49521"
  2698                           
  2699  06FB                     l1757:	
  2700  06FB  3001               	movlw	low(01h)
  2701  06FC  1283               	bcf	status, 5	;RP0=0, select bank0
  2702  06FD  1303               	bcf	status, 6	;RP1=0, select bank0
  2703  06FE  07AC               	addwf	(LCDWriteInt@i),f
  2704  06FF  1803               	skipnc
  2705  0700  0AAD               	incf	(LCDWriteInt@i+1),f
  2706  0701  3000               	movlw	high(01h)
  2707  0702  07AD               	addwf	(LCDWriteInt@i+1),f
  2708                           opt subtitle "HI-TECH Software Omniscient Code Generator (Lite mode) build 49521"
  2709  0703                     l1759:	
  2710  0703  082D               	movf	(LCDWriteInt@i+1),w
  2711  0704  3A80               	xorlw	80h
  2712  0705  00FF               	movwf	btemp+1
  2713  0706  3080               	movlw	(high(05h))^80h
  2714  0707  027F               	subwf	btemp+1,w
  2715  0708  1D03               	skipz
  2716  0709  2F0C               	goto	u1765
  2717  070A  3005               	movlw	low(05h)
  2718  070B  022C               	subwf	(LCDWriteInt@i),w
  2719  070C                     u1765:
  2720                           opt subtitle "HI-TECH Software Omniscient Code Generator (Lite mode) build 49521"
  2721  070C  1C03               	skipc
  2722  070D  2F0F               	goto	u1761
  2723  070E  2F10               	goto	u1760
  2724  070F                     u1761:
  2725  070F  2EEC               	goto	l1755
  2726  0710                     u1760:
  2727  0710  2F11               	goto	l83
  2728                           opt subtitle "HI-TECH Software Omniscient Code Generator (Lite mode) build 49521"
  2729  0711                     l82:	
  2730                           opt subtitle "HI-TECH Software Omniscient Code Generator (Lite mode) build 49521"
  2731                           
  2732  0711                     l83:	
  2733  0711  0008               	return
  2734                           opt subtitle "HI-TECH Software Omniscient Code Generator (Lite mode) build 49521"
  2735                           
  2736  0712                     	__end_of_LCDWriteInt:
  2737                           opt subtitle "HI-TECH Software Omniscient Code Generator (Lite mode) build 49521"
  2738                           
  2739                           opt pagewidth 120
  2740                           
  2741                           	opt lm
  2742                           
  2743                           	processor	16F877A
  2744                           clrc	macro
  2745                           	bcf	3,0
  2746                           	endm
  2747                           clrz	macro
  2748                           	bcf	3,2
  2749                           	endm
  2750                           setc	macro
  2751                           	bsf	3,0
  2752                           	endm
  2753                           setz	macro
  2754                           	bsf	3,2
  2755                           	endm
  2756                           skipc	macro
  2757                           	btfss	3,0
  2758                           	endm
  2759                           skipz	macro
  2760                           	btfss	3,2
  2761                           	endm
  2762                           skipnc	macro
  2763                           	btfsc	3,0
  2764                           	endm
  2765                           skipnz	macro
  2766                           	btfsc	3,2
  2767                           	endm
  2768                           indf	equ	0
  2769                           indf0	equ	0
  2770                           pc	equ	2
  2771                           pcl	equ	2
  2772                           status	equ	3
  2773                           fsr	equ	4
  2774                           fsr0	equ	4
  2775                           c	equ	1
  2776                           z	equ	0
  2777                           pclath	equ	10
  2778                           # 46 "D:\Program Files\Microchip\xc8\v1.12\include\pic16f877a.h"
  2779  0103                     __ptext355:	;psect for function _LCDByte
  2780                           opt subtitle "HI-TECH Software Omniscient Code Generator (Lite mode) build 49521"
  2781                           
  2782                           opt pagewidth 120
  2783                           
  2784  004D                     	__size_of_LCDByte	equ	__end_of_LCDByte-_LCDByte
  2785                           opt subtitle "HI-TECH Software Omniscient Code Generator (Lite mode) build 49521"
  2786  0103                     _LCDByte:	
  2787                           opt subtitle "HI-TECH Software Omniscient Code Generator (Lite mode) build 49521"
  2788                           
  2789                           opt pagewidth 120
  2790                           
  2791  0103  00FA               	movwf	(LCDByte@c)
  2792                           opt subtitle "HI-TECH Software Omniscient Code Generator (Lite mode) build 49521"
  2793  0104                     l1499:	
  2794                           opt subtitle "HI-TECH Software Omniscient Code Generator (Lite mode) build 49521"
  2795                           
  2796                           opt pagewidth 120
  2797  0104  087A               	movf	(LCDByte@c),w
  2798  0105  00F6               	movwf	(??_LCDByte+0)+0
  2799  0106  3004               	movlw	04h
  2800  0107                     u1405:
  2801  0107  1003               	clrc
  2802  0108  0CF6               	rrf	(??_LCDByte+0)+0,f
  2803  0109  3EFF               	addlw	-1
  2804  010A  1D03               	skipz
  2805  010B  2907               	goto	u1405
  2806  010C  0876               	movf	0+(??_LCDByte+0)+0,w
  2807  010D  00F7               	movwf	(??_LCDByte+1)+0
  2808  010E  0877               	movf	(??_LCDByte+1)+0,w
  2809  010F  00F8               	movwf	(LCDByte@hn)
  2810                           opt subtitle "HI-TECH Software Omniscient Code Generator (Lite mode) build 49521"
  2811                           
  2812  0110                     l1501:	
  2813                           opt subtitle "HI-TECH Software Omniscient Code Generator (Lite mode) build 49521"
  2814  0110  087A               	movf	(LCDByte@c),w
  2815  0111  390F               	andlw	0Fh
  2816  0112  00F6               	movwf	(??_LCDByte+0)+0
  2817  0113  0876               	movf	(??_LCDByte+0)+0,w
  2818  0114  00F9               	movwf	(LCDByte@ln)
  2819                           opt subtitle "HI-TECH Software Omniscient Code Generator (Lite mode) build 49521"
  2820                           
  2821  0115                     l1503:	
  2822                           opt subtitle "HI-TECH Software Omniscient Code Generator (Lite mode) build 49521"
  2823  0115  08F5               	movf	(LCDByte@isdata),f
  2824  0116  1D03               	skipz
  2825  0117  2919               	goto	u1411
  2826  0118  291A               	goto	u1410
  2827  0119                     u1411:
  2828  0119  291E               	goto	l45
  2829  011A                     u1410:
  2830                           opt subtitle "HI-TECH Software Omniscient Code Generator (Lite mode) build 49521"
  2831                           
  2832  011A                     l1505:	
  2833                           opt subtitle "HI-TECH Software Omniscient Code Generator (Lite mode) build 49521"
  2834  011A  1283               	bcf	status, 5	;RP0=0, select bank0
  2835  011B  1303               	bcf	status, 6	;RP1=0, select bank0
  2836  011C  1086               	bcf	(49/8),(49)&7	;volatile
  2837  011D  2921               	goto	l46
  2838                           opt subtitle "HI-TECH Software Omniscient Code Generator (Lite mode) build 49521"
  2839                           
  2840  011E                     l45:	
  2841                           opt subtitle "HI-TECH Software Omniscient Code Generator (Lite mode) build 49521"
  2842                           
  2843                           opt pagewidth 120
  2844  011E  1283               	bcf	status, 5	;RP0=0, select bank0
  2845  011F  1303               	bcf	status, 6	;RP1=0, select bank0
  2846  0120  1486               	bsf	(49/8),(49)&7	;volatile
  2847                           opt subtitle "HI-TECH Software Omniscient Code Generator (Lite mode) build 49521"
  2848  0121                     l46:	
  2849                           opt subtitle "HI-TECH Software Omniscient Code Generator (Lite mode) build 49521"
  2850                           
  2851                           opt pagewidth 120
  2852  0121  2922               	nop2	;2 cycle nop
  2853                           opt subtitle "HI-TECH Software Omniscient Code Generator (Lite mode) build 49521"
  2854                           
  2855                           opt pagewidth 120
  2856                           
  2857  0122  1283               	bcf	status, 5	;RP0=0, select bank0
  2858  0123  1303               	bcf	status, 6	;RP1=0, select bank0
  2859  0124  1608               	bsf	(68/8),(68)&7	;volatile
  2860                           opt subtitle "HI-TECH Software Omniscient Code Generator (Lite mode) build 49521"
  2861                           
  2862  0125                     l1507:	
  2863                           opt subtitle "HI-TECH Software Omniscient Code Generator (Lite mode) build 49521"
  2864  0125  0808               	movf	(8),w	;volatile
  2865  0126  39F0               	andlw	0F0h
  2866  0127  0478               	iorwf	(LCDByte@hn),w
  2867  0128  00F6               	movwf	(??_LCDByte+0)+0
  2868  0129  0876               	movf	(??_LCDByte+0)+0,w
  2869  012A  00FB               	movwf	(LCDByte@temp)
  2870                           opt subtitle "HI-TECH Software Omniscient Code Generator (Lite mode) build 49521"
  2871                           
  2872  012B                     l1509:	
  2873                           opt subtitle "HI-TECH Software Omniscient Code Generator (Lite mode) build 49521"
  2874  012B  087B               	movf	(LCDByte@temp),w
  2875  012C  0088               	movwf	(8)	;volatile
  2876                           opt subtitle "HI-TECH Software Omniscient Code Generator (Lite mode) build 49521"
  2877                           
  2878  012D                     l1511:	
  2879                           opt subtitle "HI-TECH Software Omniscient Code Generator (Lite mode) build 49521"
  2880                           
  2881  012D  292E               	nop2	;2 cycle nop
  2882                           opt subtitle "HI-TECH Software Omniscient Code Generator (Lite mode) build 49521"
  2883                           
  2884  012E  292F               	nop2	;2 cycle nop
  2885                           opt subtitle "HI-TECH Software Omniscient Code Generator (Lite mode) build 49521"
  2886                           
  2887  012F  0000               	nop
  2888                           opt subtitle "HI-TECH Software Omniscient Code Generator (Lite mode) build 49521"
  2889                           
  2890                           opt pagewidth 120
  2891                           
  2892  0130                     l1513:	
  2893                           opt subtitle "HI-TECH Software Omniscient Code Generator (Lite mode) build 49521"
  2894  0130  1283               	bcf	status, 5	;RP0=0, select bank0
  2895  0131  1303               	bcf	status, 6	;RP1=0, select bank0
  2896  0132  1208               	bcf	(68/8),(68)&7	;volatile
  2897                           opt subtitle "HI-TECH Software Omniscient Code Generator (Lite mode) build 49521"
  2898                           
  2899  0133                     l1515:	
  2900                           opt subtitle "HI-TECH Software Omniscient Code Generator (Lite mode) build 49521"
  2901                           
  2902  0133  2934               	nop2	;2 cycle nop
  2903                           opt subtitle "HI-TECH Software Omniscient Code Generator (Lite mode) build 49521"
  2904                           
  2905  0134  2935               	nop2	;2 cycle nop
  2906                           opt subtitle "HI-TECH Software Omniscient Code Generator (Lite mode) build 49521"
  2907                           
  2908  0135  0000               	nop
  2909                           opt subtitle "HI-TECH Software Omniscient Code Generator (Lite mode) build 49521"
  2910                           
  2911                           opt pagewidth 120
  2912                           
  2913  0136                     l1517:	
  2914                           opt subtitle "HI-TECH Software Omniscient Code Generator (Lite mode) build 49521"
  2915  0136  1283               	bcf	status, 5	;RP0=0, select bank0
  2916  0137  1303               	bcf	status, 6	;RP1=0, select bank0
  2917  0138  1608               	bsf	(68/8),(68)&7	;volatile
  2918                           opt subtitle "HI-TECH Software Omniscient Code Generator (Lite mode) build 49521"
  2919                           
  2920  0139                     l1519:	
  2921                           opt subtitle "HI-TECH Software Omniscient Code Generator (Lite mode) build 49521"
  2922  0139  0808               	movf	(8),w	;volatile
  2923  013A  39F0               	andlw	0F0h
  2924  013B  0479               	iorwf	(LCDByte@ln),w
  2925  013C  00F6               	movwf	(??_LCDByte+0)+0
  2926  013D  0876               	movf	(??_LCDByte+0)+0,w
  2927  013E  00FB               	movwf	(LCDByte@temp)
  2928                           opt subtitle "HI-TECH Software Omniscient Code Generator (Lite mode) build 49521"
  2929                           
  2930  013F  087B               	movf	(LCDByte@temp),w
  2931  0140  0088               	movwf	(8)	;volatile
  2932                           opt subtitle "HI-TECH Software Omniscient Code Generator (Lite mode) build 49521"
  2933                           
  2934  0141                     l1521:	
  2935                           opt subtitle "HI-TECH Software Omniscient Code Generator (Lite mode) build 49521"
  2936                           
  2937  0141  2942               	nop2	;2 cycle nop
  2938                           opt subtitle "HI-TECH Software Omniscient Code Generator (Lite mode) build 49521"
  2939                           
  2940  0142  2943               	nop2	;2 cycle nop
  2941                           opt subtitle "HI-TECH Software Omniscient Code Generator (Lite mode) build 49521"
  2942                           
  2943  0143  0000               	nop
  2944                           opt subtitle "HI-TECH Software Omniscient Code Generator (Lite mode) build 49521"
  2945                           
  2946                           opt pagewidth 120
  2947                           
  2948  0144                     l1523:	
  2949                           opt subtitle "HI-TECH Software Omniscient Code Generator (Lite mode) build 49521"
  2950  0144  1283               	bcf	status, 5	;RP0=0, select bank0
  2951  0145  1303               	bcf	status, 6	;RP1=0, select bank0
  2952  0146  1208               	bcf	(68/8),(68)&7	;volatile
  2953                           opt subtitle "HI-TECH Software Omniscient Code Generator (Lite mode) build 49521"
  2954                           
  2955  0147                     l1525:	
  2956                           opt subtitle "HI-TECH Software Omniscient Code Generator (Lite mode) build 49521"
  2957                           
  2958  0147  2948               	nop2	;2 cycle nop
  2959                           opt subtitle "HI-TECH Software Omniscient Code Generator (Lite mode) build 49521"
  2960                           
  2961  0148  2949               	nop2	;2 cycle nop
  2962                           opt subtitle "HI-TECH Software Omniscient Code Generator (Lite mode) build 49521"
  2963                           
  2964  0149  0000               	nop
  2965                           opt subtitle "HI-TECH Software Omniscient Code Generator (Lite mode) build 49521"
  2966                           
  2967                           opt pagewidth 120
  2968                           
  2969  014A                     l1527:	
  2970                           opt subtitle "HI-TECH Software Omniscient Code Generator (Lite mode) build 49521"
  2971  014A  120A  118A  2150   	fcall	_LCDBusyLoop
              120A  118A         
  2972                           opt subtitle "HI-TECH Software Omniscient Code Generator (Lite mode) build 49521"
  2973                           
  2974  014F                     l47:	
  2975  014F  0008               	return
  2976                           opt subtitle "HI-TECH Software Omniscient Code Generator (Lite mode) build 49521"
  2977                           
  2978  0150                     	__end_of_LCDByte:
  2979                           opt subtitle "HI-TECH Software Omniscient Code Generator (Lite mode) build 49521"
  2980                           
  2981                           opt pagewidth 120
  2982                           
  2983                           	opt lm
  2984                           
  2985                           	processor	16F877A
  2986                           clrc	macro
  2987                           	bcf	3,0
  2988                           	endm
  2989                           clrz	macro
  2990                           	bcf	3,2
  2991                           	endm
  2992                           setc	macro
  2993                           	bsf	3,0
  2994                           	endm
  2995                           setz	macro
  2996                           	bsf	3,2
  2997                           	endm
  2998                           skipc	macro
  2999                           	btfss	3,0
  3000                           	endm
  3001                           skipz	macro
  3002                           	btfss	3,2
  3003                           	endm
  3004                           skipnc	macro
  3005                           	btfsc	3,0
  3006                           	endm
  3007                           skipnz	macro
  3008                           	btfsc	3,2
  3009                           	endm
  3010                           indf	equ	0
  3011                           indf0	equ	0
  3012                           pc	equ	2
  3013                           pcl	equ	2
  3014                           status	equ	3
  3015  0150                     __ptext356:	;psect for function _LCDBusyLoop
  3016                           opt subtitle "HI-TECH Software Omniscient Code Generator (Lite mode) build 49521"
  3017                           
  3018                           opt pagewidth 120
  3019                           
  3020  0059                     	__size_of_LCDBusyLoop	equ	__end_of_LCDBusyLoop-_LCDBusyLoop
  3021                           opt subtitle "HI-TECH Software Omniscient Code Generator (Lite mode) build 49521"
  3022  0150                     _LCDBusyLoop:	
  3023                           opt subtitle "HI-TECH Software Omniscient Code Generator (Lite mode) build 49521"
  3024                           
  3025                           opt pagewidth 120
  3026                           
  3027  0150                     l1435:	
  3028                           opt subtitle "HI-TECH Software Omniscient Code Generator (Lite mode) build 49521"
  3029  0150  01F4               	clrf	(LCDBusyLoop@status)
  3030                           opt subtitle "HI-TECH Software Omniscient Code Generator (Lite mode) build 49521"
  3031                           
  3032  0151                     l1437:	
  3033                           opt subtitle "HI-TECH Software Omniscient Code Generator (Lite mode) build 49521"
  3034  0151  300F               	movlw	(0Fh)
  3035  0152  00F0               	movwf	(??_LCDBusyLoop+0)+0
  3036  0153  0870               	movf	(??_LCDBusyLoop+0)+0,w
  3037  0154  1683               	bsf	status, 5	;RP0=1, select bank1
  3038  0155  1303               	bcf	status, 6	;RP1=0, select bank1
  3039  0156  0488               	iorwf	(136)^080h,f	;volatile
  3040                           opt subtitle "HI-TECH Software Omniscient Code Generator (Lite mode) build 49521"
  3041                           
  3042  0157                     l1439:	
  3043                           opt subtitle "HI-TECH Software Omniscient Code Generator (Lite mode) build 49521"
  3044  0157  1283               	bcf	status, 5	;RP0=0, select bank0
  3045  0158  1303               	bcf	status, 6	;RP1=0, select bank0
  3046  0159  1506               	bsf	(50/8),(50)&7	;volatile
  3047                           opt subtitle "HI-TECH Software Omniscient Code Generator (Lite mode) build 49521"
  3048                           
  3049  015A                     l1441:	
  3050                           opt subtitle "HI-TECH Software Omniscient Code Generator (Lite mode) build 49521"
  3051  015A  1086               	bcf	(49/8),(49)&7	;volatile
  3052                           opt subtitle "HI-TECH Software Omniscient Code Generator (Lite mode) build 49521"
  3053                           
  3054  015B                     l1443:	
  3055                           opt subtitle "HI-TECH Software Omniscient Code Generator (Lite mode) build 49521"
  3056                           
  3057  015B  295C               	nop2	;2 cycle nop
  3058                           opt subtitle "HI-TECH Software Omniscient Code Generator (Lite mode) build 49521"
  3059                           
  3060  015C  295D               	goto	l1445
  3061                           opt subtitle "HI-TECH Software Omniscient Code Generator (Lite mode) build 49521"
  3062                           
  3063                           opt pagewidth 120
  3064  015D                     l50:	
  3065                           opt subtitle "HI-TECH Software Omniscient Code Generator (Lite mode) build 49521"
  3066                           
  3067  015D                     l1445:	
  3068                           opt subtitle "HI-TECH Software Omniscient Code Generator (Lite mode) build 49521"
  3069                           
  3070  015D  1283               	bcf	status, 5	;RP0=0, select bank0
  3071  015E  1303               	bcf	status, 6	;RP1=0, select bank0
  3072  015F  1608               	bsf	(68/8),(68)&7	;volatile
  3073                           opt subtitle "HI-TECH Software Omniscient Code Generator (Lite mode) build 49521"
  3074                           
  3075  0160                     l1447:	
  3076                           opt subtitle "HI-TECH Software Omniscient Code Generator (Lite mode) build 49521"
  3077                           
  3078  0160  2961               	nop2	;2 cycle nop
  3079                           opt subtitle "HI-TECH Software Omniscient Code Generator (Lite mode) build 49521"
  3080                           
  3081                           opt pagewidth 120
  3082                           
  3083  0161                     l1449:	
  3084                           opt subtitle "HI-TECH Software Omniscient Code Generator (Lite mode) build 49521"
  3085  0161  1283               	bcf	status, 5	;RP0=0, select bank0
  3086  0162  1303               	bcf	status, 6	;RP1=0, select bank0
  3087  0163  0808               	movf	(8),w	;volatile
  3088  0164  00F0               	movwf	(??_LCDBusyLoop+0)+0
  3089  0165  0870               	movf	(??_LCDBusyLoop+0)+0,w
  3090  0166  00F4               	movwf	(LCDBusyLoop@status)
  3091                           opt subtitle "HI-TECH Software Omniscient Code Generator (Lite mode) build 49521"
  3092                           
  3093  0167                     l1451:	
  3094                           opt subtitle "HI-TECH Software Omniscient Code Generator (Lite mode) build 49521"
  3095  0167  0874               	movf	(LCDBusyLoop@status),w
  3096  0168  00F0               	movwf	(??_LCDBusyLoop+0)+0
  3097  0169  3003               	movlw	(04h)-1
  3098  016A                     u1365:
  3099  016A  1003               	clrc
  3100  016B  0DF0               	rlf	(??_LCDBusyLoop+0)+0,f
  3101  016C  3EFF               	addlw	-1
  3102  016D  1D03               	skipz
  3103  016E  296A               	goto	u1365
  3104  016F  1003               	clrc
  3105  0170  0D70               	rlf	(??_LCDBusyLoop+0)+0,w
  3106  0171  00F1               	movwf	(??_LCDBusyLoop+1)+0
  3107  0172  0871               	movf	(??_LCDBusyLoop+1)+0,w
  3108  0173  00F4               	movwf	(LCDBusyLoop@status)
  3109                           opt subtitle "HI-TECH Software Omniscient Code Generator (Lite mode) build 49521"
  3110                           
  3111  0174                     l1453:	
  3112                           opt subtitle "HI-TECH Software Omniscient Code Generator (Lite mode) build 49521"
  3113                           
  3114  0174  2975               	nop2	;2 cycle nop
  3115                           opt subtitle "HI-TECH Software Omniscient Code Generator (Lite mode) build 49521"
  3116                           
  3117                           opt pagewidth 120
  3118                           
  3119  0175                     l1455:	
  3120                           opt subtitle "HI-TECH Software Omniscient Code Generator (Lite mode) build 49521"
  3121  0175  1283               	bcf	status, 5	;RP0=0, select bank0
  3122  0176  1303               	bcf	status, 6	;RP1=0, select bank0
  3123  0177  1208               	bcf	(68/8),(68)&7	;volatile
  3124                           opt subtitle "HI-TECH Software Omniscient Code Generator (Lite mode) build 49521"
  3125                           
  3126  0178                     l1457:	
  3127                           opt subtitle "HI-TECH Software Omniscient Code Generator (Lite mode) build 49521"
  3128                           
  3129  0178  2979               	nop2	;2 cycle nop
  3130                           opt subtitle "HI-TECH Software Omniscient Code Generator (Lite mode) build 49521"
  3131                           
  3132  0179  297A               	nop2	;2 cycle nop
  3133                           opt subtitle "HI-TECH Software Omniscient Code Generator (Lite mode) build 49521"
  3134                           
  3135  017A  0000               	nop
  3136                           opt subtitle "HI-TECH Software Omniscient Code Generator (Lite mode) build 49521"
  3137                           
  3138                           opt pagewidth 120
  3139                           
  3140  017B                     l1459:	
  3141                           opt subtitle "HI-TECH Software Omniscient Code Generator (Lite mode) build 49521"
  3142  017B  1283               	bcf	status, 5	;RP0=0, select bank0
  3143  017C  1303               	bcf	status, 6	;RP1=0, select bank0
  3144  017D  1608               	bsf	(68/8),(68)&7	;volatile
  3145                           opt subtitle "HI-TECH Software Omniscient Code Generator (Lite mode) build 49521"
  3146                           
  3147  017E                     l1461:	
  3148                           opt subtitle "HI-TECH Software Omniscient Code Generator (Lite mode) build 49521"
  3149                           
  3150  017E  297F               	nop2	;2 cycle nop
  3151                           opt subtitle "HI-TECH Software Omniscient Code Generator (Lite mode) build 49521"
  3152                           
  3153                           opt pagewidth 120
  3154                           
  3155  017F  1283               	bcf	status, 5	;RP0=0, select bank0
  3156  0180  1303               	bcf	status, 6	;RP1=0, select bank0
  3157  0181  0808               	movf	(8),w	;volatile
  3158  0182  00F0               	movwf	(??_LCDBusyLoop+0)+0
  3159  0183  0870               	movf	(??_LCDBusyLoop+0)+0,w
  3160  0184  00F3               	movwf	(LCDBusyLoop@temp)
  3161                           opt subtitle "HI-TECH Software Omniscient Code Generator (Lite mode) build 49521"
  3162                           
  3163  0185                     l1463:	
  3164                           opt subtitle "HI-TECH Software Omniscient Code Generator (Lite mode) build 49521"
  3165  0185  300F               	movlw	(0Fh)
  3166  0186  00F0               	movwf	(??_LCDBusyLoop+0)+0
  3167  0187  0870               	movf	(??_LCDBusyLoop+0)+0,w
  3168  0188  05F3               	andwf	(LCDBusyLoop@temp),f
  3169                           opt subtitle "HI-TECH Software Omniscient Code Generator (Lite mode) build 49521"
  3170                           
  3171  0189                     l1465:	
  3172                           opt subtitle "HI-TECH Software Omniscient Code Generator (Lite mode) build 49521"
  3173  0189  0874               	movf	(LCDBusyLoop@status),w
  3174  018A  0473               	iorwf	(LCDBusyLoop@temp),w
  3175  018B  00F0               	movwf	(??_LCDBusyLoop+0)+0
  3176  018C  0870               	movf	(??_LCDBusyLoop+0)+0,w
  3177  018D  00F4               	movwf	(LCDBusyLoop@status)
  3178                           opt subtitle "HI-TECH Software Omniscient Code Generator (Lite mode) build 49521"
  3179                           
  3180  018E                     l1467:	
  3181                           opt subtitle "HI-TECH Software Omniscient Code Generator (Lite mode) build 49521"
  3182  018E  0874               	movf	(LCDBusyLoop@status),w
  3183  018F  3980               	andlw	080h
  3184  0190  00F0               	movwf	(??_LCDBusyLoop+0)+0
  3185  0191  0870               	movf	(??_LCDBusyLoop+0)+0,w
  3186  0192  00F2               	movwf	(LCDBusyLoop@busy)
  3187                           opt subtitle "HI-TECH Software Omniscient Code Generator (Lite mode) build 49521"
  3188                           
  3189  0193                     l1469:	
  3190                           opt subtitle "HI-TECH Software Omniscient Code Generator (Lite mode) build 49521"
  3191                           
  3192  0193  2994               	nop2	;2 cycle nop
  3193                           opt subtitle "HI-TECH Software Omniscient Code Generator (Lite mode) build 49521"
  3194                           
  3195                           opt pagewidth 120
  3196                           
  3197  0194                     l1471:	
  3198                           opt subtitle "HI-TECH Software Omniscient Code Generator (Lite mode) build 49521"
  3199  0194  1283               	bcf	status, 5	;RP0=0, select bank0
  3200  0195  1303               	bcf	status, 6	;RP1=0, select bank0
  3201  0196  1208               	bcf	(68/8),(68)&7	;volatile
  3202                           opt subtitle "HI-TECH Software Omniscient Code Generator (Lite mode) build 49521"
  3203                           
  3204  0197                     l1473:	
  3205                           opt subtitle "HI-TECH Software Omniscient Code Generator (Lite mode) build 49521"
  3206                           
  3207  0197  2998               	nop2	;2 cycle nop
  3208                           opt subtitle "HI-TECH Software Omniscient Code Generator (Lite mode) build 49521"
  3209                           
  3210  0198  2999               	nop2	;2 cycle nop
  3211                           opt subtitle "HI-TECH Software Omniscient Code Generator (Lite mode) build 49521"
  3212                           
  3213  0199  0000               	nop
  3214                           opt subtitle "HI-TECH Software Omniscient Code Generator (Lite mode) build 49521"
  3215                           
  3216                           opt pagewidth 120
  3217                           
  3218  019A                     l1475:	
  3219                           opt subtitle "HI-TECH Software Omniscient Code Generator (Lite mode) build 49521"
  3220  019A  08F2               	movf	(LCDBusyLoop@busy),f
  3221  019B  1D03               	skipz
  3222  019C  299E               	goto	u1371
  3223  019D  299F               	goto	u1370
  3224  019E                     u1371:
  3225  019E  295D               	goto	l1445
  3226  019F                     u1370:
  3227                           opt subtitle "HI-TECH Software Omniscient Code Generator (Lite mode) build 49521"
  3228  019F                     l51:	
  3229                           opt subtitle "HI-TECH Software Omniscient Code Generator (Lite mode) build 49521"
  3230                           
  3231  019F  1283               	bcf	status, 5	;RP0=0, select bank0
  3232  01A0  1303               	bcf	status, 6	;RP1=0, select bank0
  3233  01A1  1106               	bcf	(50/8),(50)&7	;volatile
  3234                           opt subtitle "HI-TECH Software Omniscient Code Generator (Lite mode) build 49521"
  3235                           
  3236  01A2                     l1477:	
  3237                           opt subtitle "HI-TECH Software Omniscient Code Generator (Lite mode) build 49521"
  3238  01A2  30F0               	movlw	(0F0h)
  3239  01A3  00F0               	movwf	(??_LCDBusyLoop+0)+0
  3240  01A4  0870               	movf	(??_LCDBusyLoop+0)+0,w
  3241  01A5  1683               	bsf	status, 5	;RP0=1, select bank1
  3242  01A6  1303               	bcf	status, 6	;RP1=0, select bank1
  3243  01A7  0588               	andwf	(136)^080h,f	;volatile
  3244                           opt subtitle "HI-TECH Software Omniscient Code Generator (Lite mode) build 49521"
  3245                           
  3246  01A8                     l52:	
  3247  01A8  0008               	return
  3248                           opt subtitle "HI-TECH Software Omniscient Code Generator (Lite mode) build 49521"
  3249                           
  3250  01A9                     	__end_of_LCDBusyLoop:
  3251                           opt subtitle "HI-TECH Software Omniscient Code Generator (Lite mode) build 49521"
  3252                           
  3253                           opt pagewidth 120
  3254                           
  3255                           	opt lm
  3256                           
  3257                           	processor	16F877A
  3258                           clrc	macro
  3259                           	bcf	3,0
  3260                           	endm
  3261                           clrz	macro
  3262                           	bcf	3,2
  3263                           	endm
  3264                           setc	macro
  3265                           	bsf	3,0
  3266                           	endm
  3267                           setz	macro
  3268                           	bsf	3,2
  3269                           	endm
  3270                           skipc	macro
  3271                           	btfss	3,0
  3272                           	endm
  3273                           skipz	macro
  3274                           	btfss	3,2
  3275                           	endm
  3276                           skipnc	macro
  3277                           	btfsc	3,0
  3278                           	endm
  3279                           skipnz	macro
  3280                           	btfsc	3,2
  3281                           	endm
  3282                           indf	equ	0
  3283                           indf0	equ	0
  3284  0016                     __ptext357:	;psect for function _ReadADC
  3285                           opt subtitle "HI-TECH Software Omniscient Code Generator (Lite mode) build 49521"
  3286                           
  3287                           opt pagewidth 120
  3288                           
  3289  002F                     	__size_of_ReadADC	equ	__end_of_ReadADC-_ReadADC
  3290                           opt subtitle "HI-TECH Software Omniscient Code Generator (Lite mode) build 49521"
  3291  0016                     _ReadADC:	
  3292                           opt subtitle "HI-TECH Software Omniscient Code Generator (Lite mode) build 49521"
  3293                           
  3294                           opt pagewidth 120
  3295  0016  00F3               	movwf	(ReadADC@ch)
  3296                           opt subtitle "HI-TECH Software Omniscient Code Generator (Lite mode) build 49521"
  3297                           
  3298  0017                     l1479:	
  3299                           opt subtitle "HI-TECH Software Omniscient Code Generator (Lite mode) build 49521"
  3300  0017  3008               	movlw	(08h)
  3301  0018  0273               	subwf	(ReadADC@ch),w
  3302  0019  1C03               	skipc
  3303  001A  281C               	goto	u1381
  3304  001B  281D               	goto	u1380
  3305  001C                     u1381:
  3306  001C  2821               	goto	l1485
  3307  001D                     u1380:
  3308                           opt subtitle "HI-TECH Software Omniscient Code Generator (Lite mode) build 49521"
  3309  001D                     l1481:	
  3310  001D  01F0               	clrf	(?_ReadADC)
  3311  001E  01F1               	clrf	(?_ReadADC+1)
  3312  001F  2844               	goto	l110
  3313                           opt subtitle "HI-TECH Software Omniscient Code Generator (Lite mode) build 49521"
  3314  0020                     l1483:	
  3315  0020  2844               	goto	l110
  3316                           opt subtitle "HI-TECH Software Omniscient Code Generator (Lite mode) build 49521"
  3317  0021                     l109:	
  3318                           opt subtitle "HI-TECH Software Omniscient Code Generator (Lite mode) build 49521"
  3319                           
  3320  0021                     l1485:	
  3321                           opt subtitle "HI-TECH Software Omniscient Code Generator (Lite mode) build 49521"
  3322  0021  0873               	movf	(ReadADC@ch),w
  3323  0022  00F2               	movwf	(??_ReadADC+0)+0
  3324  0023  0DF2               	rlf	(??_ReadADC+0)+0,f
  3325  0024  0DF2               	rlf	(??_ReadADC+0)+0,f
  3326  0025  0DF2               	rlf	(??_ReadADC+0)+0,f
  3327  0026  1283               	bcf	status, 5	;RP0=0, select bank0
  3328  0027  1303               	bcf	status, 6	;RP1=0, select bank0
  3329  0028  081F               	movf	(31),w	;volatile
  3330  0029  0672               	xorwf	(??_ReadADC+0)+0,w
  3331  002A  39C7               	andlw	not (((1<<3)-1)<<3)
  3332  002B  0672               	xorwf	(??_ReadADC+0)+0,w
  3333  002C  009F               	movwf	(31)	;volatile
  3334                           opt subtitle "HI-TECH Software Omniscient Code Generator (Lite mode) build 49521"
  3335                           
  3336  002D                     l1487:	
  3337                           opt subtitle "HI-TECH Software Omniscient Code Generator (Lite mode) build 49521"
  3338                           
  3339  002D  30A6               movlw	166
  3340  002E  00F2               movwf	(??_ReadADC+0)+0,f
  3341  002F                     u1827:
  3342  002F  0BF2               decfsz	(??_ReadADC+0)+0,f
  3343  0030  282F               	goto	u1827
  3344  0031  0000               	nop
  3345                           opt subtitle "HI-TECH Software Omniscient Code Generator (Lite mode) build 49521"
  3346                           
  3347                           opt pagewidth 120
  3348                           
  3349  0032                     l1489:	
  3350                           opt subtitle "HI-TECH Software Omniscient Code Generator (Lite mode) build 49521"
  3351  0032  1283               	bcf	status, 5	;RP0=0, select bank0
  3352  0033  1303               	bcf	status, 6	;RP1=0, select bank0
  3353  0034  151F               	bsf	(31),2	;volatile
  3354                           opt subtitle "HI-TECH Software Omniscient Code Generator (Lite mode) build 49521"
  3355                           
  3356  0035  2836               	goto	l111
  3357                           opt subtitle "HI-TECH Software Omniscient Code Generator (Lite mode) build 49521"
  3358  0036                     l112:	
  3359                           opt subtitle "HI-TECH Software Omniscient Code Generator (Lite mode) build 49521"
  3360  0036                     l111:	
  3361  0036  191F               	btfsc	(31),2	;volatile
  3362  0037  2839               	goto	u1391
  3363  0038  283A               	goto	u1390
  3364  0039                     u1391:
  3365  0039  2836               	goto	l111
  3366  003A                     u1390:
  3367  003A  283B               	goto	l1491
  3368                           opt subtitle "HI-TECH Software Omniscient Code Generator (Lite mode) build 49521"
  3369  003B                     l113:	
  3370                           opt subtitle "HI-TECH Software Omniscient Code Generator (Lite mode) build 49521"
  3371                           
  3372  003B                     l1491:	
  3373                           opt subtitle "HI-TECH Software Omniscient Code Generator (Lite mode) build 49521"
  3374  003B  081E               	movf	(30),w	;volatile
  3375  003C  01F1               	clrf	(?_ReadADC+1)
  3376  003D  07F1               	addwf	(?_ReadADC+1)
  3377  003E  1683               	bsf	status, 5	;RP0=1, select bank1
  3378  003F  1303               	bcf	status, 6	;RP1=0, select bank1
  3379  0040  081E               	movf	(158)^080h,w	;volatile
  3380  0041  01F0               	clrf	(?_ReadADC)
  3381  0042  07F0               	addwf	(?_ReadADC)
  3382                           opt subtitle "HI-TECH Software Omniscient Code Generator (Lite mode) build 49521"
  3383  0043  2844               	goto	l110
  3384                           opt subtitle "HI-TECH Software Omniscient Code Generator (Lite mode) build 49521"
  3385  0044                     l1493:	
  3386                           opt subtitle "HI-TECH Software Omniscient Code Generator (Lite mode) build 49521"
  3387                           
  3388  0044                     l110:	
  3389  0044  0008               	return
  3390                           opt subtitle "HI-TECH Software Omniscient Code Generator (Lite mode) build 49521"
  3391                           
  3392  0045                     	__end_of_ReadADC:
  3393                           opt subtitle "HI-TECH Software Omniscient Code Generator (Lite mode) build 49521"
  3394                           
  3395                           opt pagewidth 120
  3396                           
  3397                           	opt lm
  3398                           
  3399                           	processor	16F877A
  3400                           clrc	macro
  3401                           	bcf	3,0
  3402                           	endm
  3403                           clrz	macro
  3404                           	bcf	3,2
  3405                           	endm
  3406                           setc	macro
  3407                           	bsf	3,0
  3408                           	endm
  3409                           setz	macro
  3410                           	bsf	3,2
  3411                           	endm
  3412                           skipc	macro
  3413                           	btfss	3,0
  3414                           	endm
  3415                           skipz	macro
  3416                           	btfss	3,2
  3417                           	endm
  3418                           skipnc	macro
  3419                           	btfsc	3,0
  3420                           	endm
  3421                           skipnz	macro
  3422                           	btfsc	3,2
  3423                           	endm
  3424                           indf	equ	0
  3425                           indf0	equ	0
  3426                           pc	equ	2
  3427                           pcl	equ	2
  3428  00B6                     __ptext358:	;psect for function ___lwdiv
  3429                           opt subtitle "HI-TECH Software Omniscient Code Generator (Lite mode) build 49521"
  3430                           
  3431                           opt pagewidth 120
  3432                           
  3433  004D                     	__size_of___lwdiv	equ	__end_of___lwdiv-___lwdiv
  3434                           opt subtitle "HI-TECH Software Omniscient Code Generator (Lite mode) build 49521"
  3435  00B6                     ___lwdiv:	
  3436                           opt subtitle "HI-TECH Software Omniscient Code Generator (Lite mode) build 49521"
  3437                           
  3438                           opt pagewidth 120
  3439                           
  3440  00B6                     l1257:	
  3441  00B6  01F5               	clrf	(___lwdiv@quotient)
  3442  00B7  01F6               	clrf	(___lwdiv@quotient+1)
  3443                           opt subtitle "HI-TECH Software Omniscient Code Generator (Lite mode) build 49521"
  3444                           
  3445  00B8                     l1259:	
  3446  00B8  0871               	movf	(___lwdiv@divisor+1),w
  3447  00B9  0470               	iorwf	(___lwdiv@divisor),w
  3448  00BA  1903               	skipnz
  3449  00BB  28BD               	goto	u891
  3450  00BC  28BE               	goto	u890
  3451  00BD                     u891:
  3452  00BD  28FB               	goto	l1279
  3453  00BE                     u890:
  3454                           opt subtitle "HI-TECH Software Omniscient Code Generator (Lite mode) build 49521"
  3455                           
  3456  00BE                     l1261:	
  3457  00BE  01F7               	clrf	(___lwdiv@counter)
  3458  00BF  0AF7               	incf	(___lwdiv@counter),f
  3459                           opt subtitle "HI-TECH Software Omniscient Code Generator (Lite mode) build 49521"
  3460  00C0  28CD               	goto	l1267
  3461                           opt subtitle "HI-TECH Software Omniscient Code Generator (Lite mode) build 49521"
  3462  00C1                     l217:	
  3463                           opt subtitle "HI-TECH Software Omniscient Code Generator (Lite mode) build 49521"
  3464                           
  3465  00C1                     l1263:	
  3466  00C1  3001               	movlw	01h
  3467                           opt subtitle "HI-TECH Software Omniscient Code Generator (Lite mode) build 49521"
  3468  00C2                     u905:
  3469  00C2  1003               	clrc
  3470  00C3  0DF0               	rlf	(___lwdiv@divisor),f
  3471  00C4  0DF1               	rlf	(___lwdiv@divisor+1),f
  3472  00C5  3EFF               	addlw	-1
  3473  00C6  1D03               	skipz
  3474  00C7  28C2               	goto	u905
  3475                           opt subtitle "HI-TECH Software Omniscient Code Generator (Lite mode) build 49521"
  3476                           
  3477  00C8                     l1265:	
  3478  00C8  3001               	movlw	(01h)
  3479  00C9  00F4               	movwf	(??___lwdiv+0)+0
  3480  00CA  0874               	movf	(??___lwdiv+0)+0,w
  3481  00CB  07F7               	addwf	(___lwdiv@counter),f
  3482  00CC  28CD               	goto	l1267
  3483                           opt subtitle "HI-TECH Software Omniscient Code Generator (Lite mode) build 49521"
  3484                           
  3485  00CD                     l216:	
  3486                           opt subtitle "HI-TECH Software Omniscient Code Generator (Lite mode) build 49521"
  3487                           
  3488  00CD                     l1267:	
  3489  00CD  1FF1               	btfss	(___lwdiv@divisor+1),(15)&7
  3490  00CE  28D0               	goto	u911
  3491  00CF  28D1               	goto	u910
  3492  00D0                     u911:
  3493  00D0  28C1               	goto	l1263
  3494  00D1                     u910:
  3495  00D1  28D3               	goto	l1269
  3496                           opt subtitle "HI-TECH Software Omniscient Code Generator (Lite mode) build 49521"
  3497  00D2                     l218:	
  3498  00D2  28D3               	goto	l1269
  3499                           opt subtitle "HI-TECH Software Omniscient Code Generator (Lite mode) build 49521"
  3500                           
  3501  00D3                     l219:	
  3502                           opt subtitle "HI-TECH Software Omniscient Code Generator (Lite mode) build 49521"
  3503                           
  3504  00D3                     l1269:	
  3505  00D3  3001               	movlw	01h
  3506                           opt subtitle "HI-TECH Software Omniscient Code Generator (Lite mode) build 49521"
  3507  00D4                     u925:
  3508  00D4  1003               	clrc
  3509  00D5  0DF5               	rlf	(___lwdiv@quotient),f
  3510  00D6  0DF6               	rlf	(___lwdiv@quotient+1),f
  3511  00D7  3EFF               	addlw	-1
  3512  00D8  1D03               	skipz
  3513  00D9  28D4               	goto	u925
  3514                           opt subtitle "HI-TECH Software Omniscient Code Generator (Lite mode) build 49521"
  3515  00DA  0871               	movf	(___lwdiv@divisor+1),w
  3516  00DB  0273               	subwf	(___lwdiv@dividend+1),w
  3517  00DC  1D03               	skipz
  3518  00DD  28E0               	goto	u935
  3519  00DE  0870               	movf	(___lwdiv@divisor),w
  3520  00DF  0272               	subwf	(___lwdiv@dividend),w
  3521  00E0                     u935:
  3522  00E0  1C03               	skipc
  3523  00E1  28E3               	goto	u931
  3524  00E2  28E4               	goto	u930
  3525  00E3                     u931:
  3526  00E3  28EC               	goto	l1275
  3527  00E4                     u930:
  3528                           opt subtitle "HI-TECH Software Omniscient Code Generator (Lite mode) build 49521"
  3529                           
  3530  00E4                     l1271:	
  3531  00E4  0870               	movf	(___lwdiv@divisor),w
  3532  00E5  02F2               	subwf	(___lwdiv@dividend),f
  3533  00E6  0871               	movf	(___lwdiv@divisor+1),w
  3534  00E7  1C03               	skipc
  3535  00E8  03F3               	decf	(___lwdiv@dividend+1),f
  3536  00E9  02F3               	subwf	(___lwdiv@dividend+1),f
  3537                           opt subtitle "HI-TECH Software Omniscient Code Generator (Lite mode) build 49521"
  3538                           
  3539  00EA                     l1273:	
  3540  00EA  1475               	bsf	(___lwdiv@quotient)+(0/8),(0)&7
  3541  00EB  28EC               	goto	l1275
  3542                           opt subtitle "HI-TECH Software Omniscient Code Generator (Lite mode) build 49521"
  3543                           
  3544  00EC                     l220:	
  3545                           opt subtitle "HI-TECH Software Omniscient Code Generator (Lite mode) build 49521"
  3546                           
  3547  00EC                     l1275:	
  3548  00EC  3001               	movlw	01h
  3549                           opt subtitle "HI-TECH Software Omniscient Code Generator (Lite mode) build 49521"
  3550  00ED                     u945:
  3551  00ED  1003               	clrc
  3552  00EE  0CF1               	rrf	(___lwdiv@divisor+1),f
  3553  00EF  0CF0               	rrf	(___lwdiv@divisor),f
  3554  00F0  3EFF               	addlw	-1
  3555  00F1  1D03               	skipz
  3556  00F2  28ED               	goto	u945
  3557                           opt subtitle "HI-TECH Software Omniscient Code Generator (Lite mode) build 49521"
  3558                           
  3559  00F3                     l1277:	
  3560  00F3  3001               	movlw	low(01h)
  3561  00F4  02F7               	subwf	(___lwdiv@counter),f
  3562  00F5  1D03               	btfss	status,2
  3563  00F6  28F8               	goto	u951
  3564  00F7  28F9               	goto	u950
  3565  00F8                     u951:
  3566  00F8  28D3               	goto	l1269
  3567  00F9                     u950:
  3568  00F9  28FB               	goto	l1279
  3569                           opt subtitle "HI-TECH Software Omniscient Code Generator (Lite mode) build 49521"
  3570  00FA                     l221:	
  3571  00FA  28FB               	goto	l1279
  3572                           opt subtitle "HI-TECH Software Omniscient Code Generator (Lite mode) build 49521"
  3573                           
  3574  00FB                     l215:	
  3575                           opt subtitle "HI-TECH Software Omniscient Code Generator (Lite mode) build 49521"
  3576                           
  3577  00FB                     l1279:	
  3578  00FB  0876               	movf	(___lwdiv@quotient+1),w
  3579  00FC  01F1               	clrf	(?___lwdiv+1)
  3580  00FD  07F1               	addwf	(?___lwdiv+1)
  3581  00FE  0875               	movf	(___lwdiv@quotient),w
  3582  00FF  01F0               	clrf	(?___lwdiv)
  3583  0100  07F0               	addwf	(?___lwdiv)
  3584                           opt subtitle "HI-TECH Software Omniscient Code Generator (Lite mode) build 49521"
  3585  0101  2902               	goto	l222
  3586                           opt subtitle "HI-TECH Software Omniscient Code Generator (Lite mode) build 49521"
  3587  0102                     l1281:	
  3588                           opt subtitle "HI-TECH Software Omniscient Code Generator (Lite mode) build 49521"
  3589                           
  3590  0102                     l222:	
  3591  0102  0008               	return
  3592                           opt subtitle "HI-TECH Software Omniscient Code Generator (Lite mode) build 49521"
  3593                           
  3594  0103                     	__end_of___lwdiv:
  3595                           opt subtitle "HI-TECH Software Omniscient Code Generator (Lite mode) build 49521"
  3596                           
  3597                           opt pagewidth 120
  3598                           
  3599                           	opt lm
  3600                           
  3601                           	processor	16F877A
  3602                           clrc	macro
  3603                           	bcf	3,0
  3604                           	endm
  3605                           clrz	macro
  3606                           	bcf	3,2
  3607                           	endm
  3608                           setc	macro
  3609                           	bsf	3,0
  3610                           	endm
  3611                           setz	macro
  3612                           	bsf	3,2
  3613                           	endm
  3614                           skipc	macro
  3615                           	btfss	3,0
  3616                           	endm
  3617                           skipz	macro
  3618                           	btfss	3,2
  3619                           	endm
  3620                           skipnc	macro
  3621                           	btfsc	3,0
  3622                           	endm
  3623                           skipnz	macro
  3624                           	btfsc	3,2
  3625                           	endm
  3626                           indf	equ	0
  3627                           indf0	equ	0
  3628                           pc	equ	2
  3629                           pcl	equ	2
  3630                           status	equ	3
  3631                           fsr	equ	4
  3632                           fsr0	equ	4
  3633  0577                     __ptext359:	;psect for function ___ftdiv
  3634                           opt subtitle "HI-TECH Software Omniscient Code Generator (Lite mode) build 49521"
  3635                           
  3636                           opt pagewidth 120
  3637                           
  3638  00C8                     	__size_of___ftdiv	equ	__end_of___ftdiv-___ftdiv
  3639                           opt subtitle "HI-TECH Software Omniscient Code Generator (Lite mode) build 49521"
  3640  0577                     ___ftdiv:	
  3641                           opt subtitle "HI-TECH Software Omniscient Code Generator (Lite mode) build 49521"
  3642                           
  3643                           opt pagewidth 120
  3644                           
  3645  0577                     l1529:	
  3646  0577  1283               	bcf	status, 5	;RP0=0, select bank0
  3647  0578  1303               	bcf	status, 6	;RP1=0, select bank0
  3648  0579  0823               	movf	(___ftdiv@f1),w
  3649  057A  00A6               	movwf	((??___ftdiv+0)+0)
  3650  057B  0824               	movf	(___ftdiv@f1+1),w
  3651  057C  00A7               	movwf	((??___ftdiv+0)+0+1)
  3652  057D  0825               	movf	(___ftdiv@f1+2),w
  3653  057E  00A8               	movwf	((??___ftdiv+0)+0+2)
  3654  057F  1003               	clrc
  3655  0580  0D27               	rlf	(??___ftdiv+0)+1,w
  3656  0581  0D28               	rlf	(??___ftdiv+0)+2,w
  3657  0582  00A9               	movwf	(??___ftdiv+3)+0
  3658  0583  0829               	movf	(??___ftdiv+3)+0,w
  3659  0584  00AE               	movwf	(___ftdiv@exp)
  3660  0585  08AE               	movf	((___ftdiv@exp)),f
  3661  0586  1D03               	skipz
  3662  0587  2D89               	goto	u1421
  3663  0588  2D8A               	goto	u1420
  3664  0589                     u1421:
  3665  0589  2D92               	goto	l1535
  3666  058A                     u1420:
  3667                           opt subtitle "HI-TECH Software Omniscient Code Generator (Lite mode) build 49521"
  3668                           
  3669  058A                     l1531:	
  3670  058A  3000               	movlw	0x0
  3671  058B  00A0               	movwf	(?___ftdiv)
  3672  058C  3000               	movlw	0x0
  3673  058D  00A1               	movwf	(?___ftdiv+1)
  3674  058E  3000               	movlw	0x0
  3675  058F  00A2               	movwf	(?___ftdiv+2)
  3676  0590  2E3E               	goto	l298
  3677                           opt subtitle "HI-TECH Software Omniscient Code Generator (Lite mode) build 49521"
  3678  0591                     l1533:	
  3679  0591  2E3E               	goto	l298
  3680                           opt subtitle "HI-TECH Software Omniscient Code Generator (Lite mode) build 49521"
  3681  0592                     l297:	
  3682                           opt subtitle "HI-TECH Software Omniscient Code Generator (Lite mode) build 49521"
  3683                           
  3684  0592                     l1535:	
  3685  0592  0820               	movf	(___ftdiv@f2),w
  3686  0593  00A6               	movwf	((??___ftdiv+0)+0)
  3687  0594  0821               	movf	(___ftdiv@f2+1),w
  3688  0595  00A7               	movwf	((??___ftdiv+0)+0+1)
  3689  0596  0822               	movf	(___ftdiv@f2+2),w
  3690  0597  00A8               	movwf	((??___ftdiv+0)+0+2)
  3691  0598  1003               	clrc
  3692  0599  0D27               	rlf	(??___ftdiv+0)+1,w
  3693  059A  0D28               	rlf	(??___ftdiv+0)+2,w
  3694  059B  00A9               	movwf	(??___ftdiv+3)+0
  3695  059C  0829               	movf	(??___ftdiv+3)+0,w
  3696  059D  00AF               	movwf	(___ftdiv@sign)
  3697  059E  08AF               	movf	((___ftdiv@sign)),f
  3698  059F  1D03               	skipz
  3699  05A0  2DA2               	goto	u1431
  3700  05A1  2DA3               	goto	u1430
  3701  05A2                     u1431:
  3702  05A2  2DAB               	goto	l1541
  3703  05A3                     u1430:
  3704                           opt subtitle "HI-TECH Software Omniscient Code Generator (Lite mode) build 49521"
  3705                           
  3706  05A3                     l1537:	
  3707  05A3  3000               	movlw	0x0
  3708  05A4  00A0               	movwf	(?___ftdiv)
  3709  05A5  3000               	movlw	0x0
  3710  05A6  00A1               	movwf	(?___ftdiv+1)
  3711  05A7  3000               	movlw	0x0
  3712  05A8  00A2               	movwf	(?___ftdiv+2)
  3713  05A9  2E3E               	goto	l298
  3714                           opt subtitle "HI-TECH Software Omniscient Code Generator (Lite mode) build 49521"
  3715  05AA                     l1539:	
  3716  05AA  2E3E               	goto	l298
  3717                           opt subtitle "HI-TECH Software Omniscient Code Generator (Lite mode) build 49521"
  3718  05AB                     l299:	
  3719                           opt subtitle "HI-TECH Software Omniscient Code Generator (Lite mode) build 49521"
  3720                           
  3721  05AB                     l1541:	
  3722  05AB  3000               	movlw	0
  3723  05AC  00AB               	movwf	(___ftdiv@f3)
  3724  05AD  3000               	movlw	0
  3725  05AE  00AC               	movwf	(___ftdiv@f3+1)
  3726  05AF  3000               	movlw	0
  3727  05B0  00AD               	movwf	(___ftdiv@f3+2)
  3728                           opt subtitle "HI-TECH Software Omniscient Code Generator (Lite mode) build 49521"
  3729                           
  3730  05B1                     l1543:	
  3731  05B1  3089               	movlw	(089h)
  3732  05B2  072F               	addwf	(___ftdiv@sign),w
  3733  05B3  00A6               	movwf	(??___ftdiv+0)+0
  3734  05B4  0826               	movf	0+(??___ftdiv+0)+0,w
  3735  05B5  02AE               	subwf	(___ftdiv@exp),f
  3736                           opt subtitle "HI-TECH Software Omniscient Code Generator (Lite mode) build 49521"
  3737                           
  3738  05B6                     l1545:	
  3739  05B6  0823               	movf	(___ftdiv@f1),w
  3740  05B7  00A6               	movwf	((??___ftdiv+0)+0)
  3741  05B8  0824               	movf	(___ftdiv@f1+1),w
  3742  05B9  00A7               	movwf	((??___ftdiv+0)+0+1)
  3743  05BA  0825               	movf	(___ftdiv@f1+2),w
  3744  05BB  00A8               	movwf	((??___ftdiv+0)+0+2)
  3745  05BC  3010               	movlw	010h
  3746  05BD                     u1445:
  3747  05BD  1003               	clrc
  3748  05BE  0CA8               	rrf	(??___ftdiv+0)+2,f
  3749  05BF  0CA7               	rrf	(??___ftdiv+0)+1,f
  3750  05C0  0CA6               	rrf	(??___ftdiv+0)+0,f
  3751  05C1                     u1440:
  3752  05C1  3EFF               	addlw	-1
  3753  05C2  1D03               	skipz
  3754  05C3  2DBD               	goto	u1445
  3755  05C4  0826               	movf	0+(??___ftdiv+0)+0,w
  3756  05C5  00A9               	movwf	(??___ftdiv+3)+0
  3757  05C6  0829               	movf	(??___ftdiv+3)+0,w
  3758  05C7  00AF               	movwf	(___ftdiv@sign)
  3759                           opt subtitle "HI-TECH Software Omniscient Code Generator (Lite mode) build 49521"
  3760                           
  3761  05C8                     l1547:	
  3762  05C8  0820               	movf	(___ftdiv@f2),w
  3763  05C9  00A6               	movwf	((??___ftdiv+0)+0)
  3764  05CA  0821               	movf	(___ftdiv@f2+1),w
  3765  05CB  00A7               	movwf	((??___ftdiv+0)+0+1)
  3766  05CC  0822               	movf	(___ftdiv@f2+2),w
  3767  05CD  00A8               	movwf	((??___ftdiv+0)+0+2)
  3768  05CE  3010               	movlw	010h
  3769  05CF                     u1455:
  3770  05CF  1003               	clrc
  3771  05D0  0CA8               	rrf	(??___ftdiv+0)+2,f
  3772  05D1  0CA7               	rrf	(??___ftdiv+0)+1,f
  3773  05D2  0CA6               	rrf	(??___ftdiv+0)+0,f
  3774  05D3                     u1450:
  3775  05D3  3EFF               	addlw	-1
  3776  05D4  1D03               	skipz
  3777  05D5  2DCF               	goto	u1455
  3778  05D6  0826               	movf	0+(??___ftdiv+0)+0,w
  3779  05D7  00A9               	movwf	(??___ftdiv+3)+0
  3780  05D8  0829               	movf	(??___ftdiv+3)+0,w
  3781  05D9  06AF               	xorwf	(___ftdiv@sign),f
  3782                           opt subtitle "HI-TECH Software Omniscient Code Generator (Lite mode) build 49521"
  3783                           
  3784  05DA                     l1549:	
  3785  05DA  3080               	movlw	(080h)
  3786  05DB  00A6               	movwf	(??___ftdiv+0)+0
  3787  05DC  0826               	movf	(??___ftdiv+0)+0,w
  3788  05DD  05AF               	andwf	(___ftdiv@sign),f
  3789                           opt subtitle "HI-TECH Software Omniscient Code Generator (Lite mode) build 49521"
  3790                           
  3791  05DE                     l1551:	
  3792  05DE  17A4               	bsf	(___ftdiv@f1)+(15/8),(15)&7
  3793                           opt subtitle "HI-TECH Software Omniscient Code Generator (Lite mode) build 49521"
  3794  05DF  30FF               	movlw	0FFh
  3795  05E0  05A3               	andwf	(___ftdiv@f1),f
  3796  05E1  30FF               	movlw	0FFh
  3797  05E2  05A4               	andwf	(___ftdiv@f1+1),f
  3798  05E3  3000               	movlw	0
  3799  05E4  05A5               	andwf	(___ftdiv@f1+2),f
  3800                           opt subtitle "HI-TECH Software Omniscient Code Generator (Lite mode) build 49521"
  3801                           
  3802  05E5                     l1553:	
  3803  05E5  17A1               	bsf	(___ftdiv@f2)+(15/8),(15)&7
  3804                           opt subtitle "HI-TECH Software Omniscient Code Generator (Lite mode) build 49521"
  3805  05E6  30FF               	movlw	0FFh
  3806  05E7  05A0               	andwf	(___ftdiv@f2),f
  3807  05E8  30FF               	movlw	0FFh
  3808  05E9  05A1               	andwf	(___ftdiv@f2+1),f
  3809  05EA  3000               	movlw	0
  3810  05EB  05A2               	andwf	(___ftdiv@f2+2),f
  3811                           opt subtitle "HI-TECH Software Omniscient Code Generator (Lite mode) build 49521"
  3812  05EC  3018               	movlw	(018h)
  3813  05ED  00A6               	movwf	(??___ftdiv+0)+0
  3814  05EE  0826               	movf	(??___ftdiv+0)+0,w
  3815  05EF  00AA               	movwf	(___ftdiv@cntr)
  3816  05F0  2DF1               	goto	l1555
  3817                           opt subtitle "HI-TECH Software Omniscient Code Generator (Lite mode) build 49521"
  3818                           
  3819  05F1                     l300:	
  3820                           opt subtitle "HI-TECH Software Omniscient Code Generator (Lite mode) build 49521"
  3821                           
  3822  05F1                     l1555:	
  3823  05F1  3001               	movlw	01h
  3824  05F2                     u1465:
  3825  05F2  1003               	clrc
  3826  05F3  0DAB               	rlf	(___ftdiv@f3),f
  3827  05F4  0DAC               	rlf	(___ftdiv@f3+1),f
  3828  05F5  0DAD               	rlf	(___ftdiv@f3+2),f
  3829  05F6  3EFF               	addlw	-1
  3830  05F7  1D03               	skipz
  3831  05F8  2DF2               	goto	u1465
  3832                           opt subtitle "HI-TECH Software Omniscient Code Generator (Lite mode) build 49521"
  3833                           
  3834  05F9                     l1557:	
  3835  05F9  0822               	movf	(___ftdiv@f2+2),w
  3836  05FA  0225               	subwf	(___ftdiv@f1+2),w
  3837  05FB  1D03               	skipz
  3838  05FC  2E03               	goto	u1475
  3839  05FD  0821               	movf	(___ftdiv@f2+1),w
  3840  05FE  0224               	subwf	(___ftdiv@f1+1),w
  3841  05FF  1D03               	skipz
  3842  0600  2E03               	goto	u1475
  3843  0601  0820               	movf	(___ftdiv@f2),w
  3844  0602  0223               	subwf	(___ftdiv@f1),w
  3845  0603                     u1475:
  3846  0603  1C03               	skipc
  3847  0604  2E06               	goto	u1471
  3848  0605  2E07               	goto	u1470
  3849  0606                     u1471:
  3850  0606  2E13               	goto	l1563
  3851  0607                     u1470:
  3852                           opt subtitle "HI-TECH Software Omniscient Code Generator (Lite mode) build 49521"
  3853                           
  3854  0607                     l1559:	
  3855  0607  0820               	movf	(___ftdiv@f2),w
  3856  0608  02A3               	subwf	(___ftdiv@f1),f
  3857  0609  0821               	movf	(___ftdiv@f2+1),w
  3858  060A  1C03               	skipc
  3859  060B  0F21               	incfsz	(___ftdiv@f2+1),w
  3860  060C  02A4               	subwf	(___ftdiv@f1+1),f
  3861  060D  0822               	movf	(___ftdiv@f2+2),w
  3862  060E  1C03               	skipc
  3863  060F  0A22               	incf	(___ftdiv@f2+2),w
  3864  0610  02A5               	subwf	(___ftdiv@f1+2),f
  3865                           opt subtitle "HI-TECH Software Omniscient Code Generator (Lite mode) build 49521"
  3866                           
  3867  0611                     l1561:	
  3868  0611  142B               	bsf	(___ftdiv@f3)+(0/8),(0)&7
  3869  0612  2E13               	goto	l1563
  3870                           opt subtitle "HI-TECH Software Omniscient Code Generator (Lite mode) build 49521"
  3871                           
  3872  0613                     l301:	
  3873                           opt subtitle "HI-TECH Software Omniscient Code Generator (Lite mode) build 49521"
  3874                           
  3875  0613                     l1563:	
  3876  0613  3001               	movlw	01h
  3877  0614                     u1485:
  3878  0614  1003               	clrc
  3879  0615  0DA3               	rlf	(___ftdiv@f1),f
  3880  0616  0DA4               	rlf	(___ftdiv@f1+1),f
  3881  0617  0DA5               	rlf	(___ftdiv@f1+2),f
  3882  0618  3EFF               	addlw	-1
  3883  0619  1D03               	skipz
  3884  061A  2E14               	goto	u1485
  3885                           opt subtitle "HI-TECH Software Omniscient Code Generator (Lite mode) build 49521"
  3886                           
  3887  061B                     l1565:	
  3888  061B  3001               	movlw	low(01h)
  3889  061C  02AA               	subwf	(___ftdiv@cntr),f
  3890  061D  1D03               	btfss	status,2
  3891  061E  2E20               	goto	u1491
  3892  061F  2E21               	goto	u1490
  3893  0620                     u1491:
  3894  0620  2DF1               	goto	l1555
  3895  0621                     u1490:
  3896  0621  2E22               	goto	l1567
  3897                           opt subtitle "HI-TECH Software Omniscient Code Generator (Lite mode) build 49521"
  3898  0622                     l302:	
  3899                           opt subtitle "HI-TECH Software Omniscient Code Generator (Lite mode) build 49521"
  3900                           
  3901  0622                     l1567:	
  3902  0622  082B               	movf	(___ftdiv@f3),w
  3903  0623  00F0               	movwf	(?___ftpack)
  3904  0624  082C               	movf	(___ftdiv@f3+1),w
  3905  0625  00F1               	movwf	(?___ftpack+1)
  3906  0626  082D               	movf	(___ftdiv@f3+2),w
  3907  0627  00F2               	movwf	(?___ftpack+2)
  3908  0628  082E               	movf	(___ftdiv@exp),w
  3909  0629  00A6               	movwf	(??___ftdiv+0)+0
  3910  062A  0826               	movf	(??___ftdiv+0)+0,w
  3911  062B  00F3               	movwf	0+(?___ftpack)+03h
  3912  062C  082F               	movf	(___ftdiv@sign),w
  3913  062D  00A7               	movwf	(??___ftdiv+1)+0
  3914  062E  0827               	movf	(??___ftdiv+1)+0,w
  3915  062F  00F4               	movwf	0+(?___ftpack)+04h
  3916  0630  120A  118A  23C5   	fcall	___ftpack
              120A  118A         
  3917  0635  0870               	movf	(0+(?___ftpack)),w
  3918  0636  1283               	bcf	status, 5	;RP0=0, select bank0
  3919  0637  1303               	bcf	status, 6	;RP1=0, select bank0
  3920  0638  00A0               	movwf	(?___ftdiv)
  3921  0639  0871               	movf	(1+(?___ftpack)),w
  3922  063A  00A1               	movwf	(?___ftdiv+1)
  3923  063B  0872               	movf	(2+(?___ftpack)),w
  3924  063C  00A2               	movwf	(?___ftdiv+2)
  3925  063D  2E3E               	goto	l298
  3926                           opt subtitle "HI-TECH Software Omniscient Code Generator (Lite mode) build 49521"
  3927  063E                     l1569:	
  3928                           opt subtitle "HI-TECH Software Omniscient Code Generator (Lite mode) build 49521"
  3929                           
  3930  063E                     l298:	
  3931  063E  0008               	return
  3932                           opt subtitle "HI-TECH Software Omniscient Code Generator (Lite mode) build 49521"
  3933                           
  3934  063F                     	__end_of___ftdiv:
  3935                           opt subtitle "HI-TECH Software Omniscient Code Generator (Lite mode) build 49521"
  3936                           
  3937                           opt pagewidth 120
  3938                           
  3939                           	opt lm
  3940                           
  3941                           	processor	16F877A
  3942                           clrc	macro
  3943                           	bcf	3,0
  3944                           	endm
  3945                           clrz	macro
  3946                           	bcf	3,2
  3947                           	endm
  3948                           setc	macro
  3949                           	bsf	3,0
  3950                           	endm
  3951                           setz	macro
  3952                           	bsf	3,2
  3953                           	endm
  3954                           skipc	macro
  3955                           	btfss	3,0
  3956                           	endm
  3957                           skipz	macro
  3958                           	btfss	3,2
  3959                           	endm
  3960                           skipnc	macro
  3961                           	btfsc	3,0
  3962                           	endm
  3963                           skipnz	macro
  3964                           	btfsc	3,2
  3965                           	endm
  3966                           indf	equ	0
  3967                           indf0	equ	0
  3968                           pc	equ	2
  3969                           pcl	equ	2
  3970                           status	equ	3
  3971                           fsr	equ	4
  3972                           fsr0	equ	4
  3973  0712                     __ptext360:	;psect for function ___ftmul
  3974                           opt subtitle "HI-TECH Software Omniscient Code Generator (Lite mode) build 49521"
  3975                           
  3976                           opt pagewidth 120
  3977                           
  3978  00EE                     	__size_of___ftmul	equ	__end_of___ftmul-___ftmul
  3979                           opt subtitle "HI-TECH Software Omniscient Code Generator (Lite mode) build 49521"
  3980  0712                     ___ftmul:	
  3981                           opt subtitle "HI-TECH Software Omniscient Code Generator (Lite mode) build 49521"
  3982                           
  3983                           opt pagewidth 120
  3984                           
  3985  0712                     l1571:	
  3986  0712  1283               	bcf	status, 5	;RP0=0, select bank0
  3987  0713  1303               	bcf	status, 6	;RP1=0, select bank0
  3988  0714  0830               	movf	(___ftmul@f1),w
  3989  0715  00B6               	movwf	((??___ftmul+0)+0)
  3990  0716  0831               	movf	(___ftmul@f1+1),w
  3991  0717  00B7               	movwf	((??___ftmul+0)+0+1)
  3992  0718  0832               	movf	(___ftmul@f1+2),w
  3993  0719  00B8               	movwf	((??___ftmul+0)+0+2)
  3994  071A  1003               	clrc
  3995  071B  0D37               	rlf	(??___ftmul+0)+1,w
  3996  071C  0D38               	rlf	(??___ftmul+0)+2,w
  3997  071D  00B9               	movwf	(??___ftmul+3)+0
  3998  071E  0839               	movf	(??___ftmul+3)+0,w
  3999  071F  00BA               	movwf	(___ftmul@exp)
  4000  0720  08BA               	movf	((___ftmul@exp)),f
  4001  0721  1D03               	skipz
  4002  0722  2F24               	goto	u1501
  4003  0723  2F25               	goto	u1500
  4004  0724                     u1501:
  4005  0724  2F2D               	goto	l1577
  4006  0725                     u1500:
  4007                           opt subtitle "HI-TECH Software Omniscient Code Generator (Lite mode) build 49521"
  4008                           
  4009  0725                     l1573:	
  4010  0725  3000               	movlw	0x0
  4011  0726  00B0               	movwf	(?___ftmul)
  4012  0727  3000               	movlw	0x0
  4013  0728  00B1               	movwf	(?___ftmul+1)
  4014  0729  3000               	movlw	0x0
  4015  072A  00B2               	movwf	(?___ftmul+2)
  4016  072B  2FFF               	goto	l308
  4017                           opt subtitle "HI-TECH Software Omniscient Code Generator (Lite mode) build 49521"
  4018  072C                     l1575:	
  4019  072C  2FFF               	goto	l308
  4020                           opt subtitle "HI-TECH Software Omniscient Code Generator (Lite mode) build 49521"
  4021  072D                     l307:	
  4022                           opt subtitle "HI-TECH Software Omniscient Code Generator (Lite mode) build 49521"
  4023                           
  4024  072D                     l1577:	
  4025  072D  0833               	movf	(___ftmul@f2),w
  4026  072E  00B6               	movwf	((??___ftmul+0)+0)
  4027  072F  0834               	movf	(___ftmul@f2+1),w
  4028  0730  00B7               	movwf	((??___ftmul+0)+0+1)
  4029  0731  0835               	movf	(___ftmul@f2+2),w
  4030  0732  00B8               	movwf	((??___ftmul+0)+0+2)
  4031  0733  1003               	clrc
  4032  0734  0D37               	rlf	(??___ftmul+0)+1,w
  4033  0735  0D38               	rlf	(??___ftmul+0)+2,w
  4034  0736  00B9               	movwf	(??___ftmul+3)+0
  4035  0737  0839               	movf	(??___ftmul+3)+0,w
  4036  0738  00BF               	movwf	(___ftmul@sign)
  4037  0739  08BF               	movf	((___ftmul@sign)),f
  4038  073A  1D03               	skipz
  4039  073B  2F3D               	goto	u1511
  4040  073C  2F3E               	goto	u1510
  4041  073D                     u1511:
  4042  073D  2F46               	goto	l1583
  4043  073E                     u1510:
  4044                           opt subtitle "HI-TECH Software Omniscient Code Generator (Lite mode) build 49521"
  4045                           
  4046  073E                     l1579:	
  4047  073E  3000               	movlw	0x0
  4048  073F  00B0               	movwf	(?___ftmul)
  4049  0740  3000               	movlw	0x0
  4050  0741  00B1               	movwf	(?___ftmul+1)
  4051  0742  3000               	movlw	0x0
  4052  0743  00B2               	movwf	(?___ftmul+2)
  4053  0744  2FFF               	goto	l308
  4054                           opt subtitle "HI-TECH Software Omniscient Code Generator (Lite mode) build 49521"
  4055  0745                     l1581:	
  4056  0745  2FFF               	goto	l308
  4057                           opt subtitle "HI-TECH Software Omniscient Code Generator (Lite mode) build 49521"
  4058  0746                     l309:	
  4059                           opt subtitle "HI-TECH Software Omniscient Code Generator (Lite mode) build 49521"
  4060                           
  4061  0746                     l1583:	
  4062  0746  083F               	movf	(___ftmul@sign),w
  4063  0747  3E7B               	addlw	07Bh
  4064  0748  00B6               	movwf	(??___ftmul+0)+0
  4065  0749  0836               	movf	(??___ftmul+0)+0,w
  4066  074A  07BA               	addwf	(___ftmul@exp),f
  4067                           opt subtitle "HI-TECH Software Omniscient Code Generator (Lite mode) build 49521"
  4068  074B  0830               	movf	(___ftmul@f1),w
  4069  074C  00B6               	movwf	((??___ftmul+0)+0)
  4070  074D  0831               	movf	(___ftmul@f1+1),w
  4071  074E  00B7               	movwf	((??___ftmul+0)+0+1)
  4072  074F  0832               	movf	(___ftmul@f1+2),w
  4073  0750  00B8               	movwf	((??___ftmul+0)+0+2)
  4074  0751  3010               	movlw	010h
  4075  0752                     u1525:
  4076  0752  1003               	clrc
  4077  0753  0CB8               	rrf	(??___ftmul+0)+2,f
  4078  0754  0CB7               	rrf	(??___ftmul+0)+1,f
  4079  0755  0CB6               	rrf	(??___ftmul+0)+0,f
  4080  0756                     u1520:
  4081  0756  3EFF               	addlw	-1
  4082  0757  1D03               	skipz
  4083  0758  2F52               	goto	u1525
  4084  0759  0836               	movf	0+(??___ftmul+0)+0,w
  4085  075A  00B9               	movwf	(??___ftmul+3)+0
  4086  075B  0839               	movf	(??___ftmul+3)+0,w
  4087  075C  00BF               	movwf	(___ftmul@sign)
  4088                           opt subtitle "HI-TECH Software Omniscient Code Generator (Lite mode) build 49521"
  4089  075D  0833               	movf	(___ftmul@f2),w
  4090  075E  00B6               	movwf	((??___ftmul+0)+0)
  4091  075F  0834               	movf	(___ftmul@f2+1),w
  4092  0760  00B7               	movwf	((??___ftmul+0)+0+1)
  4093  0761  0835               	movf	(___ftmul@f2+2),w
  4094  0762  00B8               	movwf	((??___ftmul+0)+0+2)
  4095  0763  3010               	movlw	010h
  4096  0764                     u1535:
  4097  0764  1003               	clrc
  4098  0765  0CB8               	rrf	(??___ftmul+0)+2,f
  4099  0766  0CB7               	rrf	(??___ftmul+0)+1,f
  4100  0767  0CB6               	rrf	(??___ftmul+0)+0,f
  4101  0768                     u1530:
  4102  0768  3EFF               	addlw	-1
  4103  0769  1D03               	skipz
  4104  076A  2F64               	goto	u1535
  4105  076B  0836               	movf	0+(??___ftmul+0)+0,w
  4106  076C  00B9               	movwf	(??___ftmul+3)+0
  4107  076D  0839               	movf	(??___ftmul+3)+0,w
  4108  076E  06BF               	xorwf	(___ftmul@sign),f
  4109                           opt subtitle "HI-TECH Software Omniscient Code Generator (Lite mode) build 49521"
  4110  076F  3080               	movlw	(080h)
  4111  0770  00B6               	movwf	(??___ftmul+0)+0
  4112  0771  0836               	movf	(??___ftmul+0)+0,w
  4113  0772  05BF               	andwf	(___ftmul@sign),f
  4114                           opt subtitle "HI-TECH Software Omniscient Code Generator (Lite mode) build 49521"
  4115                           
  4116  0773                     l1585:	
  4117  0773  17B1               	bsf	(___ftmul@f1)+(15/8),(15)&7
  4118                           opt subtitle "HI-TECH Software Omniscient Code Generator (Lite mode) build 49521"
  4119                           
  4120  0774                     l1587:	
  4121  0774  17B4               	bsf	(___ftmul@f2)+(15/8),(15)&7
  4122                           opt subtitle "HI-TECH Software Omniscient Code Generator (Lite mode) build 49521"
  4123                           
  4124  0775                     l1589:	
  4125  0775  30FF               	movlw	0FFh
  4126  0776  05B3               	andwf	(___ftmul@f2),f
  4127  0777  30FF               	movlw	0FFh
  4128  0778  05B4               	andwf	(___ftmul@f2+1),f
  4129  0779  3000               	movlw	0
  4130  077A  05B5               	andwf	(___ftmul@f2+2),f
  4131                           opt subtitle "HI-TECH Software Omniscient Code Generator (Lite mode) build 49521"
  4132                           
  4133  077B                     l1591:	
  4134  077B  3000               	movlw	0
  4135  077C  00BB               	movwf	(___ftmul@f3_as_product)
  4136  077D  3000               	movlw	0
  4137  077E  00BC               	movwf	(___ftmul@f3_as_product+1)
  4138  077F  3000               	movlw	0
  4139  0780  00BD               	movwf	(___ftmul@f3_as_product+2)
  4140                           opt subtitle "HI-TECH Software Omniscient Code Generator (Lite mode) build 49521"
  4141                           
  4142  0781                     l1593:	
  4143  0781  3007               	movlw	(07h)
  4144  0782  00B6               	movwf	(??___ftmul+0)+0
  4145  0783  0836               	movf	(??___ftmul+0)+0,w
  4146  0784  00BE               	movwf	(___ftmul@cntr)
  4147  0785  2F86               	goto	l1595
  4148                           opt subtitle "HI-TECH Software Omniscient Code Generator (Lite mode) build 49521"
  4149                           
  4150  0786                     l310:	
  4151                           opt subtitle "HI-TECH Software Omniscient Code Generator (Lite mode) build 49521"
  4152                           
  4153  0786                     l1595:	
  4154  0786  1C30               	btfss	(___ftmul@f1),(0)&7
  4155  0787  2F89               	goto	u1541
  4156  0788  2F8A               	goto	u1540
  4157  0789                     u1541:
  4158  0789  2F9B               	goto	l1599
  4159  078A                     u1540:
  4160                           opt subtitle "HI-TECH Software Omniscient Code Generator (Lite mode) build 49521"
  4161                           
  4162  078A                     l1597:	
  4163  078A  0833               	movf	(___ftmul@f2),w
  4164  078B  07BB               	addwf	(___ftmul@f3_as_product),f
  4165  078C  0834               	movf	(___ftmul@f2+1),w
  4166  078D  1103               	clrz
  4167  078E  1803               	skipnc
  4168  078F  0A34               	incf	(___ftmul@f2+1),w
  4169  0790  1903               	skipnz
  4170  0791  2F93               	goto	u1551
  4171  0792  07BC               	addwf	(___ftmul@f3_as_product+1),f
  4172  0793                     u1551:
  4173  0793  0835               	movf	(___ftmul@f2+2),w
  4174  0794  1103               	clrz
  4175  0795  1803               	skipnc
  4176  0796  0A35               	incf	(___ftmul@f2+2),w
  4177  0797  1903               	skipnz
  4178  0798  2F9A               	goto	u1552
  4179  0799  07BD               	addwf	(___ftmul@f3_as_product+2),f
  4180  079A                     u1552:
  4181                           opt subtitle "HI-TECH Software Omniscient Code Generator (Lite mode) build 49521"
  4182  079A  2F9B               	goto	l1599
  4183                           opt subtitle "HI-TECH Software Omniscient Code Generator (Lite mode) build 49521"
  4184  079B                     l311:	
  4185                           opt subtitle "HI-TECH Software Omniscient Code Generator (Lite mode) build 49521"
  4186                           
  4187  079B                     l1599:	
  4188  079B  3001               	movlw	01h
  4189  079C                     u1565:
  4190  079C  1003               	clrc
  4191  079D  0CB2               	rrf	(___ftmul@f1+2),f
  4192  079E  0CB1               	rrf	(___ftmul@f1+1),f
  4193  079F  0CB0               	rrf	(___ftmul@f1),f
  4194  07A0  3EFF               	addlw	-1
  4195  07A1  1D03               	skipz
  4196  07A2  2F9C               	goto	u1565
  4197                           opt subtitle "HI-TECH Software Omniscient Code Generator (Lite mode) build 49521"
  4198                           
  4199                           opt pagewidth 120
  4200  07A3                     l1601:	
  4201  07A3  3001               	movlw	01h
  4202  07A4                     u1575:
  4203  07A4  1003               	clrc
  4204  07A5  0DB3               	rlf	(___ftmul@f2),f
  4205  07A6  0DB4               	rlf	(___ftmul@f2+1),f
  4206  07A7  0DB5               	rlf	(___ftmul@f2+2),f
  4207  07A8  3EFF               	addlw	-1
  4208  07A9  1D03               	skipz
  4209  07AA  2FA4               	goto	u1575
  4210                           opt subtitle "HI-TECH Software Omniscient Code Generator (Lite mode) build 49521"
  4211                           
  4212  07AB                     l1603:	
  4213  07AB  3001               	movlw	low(01h)
  4214  07AC  02BE               	subwf	(___ftmul@cntr),f
  4215  07AD  1D03               	btfss	status,2
  4216  07AE  2FB0               	goto	u1581
  4217  07AF  2FB1               	goto	u1580
  4218  07B0                     u1581:
  4219  07B0  2F86               	goto	l1595
  4220  07B1                     u1580:
  4221  07B1  2FB2               	goto	l1605
  4222                           opt subtitle "HI-TECH Software Omniscient Code Generator (Lite mode) build 49521"
  4223  07B2                     l312:	
  4224                           opt subtitle "HI-TECH Software Omniscient Code Generator (Lite mode) build 49521"
  4225                           
  4226  07B2                     l1605:	
  4227  07B2  3009               	movlw	(09h)
  4228  07B3  00B6               	movwf	(??___ftmul+0)+0
  4229  07B4  0836               	movf	(??___ftmul+0)+0,w
  4230  07B5  00BE               	movwf	(___ftmul@cntr)
  4231  07B6  2FB7               	goto	l1607
  4232                           opt subtitle "HI-TECH Software Omniscient Code Generator (Lite mode) build 49521"
  4233                           
  4234  07B7                     l313:	
  4235                           opt subtitle "HI-TECH Software Omniscient Code Generator (Lite mode) build 49521"
  4236                           
  4237  07B7                     l1607:	
  4238  07B7  1C30               	btfss	(___ftmul@f1),(0)&7
  4239  07B8  2FBA               	goto	u1591
  4240  07B9  2FBB               	goto	u1590
  4241  07BA                     u1591:
  4242  07BA  2FCC               	goto	l1611
  4243  07BB                     u1590:
  4244                           opt subtitle "HI-TECH Software Omniscient Code Generator (Lite mode) build 49521"
  4245                           
  4246  07BB                     l1609:	
  4247  07BB  0833               	movf	(___ftmul@f2),w
  4248  07BC  07BB               	addwf	(___ftmul@f3_as_product),f
  4249  07BD  0834               	movf	(___ftmul@f2+1),w
  4250  07BE  1103               	clrz
  4251  07BF  1803               	skipnc
  4252  07C0  0A34               	incf	(___ftmul@f2+1),w
  4253  07C1  1903               	skipnz
  4254  07C2  2FC4               	goto	u1601
  4255  07C3  07BC               	addwf	(___ftmul@f3_as_product+1),f
  4256  07C4                     u1601:
  4257  07C4  0835               	movf	(___ftmul@f2+2),w
  4258  07C5  1103               	clrz
  4259  07C6  1803               	skipnc
  4260  07C7  0A35               	incf	(___ftmul@f2+2),w
  4261  07C8  1903               	skipnz
  4262  07C9  2FCB               	goto	u1602
  4263  07CA  07BD               	addwf	(___ftmul@f3_as_product+2),f
  4264  07CB                     u1602:
  4265                           opt subtitle "HI-TECH Software Omniscient Code Generator (Lite mode) build 49521"
  4266  07CB  2FCC               	goto	l1611
  4267                           opt subtitle "HI-TECH Software Omniscient Code Generator (Lite mode) build 49521"
  4268  07CC                     l314:	
  4269                           opt subtitle "HI-TECH Software Omniscient Code Generator (Lite mode) build 49521"
  4270                           
  4271  07CC                     l1611:	
  4272  07CC  3001               	movlw	01h
  4273  07CD                     u1615:
  4274  07CD  1003               	clrc
  4275  07CE  0CB2               	rrf	(___ftmul@f1+2),f
  4276  07CF  0CB1               	rrf	(___ftmul@f1+1),f
  4277  07D0  0CB0               	rrf	(___ftmul@f1),f
  4278  07D1  3EFF               	addlw	-1
  4279  07D2  1D03               	skipz
  4280  07D3  2FCD               	goto	u1615
  4281                           opt subtitle "HI-TECH Software Omniscient Code Generator (Lite mode) build 49521"
  4282                           
  4283                           opt pagewidth 120
  4284  07D4                     l1613:	
  4285  07D4  3001               	movlw	01h
  4286  07D5                     u1625:
  4287  07D5  1003               	clrc
  4288  07D6  0CBD               	rrf	(___ftmul@f3_as_product+2),f
  4289  07D7  0CBC               	rrf	(___ftmul@f3_as_product+1),f
  4290  07D8  0CBB               	rrf	(___ftmul@f3_as_product),f
  4291  07D9  3EFF               	addlw	-1
  4292  07DA  1D03               	skipz
  4293  07DB  2FD5               	goto	u1625
  4294                           opt subtitle "HI-TECH Software Omniscient Code Generator (Lite mode) build 49521"
  4295                           
  4296                           opt pagewidth 120
  4297  07DC                     l1615:	
  4298  07DC  3001               	movlw	low(01h)
  4299  07DD  02BE               	subwf	(___ftmul@cntr),f
  4300  07DE  1D03               	btfss	status,2
  4301  07DF  2FE1               	goto	u1631
  4302  07E0  2FE2               	goto	u1630
  4303  07E1                     u1631:
  4304  07E1  2FB7               	goto	l1607
  4305  07E2                     u1630:
  4306  07E2  2FE3               	goto	l1617
  4307                           opt subtitle "HI-TECH Software Omniscient Code Generator (Lite mode) build 49521"
  4308  07E3                     l315:	
  4309                           opt subtitle "HI-TECH Software Omniscient Code Generator (Lite mode) build 49521"
  4310                           
  4311  07E3                     l1617:	
  4312  07E3  083B               	movf	(___ftmul@f3_as_product),w
  4313  07E4  00F0               	movwf	(?___ftpack)
  4314  07E5  083C               	movf	(___ftmul@f3_as_product+1),w
  4315  07E6  00F1               	movwf	(?___ftpack+1)
  4316  07E7  083D               	movf	(___ftmul@f3_as_product+2),w
  4317  07E8  00F2               	movwf	(?___ftpack+2)
  4318  07E9  083A               	movf	(___ftmul@exp),w
  4319  07EA  00B6               	movwf	(??___ftmul+0)+0
  4320  07EB  0836               	movf	(??___ftmul+0)+0,w
  4321  07EC  00F3               	movwf	0+(?___ftpack)+03h
  4322  07ED  083F               	movf	(___ftmul@sign),w
  4323  07EE  00B7               	movwf	(??___ftmul+1)+0
  4324  07EF  0837               	movf	(??___ftmul+1)+0,w
  4325  07F0  00F4               	movwf	0+(?___ftpack)+04h
  4326  07F1  120A  118A  23C5   	fcall	___ftpack
              120A  118A         
  4327  07F6  0870               	movf	(0+(?___ftpack)),w
  4328  07F7  1283               	bcf	status, 5	;RP0=0, select bank0
  4329  07F8  1303               	bcf	status, 6	;RP1=0, select bank0
  4330  07F9  00B0               	movwf	(?___ftmul)
  4331  07FA  0871               	movf	(1+(?___ftpack)),w
  4332  07FB  00B1               	movwf	(?___ftmul+1)
  4333  07FC  0872               	movf	(2+(?___ftpack)),w
  4334  07FD  00B2               	movwf	(?___ftmul+2)
  4335  07FE  2FFF               	goto	l308
  4336                           opt subtitle "HI-TECH Software Omniscient Code Generator (Lite mode) build 49521"
  4337  07FF                     l1619:	
  4338                           opt subtitle "HI-TECH Software Omniscient Code Generator (Lite mode) build 49521"
  4339                           
  4340  07FF                     l308:	
  4341  07FF  0008               	return
  4342                           opt subtitle "HI-TECH Software Omniscient Code Generator (Lite mode) build 49521"
  4343                           
  4344  0800                     	__end_of___ftmul:
  4345                           opt subtitle "HI-TECH Software Omniscient Code Generator (Lite mode) build 49521"
  4346                           
  4347                           opt pagewidth 120
  4348                           
  4349                           	opt lm
  4350                           
  4351                           	processor	16F877A
  4352                           clrc	macro
  4353                           	bcf	3,0
  4354                           	endm
  4355                           clrz	macro
  4356                           	bcf	3,2
  4357                           	endm
  4358                           setc	macro
  4359                           	bsf	3,0
  4360                           	endm
  4361                           setz	macro
  4362                           	bsf	3,2
  4363                           	endm
  4364                           skipc	macro
  4365                           	btfss	3,0
  4366                           	endm
  4367                           skipz	macro
  4368                           	btfss	3,2
  4369                           	endm
  4370                           skipnc	macro
  4371                           	btfsc	3,0
  4372                           	endm
  4373                           skipnz	macro
  4374                           	btfsc	3,2
  4375                           	endm
  4376                           indf	equ	0
  4377                           indf0	equ	0
  4378                           pc	equ	2
  4379                           pcl	equ	2
  4380  04D3                     __ptext361:	;psect for function ___fttol
  4381                           opt subtitle "HI-TECH Software Omniscient Code Generator (Lite mode) build 49521"
  4382                           
  4383                           opt pagewidth 120
  4384                           
  4385  00A4                     	__size_of___fttol	equ	__end_of___fttol-___fttol
  4386                           opt subtitle "HI-TECH Software Omniscient Code Generator (Lite mode) build 49521"
  4387  04D3                     ___fttol:	
  4388                           opt subtitle "HI-TECH Software Omniscient Code Generator (Lite mode) build 49521"
  4389                           
  4390                           opt pagewidth 120
  4391                           
  4392  04D3                     l1313:	
  4393  04D3  0870               	movf	(___fttol@f1),w
  4394  04D4  00F4               	movwf	((??___fttol+0)+0)
  4395  04D5  0871               	movf	(___fttol@f1+1),w
  4396  04D6  00F5               	movwf	((??___fttol+0)+0+1)
  4397  04D7  0872               	movf	(___fttol@f1+2),w
  4398  04D8  00F6               	movwf	((??___fttol+0)+0+2)
  4399  04D9  1003               	clrc
  4400  04DA  0D75               	rlf	(??___fttol+0)+1,w
  4401  04DB  0D76               	rlf	(??___fttol+0)+2,w
  4402  04DC  00F7               	movwf	(??___fttol+3)+0
  4403  04DD  0877               	movf	(??___fttol+3)+0,w
  4404  04DE  00FD               	movwf	(___fttol@exp1)
  4405  04DF  08FD               	movf	((___fttol@exp1)),f
  4406  04E0  1D03               	skipz
  4407  04E1  2CE3               	goto	u1071
  4408  04E2  2CE4               	goto	u1070
  4409  04E3                     u1071:
  4410  04E3  2CEE               	goto	l1319
  4411  04E4                     u1070:
  4412                           opt subtitle "HI-TECH Software Omniscient Code Generator (Lite mode) build 49521"
  4413                           
  4414  04E4                     l1315:	
  4415  04E4  3000               	movlw	0
  4416  04E5  00F3               	movwf	(?___fttol+3)
  4417  04E6  3000               	movlw	0
  4418  04E7  00F2               	movwf	(?___fttol+2)
  4419  04E8  3000               	movlw	0
  4420  04E9  00F1               	movwf	(?___fttol+1)
  4421  04EA  3000               	movlw	0
  4422  04EB  00F0               	movwf	(?___fttol)
  4423                           opt subtitle "HI-TECH Software Omniscient Code Generator (Lite mode) build 49521"
  4424  04EC  2D76               	goto	l319
  4425                           opt subtitle "HI-TECH Software Omniscient Code Generator (Lite mode) build 49521"
  4426  04ED                     l1317:	
  4427  04ED  2D76               	goto	l319
  4428                           opt subtitle "HI-TECH Software Omniscient Code Generator (Lite mode) build 49521"
  4429  04EE                     l318:	
  4430                           opt subtitle "HI-TECH Software Omniscient Code Generator (Lite mode) build 49521"
  4431                           
  4432  04EE                     l1319:	
  4433  04EE  0870               	movf	(___fttol@f1),w
  4434  04EF  00F4               	movwf	((??___fttol+0)+0)
  4435  04F0  0871               	movf	(___fttol@f1+1),w
  4436  04F1  00F5               	movwf	((??___fttol+0)+0+1)
  4437  04F2  0872               	movf	(___fttol@f1+2),w
  4438  04F3  00F6               	movwf	((??___fttol+0)+0+2)
  4439  04F4  3017               	movlw	017h
  4440  04F5                     u1085:
  4441  04F5  1003               	clrc
  4442  04F6  0CF6               	rrf	(??___fttol+0)+2,f
  4443  04F7  0CF5               	rrf	(??___fttol+0)+1,f
  4444  04F8  0CF4               	rrf	(??___fttol+0)+0,f
  4445  04F9                     u1080:
  4446  04F9  3EFF               	addlw	-1
  4447  04FA  1D03               	skipz
  4448  04FB  2CF5               	goto	u1085
  4449  04FC  0874               	movf	0+(??___fttol+0)+0,w
  4450  04FD  00F7               	movwf	(??___fttol+3)+0
  4451  04FE  0877               	movf	(??___fttol+3)+0,w
  4452  04FF  00F8               	movwf	(___fttol@sign1)
  4453                           opt subtitle "HI-TECH Software Omniscient Code Generator (Lite mode) build 49521"
  4454                           
  4455  0500                     l1321:	
  4456  0500  17F1               	bsf	(___fttol@f1)+(15/8),(15)&7
  4457                           opt subtitle "HI-TECH Software Omniscient Code Generator (Lite mode) build 49521"
  4458                           
  4459  0501                     l1323:	
  4460  0501  30FF               	movlw	0FFh
  4461  0502  05F0               	andwf	(___fttol@f1),f
  4462  0503  30FF               	movlw	0FFh
  4463  0504  05F1               	andwf	(___fttol@f1+1),f
  4464  0505  3000               	movlw	0
  4465  0506  05F2               	andwf	(___fttol@f1+2),f
  4466                           opt subtitle "HI-TECH Software Omniscient Code Generator (Lite mode) build 49521"
  4467                           
  4468  0507                     l1325:	
  4469  0507  0870               	movf	(___fttol@f1),w
  4470  0508  00F9               	movwf	(___fttol@lval)
  4471  0509  0871               	movf	(___fttol@f1+1),w
  4472  050A  00FA               	movwf	((___fttol@lval))+1
  4473  050B  0872               	movf	(___fttol@f1+2),w
  4474  050C  00FB               	movwf	((___fttol@lval))+2
  4475  050D  01FC               	clrf	((___fttol@lval))+3
  4476                           opt subtitle "HI-TECH Software Omniscient Code Generator (Lite mode) build 49521"
  4477                           
  4478  050E                     l1327:	
  4479  050E  308E               	movlw	low(08Eh)
  4480  050F  02FD               	subwf	(___fttol@exp1),f
  4481                           opt subtitle "HI-TECH Software Omniscient Code Generator (Lite mode) build 49521"
  4482                           
  4483  0510                     l1329:	
  4484  0510  1FFD               	btfss	(___fttol@exp1),7
  4485  0511  2D13               	goto	u1091
  4486  0512  2D14               	goto	u1090
  4487  0513                     u1091:
  4488  0513  2D39               	goto	l1339
  4489  0514                     u1090:
  4490                           opt subtitle "HI-TECH Software Omniscient Code Generator (Lite mode) build 49521"
  4491                           
  4492  0514                     l1331:	
  4493  0514  087D               	movf	(___fttol@exp1),w
  4494  0515  3A80               	xorlw	80h
  4495  0516  3E8F               	addlw	-((-15)^80h)
  4496  0517  1803               	skipnc
  4497  0518  2D1A               	goto	u1101
  4498  0519  2D1B               	goto	u1100
  4499  051A                     u1101:
  4500  051A  2D26               	goto	l1337
  4501  051B                     u1100:
  4502                           opt subtitle "HI-TECH Software Omniscient Code Generator (Lite mode) build 49521"
  4503                           
  4504  051B                     l1333:	
  4505  051B  3000               	movlw	0
  4506  051C  00F3               	movwf	(?___fttol+3)
  4507  051D  3000               	movlw	0
  4508  051E  00F2               	movwf	(?___fttol+2)
  4509  051F  3000               	movlw	0
  4510  0520  00F1               	movwf	(?___fttol+1)
  4511  0521  3000               	movlw	0
  4512  0522  00F0               	movwf	(?___fttol)
  4513                           opt subtitle "HI-TECH Software Omniscient Code Generator (Lite mode) build 49521"
  4514  0523  2D76               	goto	l319
  4515                           opt subtitle "HI-TECH Software Omniscient Code Generator (Lite mode) build 49521"
  4516  0524                     l1335:	
  4517  0524  2D76               	goto	l319
  4518                           opt subtitle "HI-TECH Software Omniscient Code Generator (Lite mode) build 49521"
  4519  0525                     l321:	
  4520  0525  2D26               	goto	l1337
  4521                           opt subtitle "HI-TECH Software Omniscient Code Generator (Lite mode) build 49521"
  4522                           
  4523  0526                     l322:	
  4524                           opt subtitle "HI-TECH Software Omniscient Code Generator (Lite mode) build 49521"
  4525                           
  4526  0526                     l1337:	
  4527  0526  3001               	movlw	01h
  4528  0527                     u1115:
  4529  0527  1003               	clrc
  4530  0528  0CFC               	rrf	(___fttol@lval+3),f
  4531  0529  0CFB               	rrf	(___fttol@lval+2),f
  4532  052A  0CFA               	rrf	(___fttol@lval+1),f
  4533  052B  0CF9               	rrf	(___fttol@lval),f
  4534  052C  3EFF               	addlw	-1
  4535  052D  1D03               	skipz
  4536  052E  2D27               	goto	u1115
  4537                           opt subtitle "HI-TECH Software Omniscient Code Generator (Lite mode) build 49521"
  4538                           
  4539  052F  3001               	movlw	(01h)
  4540  0530  00F4               	movwf	(??___fttol+0)+0
  4541  0531  0874               	movf	(??___fttol+0)+0,w
  4542  0532  07FD               	addwf	(___fttol@exp1),f
  4543  0533  1D03               	btfss	status,2
  4544  0534  2D36               	goto	u1121
  4545  0535  2D37               	goto	u1120
  4546  0536                     u1121:
  4547  0536  2D26               	goto	l1337
  4548  0537                     u1120:
  4549  0537  2D5D               	goto	l1349
  4550                           opt subtitle "HI-TECH Software Omniscient Code Generator (Lite mode) build 49521"
  4551  0538                     l323:	
  4552                           opt subtitle "HI-TECH Software Omniscient Code Generator (Lite mode) build 49521"
  4553  0538  2D5D               	goto	l1349
  4554                           opt subtitle "HI-TECH Software Omniscient Code Generator (Lite mode) build 49521"
  4555  0539                     l320:	
  4556                           opt subtitle "HI-TECH Software Omniscient Code Generator (Lite mode) build 49521"
  4557                           
  4558  0539                     l1339:	
  4559  0539  3018               	movlw	(018h)
  4560  053A  027D               	subwf	(___fttol@exp1),w
  4561  053B  1C03               	skipc
  4562  053C  2D3E               	goto	u1131
  4563  053D  2D3F               	goto	u1130
  4564  053E                     u1131:
  4565  053E  2D56               	goto	l1347
  4566  053F                     u1130:
  4567                           opt subtitle "HI-TECH Software Omniscient Code Generator (Lite mode) build 49521"
  4568                           
  4569  053F                     l1341:	
  4570  053F  3000               	movlw	0
  4571  0540  00F3               	movwf	(?___fttol+3)
  4572  0541  3000               	movlw	0
  4573  0542  00F2               	movwf	(?___fttol+2)
  4574  0543  3000               	movlw	0
  4575  0544  00F1               	movwf	(?___fttol+1)
  4576  0545  3000               	movlw	0
  4577  0546  00F0               	movwf	(?___fttol)
  4578                           opt subtitle "HI-TECH Software Omniscient Code Generator (Lite mode) build 49521"
  4579  0547  2D76               	goto	l319
  4580                           opt subtitle "HI-TECH Software Omniscient Code Generator (Lite mode) build 49521"
  4581  0548                     l1343:	
  4582  0548  2D76               	goto	l319
  4583                           opt subtitle "HI-TECH Software Omniscient Code Generator (Lite mode) build 49521"
  4584  0549                     l325:	
  4585                           opt subtitle "HI-TECH Software Omniscient Code Generator (Lite mode) build 49521"
  4586  0549  2D56               	goto	l1347
  4587                           opt subtitle "HI-TECH Software Omniscient Code Generator (Lite mode) build 49521"
  4588  054A                     l327:	
  4589                           opt subtitle "HI-TECH Software Omniscient Code Generator (Lite mode) build 49521"
  4590                           
  4591  054A                     l1345:	
  4592  054A  3001               	movlw	01h
  4593  054B  00F4               	movwf	(??___fttol+0)+0
  4594  054C                     u1145:
  4595  054C  1003               	clrc
  4596  054D  0DF9               	rlf	(___fttol@lval),f
  4597  054E  0DFA               	rlf	(___fttol@lval+1),f
  4598  054F  0DFB               	rlf	(___fttol@lval+2),f
  4599  0550  0DFC               	rlf	(___fttol@lval+3),f
  4600  0551  0BF4               	decfsz	(??___fttol+0)+0
  4601  0552  2D4C               	goto	u1145
  4602                           opt subtitle "HI-TECH Software Omniscient Code Generator (Lite mode) build 49521"
  4603  0553  3001               	movlw	low(01h)
  4604  0554  02FD               	subwf	(___fttol@exp1),f
  4605  0555  2D56               	goto	l1347
  4606                           opt subtitle "HI-TECH Software Omniscient Code Generator (Lite mode) build 49521"
  4607                           
  4608  0556                     l326:	
  4609                           opt subtitle "HI-TECH Software Omniscient Code Generator (Lite mode) build 49521"
  4610                           
  4611  0556                     l1347:	
  4612  0556  08FD               	movf	(___fttol@exp1),f
  4613  0557  1D03               	skipz
  4614  0558  2D5A               	goto	u1151
  4615  0559  2D5B               	goto	u1150
  4616  055A                     u1151:
  4617  055A  2D4A               	goto	l1345
  4618  055B                     u1150:
  4619  055B  2D5D               	goto	l1349
  4620                           opt subtitle "HI-TECH Software Omniscient Code Generator (Lite mode) build 49521"
  4621  055C                     l328:	
  4622  055C  2D5D               	goto	l1349
  4623                           opt subtitle "HI-TECH Software Omniscient Code Generator (Lite mode) build 49521"
  4624                           
  4625  055D                     l324:	
  4626                           opt subtitle "HI-TECH Software Omniscient Code Generator (Lite mode) build 49521"
  4627                           
  4628  055D                     l1349:	
  4629  055D  0878               	movf	(___fttol@sign1),w
  4630  055E  1D03               	skipz
  4631  055F  2D61               	goto	u1160
  4632  0560  2D6D               	goto	l1353
  4633  0561                     u1160:
  4634                           opt subtitle "HI-TECH Software Omniscient Code Generator (Lite mode) build 49521"
  4635                           
  4636  0561                     l1351:	
  4637  0561  09F9               	comf	(___fttol@lval),f
  4638  0562  09FA               	comf	(___fttol@lval+1),f
  4639  0563  09FB               	comf	(___fttol@lval+2),f
  4640  0564  09FC               	comf	(___fttol@lval+3),f
  4641  0565  0AF9               	incf	(___fttol@lval),f
  4642  0566  1903               	skipnz
  4643  0567  0AFA               	incf	(___fttol@lval+1),f
  4644  0568  1903               	skipnz
  4645  0569  0AFB               	incf	(___fttol@lval+2),f
  4646  056A  1903               	skipnz
  4647  056B  0AFC               	incf	(___fttol@lval+3),f
  4648  056C  2D6D               	goto	l1353
  4649                           opt subtitle "HI-TECH Software Omniscient Code Generator (Lite mode) build 49521"
  4650  056D                     l329:	
  4651                           opt subtitle "HI-TECH Software Omniscient Code Generator (Lite mode) build 49521"
  4652                           
  4653  056D                     l1353:	
  4654  056D  087C               	movf	(___fttol@lval+3),w
  4655  056E  00F3               	movwf	(?___fttol+3)
  4656  056F  087B               	movf	(___fttol@lval+2),w
  4657  0570  00F2               	movwf	(?___fttol+2)
  4658  0571  087A               	movf	(___fttol@lval+1),w
  4659  0572  00F1               	movwf	(?___fttol+1)
  4660  0573  0879               	movf	(___fttol@lval),w
  4661  0574  00F0               	movwf	(?___fttol)
  4662                           opt subtitle "HI-TECH Software Omniscient Code Generator (Lite mode) build 49521"
  4663  0575  2D76               	goto	l319
  4664                           opt subtitle "HI-TECH Software Omniscient Code Generator (Lite mode) build 49521"
  4665  0576                     l1355:	
  4666                           opt subtitle "HI-TECH Software Omniscient Code Generator (Lite mode) build 49521"
  4667                           
  4668  0576                     l319:	
  4669  0576  0008               	return
  4670                           opt subtitle "HI-TECH Software Omniscient Code Generator (Lite mode) build 49521"
  4671                           
  4672  0577                     	__end_of___fttol:
  4673                           opt subtitle "HI-TECH Software Omniscient Code Generator (Lite mode) build 49521"
  4674                           
  4675                           opt pagewidth 120
  4676                           
  4677                           	opt lm
  4678                           
  4679                           	processor	16F877A
  4680                           clrc	macro
  4681                           	bcf	3,0
  4682                           	endm
  4683                           clrz	macro
  4684                           	bcf	3,2
  4685                           	endm
  4686                           setc	macro
  4687                           	bsf	3,0
  4688                           	endm
  4689                           setz	macro
  4690                           	bsf	3,2
  4691                           	endm
  4692                           skipc	macro
  4693                           	btfss	3,0
  4694                           	endm
  4695                           skipz	macro
  4696                           	btfss	3,2
  4697                           	endm
  4698                           skipnc	macro
  4699                           	btfsc	3,0
  4700                           	endm
  4701                           skipnz	macro
  4702                           	btfsc	3,2
  4703                           	endm
  4704                           indf	equ	0
  4705                           indf0	equ	0
  4706                           pc	equ	2
  4707                           pcl	equ	2
  4708                           status	equ	3
  4709  02E0                     __ptext362:	;psect for function ___awdiv
  4710                           opt subtitle "HI-TECH Software Omniscient Code Generator (Lite mode) build 49521"
  4711                           
  4712                           opt pagewidth 120
  4713                           
  4714  0072                     	__size_of___awdiv	equ	__end_of___awdiv-___awdiv
  4715                           opt subtitle "HI-TECH Software Omniscient Code Generator (Lite mode) build 49521"
  4716  02E0                     ___awdiv:	
  4717                           opt subtitle "HI-TECH Software Omniscient Code Generator (Lite mode) build 49521"
  4718                           
  4719                           opt pagewidth 120
  4720                           
  4721  02E0                     l1357:	
  4722  02E0  01F6               	clrf	(___awdiv@sign)
  4723                           opt subtitle "HI-TECH Software Omniscient Code Generator (Lite mode) build 49521"
  4724  02E1  1FF1               	btfss	(___awdiv@divisor+1),7
  4725  02E2  2AE4               	goto	u1171
  4726  02E3  2AE5               	goto	u1170
  4727  02E4                     u1171:
  4728  02E4  2AED               	goto	l1363
  4729  02E5                     u1170:
  4730                           opt subtitle "HI-TECH Software Omniscient Code Generator (Lite mode) build 49521"
  4731                           
  4732  02E5                     l1359:	
  4733  02E5  09F0               	comf	(___awdiv@divisor),f
  4734  02E6  09F1               	comf	(___awdiv@divisor+1),f
  4735  02E7  0AF0               	incf	(___awdiv@divisor),f
  4736  02E8  1903               	skipnz
  4737  02E9  0AF1               	incf	(___awdiv@divisor+1),f
  4738                           opt subtitle "HI-TECH Software Omniscient Code Generator (Lite mode) build 49521"
  4739                           
  4740  02EA                     l1361:	
  4741  02EA  01F6               	clrf	(___awdiv@sign)
  4742  02EB  0AF6               	incf	(___awdiv@sign),f
  4743  02EC  2AED               	goto	l1363
  4744                           opt subtitle "HI-TECH Software Omniscient Code Generator (Lite mode) build 49521"
  4745                           
  4746  02ED                     l349:	
  4747                           opt subtitle "HI-TECH Software Omniscient Code Generator (Lite mode) build 49521"
  4748                           
  4749  02ED                     l1363:	
  4750  02ED  1FF3               	btfss	(___awdiv@dividend+1),7
  4751  02EE  2AF0               	goto	u1181
  4752  02EF  2AF1               	goto	u1180
  4753  02F0                     u1181:
  4754  02F0  2AFB               	goto	l1369
  4755  02F1                     u1180:
  4756                           opt subtitle "HI-TECH Software Omniscient Code Generator (Lite mode) build 49521"
  4757                           
  4758  02F1                     l1365:	
  4759  02F1  09F2               	comf	(___awdiv@dividend),f
  4760  02F2  09F3               	comf	(___awdiv@dividend+1),f
  4761  02F3  0AF2               	incf	(___awdiv@dividend),f
  4762  02F4  1903               	skipnz
  4763  02F5  0AF3               	incf	(___awdiv@dividend+1),f
  4764                           opt subtitle "HI-TECH Software Omniscient Code Generator (Lite mode) build 49521"
  4765                           
  4766  02F6                     l1367:	
  4767  02F6  3001               	movlw	(01h)
  4768  02F7  00F4               	movwf	(??___awdiv+0)+0
  4769  02F8  0874               	movf	(??___awdiv+0)+0,w
  4770  02F9  06F6               	xorwf	(___awdiv@sign),f
  4771  02FA  2AFB               	goto	l1369
  4772                           opt subtitle "HI-TECH Software Omniscient Code Generator (Lite mode) build 49521"
  4773                           
  4774  02FB                     l350:	
  4775                           opt subtitle "HI-TECH Software Omniscient Code Generator (Lite mode) build 49521"
  4776                           
  4777  02FB                     l1369:	
  4778  02FB  01F7               	clrf	(___awdiv@quotient)
  4779  02FC  01F8               	clrf	(___awdiv@quotient+1)
  4780                           opt subtitle "HI-TECH Software Omniscient Code Generator (Lite mode) build 49521"
  4781                           
  4782  02FD                     l1371:	
  4783  02FD  0871               	movf	(___awdiv@divisor+1),w
  4784  02FE  0470               	iorwf	(___awdiv@divisor),w
  4785  02FF  1903               	skipnz
  4786  0300  2B02               	goto	u1191
  4787  0301  2B03               	goto	u1190
  4788  0302                     u1191:
  4789  0302  2B40               	goto	l1391
  4790  0303                     u1190:
  4791                           opt subtitle "HI-TECH Software Omniscient Code Generator (Lite mode) build 49521"
  4792                           
  4793  0303                     l1373:	
  4794  0303  01F5               	clrf	(___awdiv@counter)
  4795  0304  0AF5               	incf	(___awdiv@counter),f
  4796                           opt subtitle "HI-TECH Software Omniscient Code Generator (Lite mode) build 49521"
  4797  0305  2B12               	goto	l1379
  4798                           opt subtitle "HI-TECH Software Omniscient Code Generator (Lite mode) build 49521"
  4799  0306                     l353:	
  4800                           opt subtitle "HI-TECH Software Omniscient Code Generator (Lite mode) build 49521"
  4801                           
  4802  0306                     l1375:	
  4803  0306  3001               	movlw	01h
  4804                           opt subtitle "HI-TECH Software Omniscient Code Generator (Lite mode) build 49521"
  4805  0307                     u1205:
  4806  0307  1003               	clrc
  4807  0308  0DF0               	rlf	(___awdiv@divisor),f
  4808  0309  0DF1               	rlf	(___awdiv@divisor+1),f
  4809  030A  3EFF               	addlw	-1
  4810  030B  1D03               	skipz
  4811  030C  2B07               	goto	u1205
  4812                           opt subtitle "HI-TECH Software Omniscient Code Generator (Lite mode) build 49521"
  4813                           
  4814  030D                     l1377:	
  4815  030D  3001               	movlw	(01h)
  4816  030E  00F4               	movwf	(??___awdiv+0)+0
  4817  030F  0874               	movf	(??___awdiv+0)+0,w
  4818  0310  07F5               	addwf	(___awdiv@counter),f
  4819  0311  2B12               	goto	l1379
  4820                           opt subtitle "HI-TECH Software Omniscient Code Generator (Lite mode) build 49521"
  4821                           
  4822  0312                     l352:	
  4823                           opt subtitle "HI-TECH Software Omniscient Code Generator (Lite mode) build 49521"
  4824                           
  4825  0312                     l1379:	
  4826  0312  1FF1               	btfss	(___awdiv@divisor+1),(15)&7
  4827  0313  2B15               	goto	u1211
  4828  0314  2B16               	goto	u1210
  4829  0315                     u1211:
  4830  0315  2B06               	goto	l1375
  4831  0316                     u1210:
  4832  0316  2B18               	goto	l1381
  4833                           opt subtitle "HI-TECH Software Omniscient Code Generator (Lite mode) build 49521"
  4834  0317                     l354:	
  4835  0317  2B18               	goto	l1381
  4836                           opt subtitle "HI-TECH Software Omniscient Code Generator (Lite mode) build 49521"
  4837                           
  4838  0318                     l355:	
  4839                           opt subtitle "HI-TECH Software Omniscient Code Generator (Lite mode) build 49521"
  4840                           
  4841  0318                     l1381:	
  4842  0318  3001               	movlw	01h
  4843                           opt subtitle "HI-TECH Software Omniscient Code Generator (Lite mode) build 49521"
  4844  0319                     u1225:
  4845  0319  1003               	clrc
  4846  031A  0DF7               	rlf	(___awdiv@quotient),f
  4847  031B  0DF8               	rlf	(___awdiv@quotient+1),f
  4848  031C  3EFF               	addlw	-1
  4849  031D  1D03               	skipz
  4850  031E  2B19               	goto	u1225
  4851                           opt subtitle "HI-TECH Software Omniscient Code Generator (Lite mode) build 49521"
  4852  031F  0871               	movf	(___awdiv@divisor+1),w
  4853  0320  0273               	subwf	(___awdiv@dividend+1),w
  4854  0321  1D03               	skipz
  4855  0322  2B25               	goto	u1235
  4856  0323  0870               	movf	(___awdiv@divisor),w
  4857  0324  0272               	subwf	(___awdiv@dividend),w
  4858  0325                     u1235:
  4859  0325  1C03               	skipc
  4860  0326  2B28               	goto	u1231
  4861  0327  2B29               	goto	u1230
  4862  0328                     u1231:
  4863  0328  2B31               	goto	l1387
  4864  0329                     u1230:
  4865                           opt subtitle "HI-TECH Software Omniscient Code Generator (Lite mode) build 49521"
  4866                           
  4867  0329                     l1383:	
  4868  0329  0870               	movf	(___awdiv@divisor),w
  4869  032A  02F2               	subwf	(___awdiv@dividend),f
  4870  032B  0871               	movf	(___awdiv@divisor+1),w
  4871  032C  1C03               	skipc
  4872  032D  03F3               	decf	(___awdiv@dividend+1),f
  4873  032E  02F3               	subwf	(___awdiv@dividend+1),f
  4874                           opt subtitle "HI-TECH Software Omniscient Code Generator (Lite mode) build 49521"
  4875                           
  4876  032F                     l1385:	
  4877  032F  1477               	bsf	(___awdiv@quotient)+(0/8),(0)&7
  4878  0330  2B31               	goto	l1387
  4879                           opt subtitle "HI-TECH Software Omniscient Code Generator (Lite mode) build 49521"
  4880                           
  4881  0331                     l356:	
  4882                           opt subtitle "HI-TECH Software Omniscient Code Generator (Lite mode) build 49521"
  4883                           
  4884  0331                     l1387:	
  4885  0331  3001               	movlw	01h
  4886                           opt subtitle "HI-TECH Software Omniscient Code Generator (Lite mode) build 49521"
  4887  0332                     u1245:
  4888  0332  1003               	clrc
  4889  0333  0CF1               	rrf	(___awdiv@divisor+1),f
  4890  0334  0CF0               	rrf	(___awdiv@divisor),f
  4891  0335  3EFF               	addlw	-1
  4892  0336  1D03               	skipz
  4893  0337  2B32               	goto	u1245
  4894                           opt subtitle "HI-TECH Software Omniscient Code Generator (Lite mode) build 49521"
  4895                           
  4896  0338                     l1389:	
  4897  0338  3001               	movlw	low(01h)
  4898  0339  02F5               	subwf	(___awdiv@counter),f
  4899  033A  1D03               	btfss	status,2
  4900  033B  2B3D               	goto	u1251
  4901  033C  2B3E               	goto	u1250
  4902  033D                     u1251:
  4903  033D  2B18               	goto	l1381
  4904  033E                     u1250:
  4905  033E  2B40               	goto	l1391
  4906                           opt subtitle "HI-TECH Software Omniscient Code Generator (Lite mode) build 49521"
  4907  033F                     l357:	
  4908  033F  2B40               	goto	l1391
  4909                           opt subtitle "HI-TECH Software Omniscient Code Generator (Lite mode) build 49521"
  4910                           
  4911  0340                     l351:	
  4912                           opt subtitle "HI-TECH Software Omniscient Code Generator (Lite mode) build 49521"
  4913                           
  4914  0340                     l1391:	
  4915  0340  0876               	movf	(___awdiv@sign),w
  4916  0341  1D03               	skipz
  4917  0342  2B44               	goto	u1260
  4918  0343  2B4A               	goto	l1395
  4919  0344                     u1260:
  4920                           opt subtitle "HI-TECH Software Omniscient Code Generator (Lite mode) build 49521"
  4921                           
  4922  0344                     l1393:	
  4923  0344  09F7               	comf	(___awdiv@quotient),f
  4924  0345  09F8               	comf	(___awdiv@quotient+1),f
  4925  0346  0AF7               	incf	(___awdiv@quotient),f
  4926  0347  1903               	skipnz
  4927  0348  0AF8               	incf	(___awdiv@quotient+1),f
  4928  0349  2B4A               	goto	l1395
  4929                           opt subtitle "HI-TECH Software Omniscient Code Generator (Lite mode) build 49521"
  4930  034A                     l358:	
  4931                           opt subtitle "HI-TECH Software Omniscient Code Generator (Lite mode) build 49521"
  4932                           
  4933  034A                     l1395:	
  4934  034A  0878               	movf	(___awdiv@quotient+1),w
  4935  034B  01F1               	clrf	(?___awdiv+1)
  4936  034C  07F1               	addwf	(?___awdiv+1)
  4937  034D  0877               	movf	(___awdiv@quotient),w
  4938  034E  01F0               	clrf	(?___awdiv)
  4939  034F  07F0               	addwf	(?___awdiv)
  4940                           opt subtitle "HI-TECH Software Omniscient Code Generator (Lite mode) build 49521"
  4941  0350  2B51               	goto	l359
  4942                           opt subtitle "HI-TECH Software Omniscient Code Generator (Lite mode) build 49521"
  4943  0351                     l1397:	
  4944                           opt subtitle "HI-TECH Software Omniscient Code Generator (Lite mode) build 49521"
  4945                           
  4946  0351                     l359:	
  4947  0351  0008               	return
  4948                           opt subtitle "HI-TECH Software Omniscient Code Generator (Lite mode) build 49521"
  4949                           
  4950  0352                     	__end_of___awdiv:
  4951                           opt subtitle "HI-TECH Software Omniscient Code Generator (Lite mode) build 49521"
  4952                           
  4953                           opt pagewidth 120
  4954                           
  4955                           	opt lm
  4956                           
  4957                           	processor	16F877A
  4958                           clrc	macro
  4959                           	bcf	3,0
  4960                           	endm
  4961                           clrz	macro
  4962                           	bcf	3,2
  4963                           	endm
  4964                           setc	macro
  4965                           	bsf	3,0
  4966                           	endm
  4967                           setz	macro
  4968                           	bsf	3,2
  4969                           	endm
  4970                           skipc	macro
  4971                           	btfss	3,0
  4972                           	endm
  4973                           skipz	macro
  4974                           	btfss	3,2
  4975                           	endm
  4976                           skipnc	macro
  4977                           	btfsc	3,0
  4978                           	endm
  4979                           skipnz	macro
  4980                           	btfsc	3,2
  4981                           	endm
  4982                           indf	equ	0
  4983                           indf0	equ	0
  4984                           pc	equ	2
  4985                           pcl	equ	2
  4986  01A9                     __ptext363:	;psect for function ___awmod
  4987                           opt subtitle "HI-TECH Software Omniscient Code Generator (Lite mode) build 49521"
  4988                           
  4989                           opt pagewidth 120
  4990                           
  4991  0064                     	__size_of___awmod	equ	__end_of___awmod-___awmod
  4992                           opt subtitle "HI-TECH Software Omniscient Code Generator (Lite mode) build 49521"
  4993  01A9                     ___awmod:	
  4994                           opt subtitle "HI-TECH Software Omniscient Code Generator (Lite mode) build 49521"
  4995                           
  4996                           opt pagewidth 120
  4997                           
  4998  01A9                     l1399:	
  4999  01A9  01F6               	clrf	(___awmod@sign)
  5000                           opt subtitle "HI-TECH Software Omniscient Code Generator (Lite mode) build 49521"
  5001  01AA  1FF3               	btfss	(___awmod@dividend+1),7
  5002  01AB  29AD               	goto	u1271
  5003  01AC  29AE               	goto	u1270
  5004  01AD                     u1271:
  5005  01AD  29B6               	goto	l1405
  5006  01AE                     u1270:
  5007                           opt subtitle "HI-TECH Software Omniscient Code Generator (Lite mode) build 49521"
  5008                           
  5009  01AE                     l1401:	
  5010  01AE  09F2               	comf	(___awmod@dividend),f
  5011  01AF  09F3               	comf	(___awmod@dividend+1),f
  5012  01B0  0AF2               	incf	(___awmod@dividend),f
  5013  01B1  1903               	skipnz
  5014  01B2  0AF3               	incf	(___awmod@dividend+1),f
  5015                           opt subtitle "HI-TECH Software Omniscient Code Generator (Lite mode) build 49521"
  5016                           
  5017  01B3                     l1403:	
  5018  01B3  01F6               	clrf	(___awmod@sign)
  5019  01B4  0AF6               	incf	(___awmod@sign),f
  5020  01B5  29B6               	goto	l1405
  5021                           opt subtitle "HI-TECH Software Omniscient Code Generator (Lite mode) build 49521"
  5022                           
  5023  01B6                     l417:	
  5024                           opt subtitle "HI-TECH Software Omniscient Code Generator (Lite mode) build 49521"
  5025                           
  5026  01B6                     l1405:	
  5027  01B6  1FF1               	btfss	(___awmod@divisor+1),7
  5028  01B7  29B9               	goto	u1281
  5029  01B8  29BA               	goto	u1280
  5030  01B9                     u1281:
  5031  01B9  29C0               	goto	l1409
  5032  01BA                     u1280:
  5033                           opt subtitle "HI-TECH Software Omniscient Code Generator (Lite mode) build 49521"
  5034                           
  5035  01BA                     l1407:	
  5036  01BA  09F0               	comf	(___awmod@divisor),f
  5037  01BB  09F1               	comf	(___awmod@divisor+1),f
  5038  01BC  0AF0               	incf	(___awmod@divisor),f
  5039  01BD  1903               	skipnz
  5040  01BE  0AF1               	incf	(___awmod@divisor+1),f
  5041  01BF  29C0               	goto	l1409
  5042                           opt subtitle "HI-TECH Software Omniscient Code Generator (Lite mode) build 49521"
  5043  01C0                     l418:	
  5044                           opt subtitle "HI-TECH Software Omniscient Code Generator (Lite mode) build 49521"
  5045                           
  5046  01C0                     l1409:	
  5047  01C0  0871               	movf	(___awmod@divisor+1),w
  5048  01C1  0470               	iorwf	(___awmod@divisor),w
  5049  01C2  1903               	skipnz
  5050  01C3  29C5               	goto	u1291
  5051  01C4  29C6               	goto	u1290
  5052  01C5                     u1291:
  5053  01C5  29FB               	goto	l1427
  5054  01C6                     u1290:
  5055                           opt subtitle "HI-TECH Software Omniscient Code Generator (Lite mode) build 49521"
  5056                           
  5057  01C6                     l1411:	
  5058  01C6  01F5               	clrf	(___awmod@counter)
  5059  01C7  0AF5               	incf	(___awmod@counter),f
  5060                           opt subtitle "HI-TECH Software Omniscient Code Generator (Lite mode) build 49521"
  5061  01C8  29D5               	goto	l1417
  5062                           opt subtitle "HI-TECH Software Omniscient Code Generator (Lite mode) build 49521"
  5063  01C9                     l421:	
  5064                           opt subtitle "HI-TECH Software Omniscient Code Generator (Lite mode) build 49521"
  5065                           
  5066  01C9                     l1413:	
  5067  01C9  3001               	movlw	01h
  5068                           opt subtitle "HI-TECH Software Omniscient Code Generator (Lite mode) build 49521"
  5069  01CA                     u1305:
  5070  01CA  1003               	clrc
  5071  01CB  0DF0               	rlf	(___awmod@divisor),f
  5072  01CC  0DF1               	rlf	(___awmod@divisor+1),f
  5073  01CD  3EFF               	addlw	-1
  5074  01CE  1D03               	skipz
  5075  01CF  29CA               	goto	u1305
  5076                           opt subtitle "HI-TECH Software Omniscient Code Generator (Lite mode) build 49521"
  5077                           
  5078  01D0                     l1415:	
  5079  01D0  3001               	movlw	(01h)
  5080  01D1  00F4               	movwf	(??___awmod+0)+0
  5081  01D2  0874               	movf	(??___awmod+0)+0,w
  5082  01D3  07F5               	addwf	(___awmod@counter),f
  5083  01D4  29D5               	goto	l1417
  5084                           opt subtitle "HI-TECH Software Omniscient Code Generator (Lite mode) build 49521"
  5085                           
  5086  01D5                     l420:	
  5087                           opt subtitle "HI-TECH Software Omniscient Code Generator (Lite mode) build 49521"
  5088                           
  5089  01D5                     l1417:	
  5090  01D5  1FF1               	btfss	(___awmod@divisor+1),(15)&7
  5091  01D6  29D8               	goto	u1311
  5092  01D7  29D9               	goto	u1310
  5093  01D8                     u1311:
  5094  01D8  29C9               	goto	l1413
  5095  01D9                     u1310:
  5096  01D9  29DB               	goto	l1419
  5097                           opt subtitle "HI-TECH Software Omniscient Code Generator (Lite mode) build 49521"
  5098  01DA                     l422:	
  5099  01DA  29DB               	goto	l1419
  5100                           opt subtitle "HI-TECH Software Omniscient Code Generator (Lite mode) build 49521"
  5101                           
  5102  01DB                     l423:	
  5103                           opt subtitle "HI-TECH Software Omniscient Code Generator (Lite mode) build 49521"
  5104                           
  5105  01DB                     l1419:	
  5106  01DB  0871               	movf	(___awmod@divisor+1),w
  5107  01DC  0273               	subwf	(___awmod@dividend+1),w
  5108  01DD  1D03               	skipz
  5109  01DE  29E1               	goto	u1325
  5110  01DF  0870               	movf	(___awmod@divisor),w
  5111  01E0  0272               	subwf	(___awmod@dividend),w
  5112  01E1                     u1325:
  5113  01E1  1C03               	skipc
  5114  01E2  29E4               	goto	u1321
  5115  01E3  29E5               	goto	u1320
  5116  01E4                     u1321:
  5117  01E4  29EC               	goto	l1423
  5118  01E5                     u1320:
  5119                           opt subtitle "HI-TECH Software Omniscient Code Generator (Lite mode) build 49521"
  5120                           
  5121  01E5                     l1421:	
  5122  01E5  0870               	movf	(___awmod@divisor),w
  5123  01E6  02F2               	subwf	(___awmod@dividend),f
  5124  01E7  0871               	movf	(___awmod@divisor+1),w
  5125  01E8  1C03               	skipc
  5126  01E9  03F3               	decf	(___awmod@dividend+1),f
  5127  01EA  02F3               	subwf	(___awmod@dividend+1),f
  5128  01EB  29EC               	goto	l1423
  5129                           opt subtitle "HI-TECH Software Omniscient Code Generator (Lite mode) build 49521"
  5130  01EC                     l424:	
  5131                           opt subtitle "HI-TECH Software Omniscient Code Generator (Lite mode) build 49521"
  5132                           
  5133  01EC                     l1423:	
  5134  01EC  3001               	movlw	01h
  5135                           opt subtitle "HI-TECH Software Omniscient Code Generator (Lite mode) build 49521"
  5136  01ED                     u1335:
  5137  01ED  1003               	clrc
  5138  01EE  0CF1               	rrf	(___awmod@divisor+1),f
  5139  01EF  0CF0               	rrf	(___awmod@divisor),f
  5140  01F0  3EFF               	addlw	-1
  5141  01F1  1D03               	skipz
  5142  01F2  29ED               	goto	u1335
  5143                           opt subtitle "HI-TECH Software Omniscient Code Generator (Lite mode) build 49521"
  5144                           
  5145  01F3                     l1425:	
  5146  01F3  3001               	movlw	low(01h)
  5147  01F4  02F5               	subwf	(___awmod@counter),f
  5148  01F5  1D03               	btfss	status,2
  5149  01F6  29F8               	goto	u1341
  5150  01F7  29F9               	goto	u1340
  5151  01F8                     u1341:
  5152  01F8  29DB               	goto	l1419
  5153  01F9                     u1340:
  5154  01F9  29FB               	goto	l1427
  5155                           opt subtitle "HI-TECH Software Omniscient Code Generator (Lite mode) build 49521"
  5156  01FA                     l425:	
  5157  01FA  29FB               	goto	l1427
  5158                           opt subtitle "HI-TECH Software Omniscient Code Generator (Lite mode) build 49521"
  5159                           
  5160  01FB                     l419:	
  5161                           opt subtitle "HI-TECH Software Omniscient Code Generator (Lite mode) build 49521"
  5162                           
  5163  01FB                     l1427:	
  5164  01FB  0876               	movf	(___awmod@sign),w
  5165  01FC  1D03               	skipz
  5166  01FD  29FF               	goto	u1350
  5167  01FE  2A05               	goto	l1431
  5168  01FF                     u1350:
  5169                           opt subtitle "HI-TECH Software Omniscient Code Generator (Lite mode) build 49521"
  5170                           
  5171  01FF                     l1429:	
  5172  01FF  09F2               	comf	(___awmod@dividend),f
  5173  0200  09F3               	comf	(___awmod@dividend+1),f
  5174  0201  0AF2               	incf	(___awmod@dividend),f
  5175  0202  1903               	skipnz
  5176  0203  0AF3               	incf	(___awmod@dividend+1),f
  5177  0204  2A05               	goto	l1431
  5178                           opt subtitle "HI-TECH Software Omniscient Code Generator (Lite mode) build 49521"
  5179  0205                     l426:	
  5180                           opt subtitle "HI-TECH Software Omniscient Code Generator (Lite mode) build 49521"
  5181                           
  5182  0205                     l1431:	
  5183  0205  0873               	movf	(___awmod@dividend+1),w
  5184  0206  01F1               	clrf	(?___awmod+1)
  5185  0207  07F1               	addwf	(?___awmod+1)
  5186  0208  0872               	movf	(___awmod@dividend),w
  5187  0209  01F0               	clrf	(?___awmod)
  5188  020A  07F0               	addwf	(?___awmod)
  5189                           opt subtitle "HI-TECH Software Omniscient Code Generator (Lite mode) build 49521"
  5190  020B  2A0C               	goto	l427
  5191                           opt subtitle "HI-TECH Software Omniscient Code Generator (Lite mode) build 49521"
  5192  020C                     l1433:	
  5193                           opt subtitle "HI-TECH Software Omniscient Code Generator (Lite mode) build 49521"
  5194                           
  5195  020C                     l427:	
  5196  020C  0008               	return
  5197                           opt subtitle "HI-TECH Software Omniscient Code Generator (Lite mode) build 49521"
  5198                           
  5199  020D                     	__end_of___awmod:
  5200                           opt subtitle "HI-TECH Software Omniscient Code Generator (Lite mode) build 49521"
  5201                           
  5202                           opt pagewidth 120
  5203                           
  5204                           	opt lm
  5205                           
  5206                           	processor	16F877A
  5207                           clrc	macro
  5208                           	bcf	3,0
  5209                           	endm
  5210                           clrz	macro
  5211                           	bcf	3,2
  5212                           	endm
  5213                           setc	macro
  5214                           	bsf	3,0
  5215                           	endm
  5216                           setz	macro
  5217                           	bsf	3,2
  5218                           	endm
  5219                           skipc	macro
  5220                           	btfss	3,0
  5221                           	endm
  5222                           skipz	macro
  5223                           	btfss	3,2
  5224                           	endm
  5225                           skipnc	macro
  5226                           	btfsc	3,0
  5227                           	endm
  5228                           skipnz	macro
  5229                           	btfsc	3,2
  5230                           	endm
  5231                           indf	equ	0
  5232                           indf0	equ	0
  5233                           pc	equ	2
  5234  0FD2                     __ptext364:	;psect for function ___lwtoft
  5235                           opt subtitle "HI-TECH Software Omniscient Code Generator (Lite mode) build 49521"
  5236                           
  5237                           opt pagewidth 120
  5238                           
  5239  0017                     	__size_of___lwtoft	equ	__end_of___lwtoft-___lwtoft
  5240                           opt subtitle "HI-TECH Software Omniscient Code Generator (Lite mode) build 49521"
  5241  0FD2                     ___lwtoft:	
  5242                           opt subtitle "HI-TECH Software Omniscient Code Generator (Lite mode) build 49521"
  5243                           
  5244                           opt pagewidth 120
  5245                           
  5246  0FD2                     l1495:	
  5247  0FD2  0878               	movf	(___lwtoft@c),w
  5248  0FD3  00F0               	movwf	(?___ftpack)
  5249  0FD4  0879               	movf	(___lwtoft@c+1),w
  5250  0FD5  00F1               	movwf	(?___ftpack+1)
  5251  0FD6  01F2               	clrf	(?___ftpack+2)
  5252  0FD7  308E               	movlw	(08Eh)
  5253  0FD8  00FB               	movwf	(??___lwtoft+0)+0
  5254  0FD9  087B               	movf	(??___lwtoft+0)+0,w
  5255  0FDA  00F3               	movwf	0+(?___ftpack)+03h
  5256  0FDB  01F4               	clrf	0+(?___ftpack)+04h
  5257  0FDC  120A  118A  23C5   	fcall	___ftpack
              120A  158A         
  5258  0FE1  0870               	movf	(0+(?___ftpack)),w
  5259  0FE2  00F8               	movwf	(?___lwtoft)
  5260  0FE3  0871               	movf	(1+(?___ftpack)),w
  5261  0FE4  00F9               	movwf	(?___lwtoft+1)
  5262  0FE5  0872               	movf	(2+(?___ftpack)),w
  5263  0FE6  00FA               	movwf	(?___lwtoft+2)
  5264  0FE7  2FE8               	goto	l432
  5265                           opt subtitle "HI-TECH Software Omniscient Code Generator (Lite mode) build 49521"
  5266  0FE8                     l1497:	
  5267                           opt subtitle "HI-TECH Software Omniscient Code Generator (Lite mode) build 49521"
  5268                           
  5269  0FE8                     l432:	
  5270  0FE8  0008               	return
  5271                           opt subtitle "HI-TECH Software Omniscient Code Generator (Lite mode) build 49521"
  5272                           
  5273  0FE9                     	__end_of___lwtoft:
  5274                           opt subtitle "HI-TECH Software Omniscient Code Generator (Lite mode) build 49521"
  5275                           
  5276                           opt pagewidth 120
  5277                           
  5278                           	opt lm
  5279                           
  5280                           	processor	16F877A
  5281                           clrc	macro
  5282                           	bcf	3,0
  5283                           	endm
  5284                           clrz	macro
  5285                           	bcf	3,2
  5286                           	endm
  5287                           setc	macro
  5288                           	bsf	3,0
  5289                           	endm
  5290                           setz	macro
  5291                           	bsf	3,2
  5292                           	endm
  5293                           skipc	macro
  5294                           	btfss	3,0
  5295                           	endm
  5296                           skipz	macro
  5297                           	btfss	3,2
  5298                           	endm
  5299                           skipnc	macro
  5300                           	btfsc	3,0
  5301                           	endm
  5302                           skipnz	macro
  5303                           	btfsc	3,2
  5304                           	endm
  5305                           indf	equ	0
  5306                           indf0	equ	0
  5307                           pc	equ	2
  5308                           pcl	equ	2
  5309                           status	equ	3
  5310                           fsr	equ	4
  5311  03C5                     __ptext365:	;psect for function ___ftpack
  5312                           opt subtitle "HI-TECH Software Omniscient Code Generator (Lite mode) build 49521"
  5313                           
  5314                           opt pagewidth 120
  5315                           
  5316  007B                     	__size_of___ftpack	equ	__end_of___ftpack-___ftpack
  5317                           opt subtitle "HI-TECH Software Omniscient Code Generator (Lite mode) build 49521"
  5318  03C5                     ___ftpack:	
  5319                           opt subtitle "HI-TECH Software Omniscient Code Generator (Lite mode) build 49521"
  5320                           
  5321                           opt pagewidth 120
  5322                           
  5323  03C5                     l1283:	
  5324  03C5  0873               	movf	(___ftpack@exp),w
  5325  03C6  1D03               	skipz
  5326  03C7  2BC9               	goto	u960
  5327  03C8  2BD1               	goto	l1287
  5328  03C9                     u960:
  5329                           opt subtitle "HI-TECH Software Omniscient Code Generator (Lite mode) build 49521"
  5330  03C9                     l1285:	
  5331  03C9  0872               	movf	(___ftpack@arg+2),w
  5332  03CA  0471               	iorwf	(___ftpack@arg+1),w
  5333  03CB  0470               	iorwf	(___ftpack@arg),w
  5334  03CC  1D03               	skipz
  5335  03CD  2BCF               	goto	u971
  5336  03CE  2BD0               	goto	u970
  5337  03CF                     u971:
  5338  03CF  2BE7               	goto	l1293
  5339  03D0                     u970:
  5340  03D0  2BD1               	goto	l1287
  5341                           opt subtitle "HI-TECH Software Omniscient Code Generator (Lite mode) build 49521"
  5342  03D1                     l543:	
  5343                           opt subtitle "HI-TECH Software Omniscient Code Generator (Lite mode) build 49521"
  5344                           
  5345  03D1                     l1287:	
  5346  03D1  3000               	movlw	0x0
  5347  03D2  00F0               	movwf	(?___ftpack)
  5348  03D3  3000               	movlw	0x0
  5349  03D4  00F1               	movwf	(?___ftpack+1)
  5350  03D5  3000               	movlw	0x0
  5351  03D6  00F2               	movwf	(?___ftpack+2)
  5352  03D7  2C3F               	goto	l544
  5353                           opt subtitle "HI-TECH Software Omniscient Code Generator (Lite mode) build 49521"
  5354  03D8                     l1289:	
  5355  03D8  2C3F               	goto	l544
  5356                           opt subtitle "HI-TECH Software Omniscient Code Generator (Lite mode) build 49521"
  5357  03D9                     l541:	
  5358                           opt subtitle "HI-TECH Software Omniscient Code Generator (Lite mode) build 49521"
  5359  03D9  2BE7               	goto	l1293
  5360                           opt subtitle "HI-TECH Software Omniscient Code Generator (Lite mode) build 49521"
  5361  03DA                     l546:	
  5362                           opt subtitle "HI-TECH Software Omniscient Code Generator (Lite mode) build 49521"
  5363                           
  5364  03DA                     l1291:	
  5365  03DA  3001               	movlw	(01h)
  5366  03DB  00F5               	movwf	(??___ftpack+0)+0
  5367  03DC  0875               	movf	(??___ftpack+0)+0,w
  5368  03DD  07F3               	addwf	(___ftpack@exp),f
  5369                           opt subtitle "HI-TECH Software Omniscient Code Generator (Lite mode) build 49521"
  5370  03DE  3001               	movlw	01h
  5371  03DF                     u985:
  5372  03DF  1003               	clrc
  5373  03E0  0CF2               	rrf	(___ftpack@arg+2),f
  5374  03E1  0CF1               	rrf	(___ftpack@arg+1),f
  5375  03E2  0CF0               	rrf	(___ftpack@arg),f
  5376  03E3  3EFF               	addlw	-1
  5377  03E4  1D03               	skipz
  5378  03E5  2BDF               	goto	u985
  5379                           opt subtitle "HI-TECH Software Omniscient Code Generator (Lite mode) build 49521"
  5380  03E6  2BE7               	goto	l1293
  5381                           opt subtitle "HI-TECH Software Omniscient Code Generator (Lite mode) build 49521"
  5382                           
  5383  03E7                     l545:	
  5384                           opt subtitle "HI-TECH Software Omniscient Code Generator (Lite mode) build 49521"
  5385                           
  5386  03E7                     l1293:	
  5387  03E7  30FE               	movlw	low highword(0FE0000h)
  5388  03E8  0572               	andwf	(___ftpack@arg+2),w
  5389  03E9  1D03               	btfss	status,2
  5390  03EA  2BEC               	goto	u991
  5391  03EB  2BED               	goto	u990
  5392  03EC                     u991:
  5393  03EC  2BDA               	goto	l1291
  5394  03ED                     u990:
  5395  03ED  2C05               	goto	l548
  5396                           opt subtitle "HI-TECH Software Omniscient Code Generator (Lite mode) build 49521"
  5397  03EE                     l547:	
  5398                           opt subtitle "HI-TECH Software Omniscient Code Generator (Lite mode) build 49521"
  5399  03EE  2C05               	goto	l548
  5400                           opt subtitle "HI-TECH Software Omniscient Code Generator (Lite mode) build 49521"
  5401  03EF                     l549:	
  5402                           opt subtitle "HI-TECH Software Omniscient Code Generator (Lite mode) build 49521"
  5403                           
  5404  03EF                     l1295:	
  5405  03EF  3001               	movlw	(01h)
  5406  03F0  00F5               	movwf	(??___ftpack+0)+0
  5407  03F1  0875               	movf	(??___ftpack+0)+0,w
  5408  03F2  07F3               	addwf	(___ftpack@exp),f
  5409                           opt subtitle "HI-TECH Software Omniscient Code Generator (Lite mode) build 49521"
  5410                           
  5411  03F3                     l1297:	
  5412  03F3  3001               	movlw	01h
  5413  03F4  07F0               	addwf	(___ftpack@arg),f
  5414  03F5  3000               	movlw	0
  5415  03F6  1803               	skipnc
  5416  03F7  3001               movlw 1
  5417  03F8  07F1               	addwf	(___ftpack@arg+1),f
  5418  03F9  3000               	movlw	0
  5419  03FA  1803               	skipnc
  5420  03FB  3001               movlw 1
  5421  03FC  07F2               	addwf	(___ftpack@arg+2),f
  5422                           opt subtitle "HI-TECH Software Omniscient Code Generator (Lite mode) build 49521"
  5423                           
  5424  03FD                     l1299:	
  5425  03FD  3001               	movlw	01h
  5426  03FE                     u1005:
  5427  03FE  1003               	clrc
  5428  03FF  0CF2               	rrf	(___ftpack@arg+2),f
  5429  0400  0CF1               	rrf	(___ftpack@arg+1),f
  5430  0401  0CF0               	rrf	(___ftpack@arg),f
  5431  0402  3EFF               	addlw	-1
  5432  0403  1D03               	skipz
  5433  0404  2BFE               	goto	u1005
  5434                           opt subtitle "HI-TECH Software Omniscient Code Generator (Lite mode) build 49521"
  5435                           
  5436                           opt pagewidth 120
  5437  0405                     l548:	
  5438                           opt subtitle "HI-TECH Software Omniscient Code Generator (Lite mode) build 49521"
  5439  0405  30FF               	movlw	low highword(0FF0000h)
  5440  0406  0572               	andwf	(___ftpack@arg+2),w
  5441  0407  1D03               	btfss	status,2
  5442  0408  2C0A               	goto	u1011
  5443  0409  2C0B               	goto	u1010
  5444  040A                     u1011:
  5445  040A  2BEF               	goto	l1295
  5446  040B                     u1010:
  5447  040B  2C18               	goto	l1303
  5448                           opt subtitle "HI-TECH Software Omniscient Code Generator (Lite mode) build 49521"
  5449  040C                     l550:	
  5450                           opt subtitle "HI-TECH Software Omniscient Code Generator (Lite mode) build 49521"
  5451  040C  2C18               	goto	l1303
  5452                           opt subtitle "HI-TECH Software Omniscient Code Generator (Lite mode) build 49521"
  5453  040D                     l552:	
  5454                           opt subtitle "HI-TECH Software Omniscient Code Generator (Lite mode) build 49521"
  5455                           
  5456  040D                     l1301:	
  5457  040D  3001               	movlw	low(01h)
  5458  040E  02F3               	subwf	(___ftpack@exp),f
  5459                           opt subtitle "HI-TECH Software Omniscient Code Generator (Lite mode) build 49521"
  5460  040F  3001               	movlw	01h
  5461  0410                     u1025:
  5462  0410  1003               	clrc
  5463  0411  0DF0               	rlf	(___ftpack@arg),f
  5464  0412  0DF1               	rlf	(___ftpack@arg+1),f
  5465  0413  0DF2               	rlf	(___ftpack@arg+2),f
  5466  0414  3EFF               	addlw	-1
  5467  0415  1D03               	skipz
  5468  0416  2C10               	goto	u1025
  5469  0417  2C18               	goto	l1303
  5470                           opt subtitle "HI-TECH Software Omniscient Code Generator (Lite mode) build 49521"
  5471                           
  5472  0418                     l551:	
  5473                           opt subtitle "HI-TECH Software Omniscient Code Generator (Lite mode) build 49521"
  5474                           
  5475  0418                     l1303:	
  5476  0418  1FF1               	btfss	(___ftpack@arg+1),(15)&7
  5477  0419  2C1B               	goto	u1031
  5478  041A  2C1C               	goto	u1030
  5479  041B                     u1031:
  5480  041B  2C0D               	goto	l1301
  5481  041C                     u1030:
  5482                           opt subtitle "HI-TECH Software Omniscient Code Generator (Lite mode) build 49521"
  5483  041C                     l553:	
  5484                           opt subtitle "HI-TECH Software Omniscient Code Generator (Lite mode) build 49521"
  5485  041C  1873               	btfsc	(___ftpack@exp),(0)&7
  5486  041D  2C1F               	goto	u1041
  5487  041E  2C20               	goto	u1040
  5488  041F                     u1041:
  5489  041F  2C26               	goto	l554
  5490  0420                     u1040:
  5491                           opt subtitle "HI-TECH Software Omniscient Code Generator (Lite mode) build 49521"
  5492                           
  5493  0420                     l1305:	
  5494  0420  30FF               	movlw	0FFh
  5495  0421  05F0               	andwf	(___ftpack@arg),f
  5496  0422  307F               	movlw	07Fh
  5497  0423  05F1               	andwf	(___ftpack@arg+1),f
  5498  0424  30FF               	movlw	0FFh
  5499  0425  05F2               	andwf	(___ftpack@arg+2),f
  5500                           opt subtitle "HI-TECH Software Omniscient Code Generator (Lite mode) build 49521"
  5501  0426                     l554:	
  5502                           opt subtitle "HI-TECH Software Omniscient Code Generator (Lite mode) build 49521"
  5503  0426  1003               	clrc
  5504  0427  0CF3               	rrf	(___ftpack@exp),f
  5505                           opt subtitle "HI-TECH Software Omniscient Code Generator (Lite mode) build 49521"
  5506                           
  5507                           opt pagewidth 120
  5508  0428                     l1307:	
  5509  0428  0873               	movf	(___ftpack@exp),w
  5510  0429  00F5               	movwf	((??___ftpack+0)+0)
  5511  042A  01F6               	clrf	((??___ftpack+0)+0+1)
  5512  042B  01F7               	clrf	((??___ftpack+0)+0+2)
  5513  042C  3010               	movlw	010h
  5514  042D                     u1055:
  5515  042D  1003               	clrc
  5516  042E  0DF5               	rlf	(??___ftpack+0)+0,f
  5517  042F  0DF6               	rlf	(??___ftpack+0)+1,f
  5518  0430  0DF7               	rlf	(??___ftpack+0)+2,f
  5519  0431                     u1050:
  5520  0431  3EFF               	addlw	-1
  5521  0432  1D03               	skipz
  5522  0433  2C2D               	goto	u1055
  5523  0434  0875               	movf	0+(??___ftpack+0)+0,w
  5524  0435  04F0               	iorwf	(___ftpack@arg),f
  5525  0436  0876               	movf	1+(??___ftpack+0)+0,w
  5526  0437  04F1               	iorwf	(___ftpack@arg+1),f
  5527  0438  0877               	movf	2+(??___ftpack+0)+0,w
  5528  0439  04F2               	iorwf	(___ftpack@arg+2),f
  5529                           opt subtitle "HI-TECH Software Omniscient Code Generator (Lite mode) build 49521"
  5530                           
  5531  043A                     l1309:	
  5532  043A  0874               	movf	(___ftpack@sign),w
  5533  043B  1D03               	skipz
  5534  043C  2C3E               	goto	u1060
  5535  043D  2C3F               	goto	l555
  5536  043E                     u1060:
  5537                           opt subtitle "HI-TECH Software Omniscient Code Generator (Lite mode) build 49521"
  5538                           
  5539  043E                     l1311:	
  5540  043E  17F2               	bsf	(___ftpack@arg)+(23/8),(23)&7
  5541                           opt subtitle "HI-TECH Software Omniscient Code Generator (Lite mode) build 49521"
  5542  043F                     l555:	
  5543                           opt subtitle "HI-TECH Software Omniscient Code Generator (Lite mode) build 49521"
  5544                           
  5545                           opt pagewidth 120
  5546  043F                     l544:	
  5547  043F  0008               	return
  5548                           opt subtitle "HI-TECH Software Omniscient Code Generator (Lite mode) build 49521"
  5549                           
  5550  0440                     	__end_of___ftpack:
  5551                           opt subtitle "HI-TECH Software Omniscient Code Generator (Lite mode) build 49521"
  5552                           
  5553                           opt pagewidth 120
  5554  0000                     __ptext366:	;psect for function ___ftpack
  5555                           opt subtitle "HI-TECH Software Omniscient Code Generator (Lite mode) build 49521"
  5556  007E                     	btemp set 07Eh
  5557                           opt subtitle "HI-TECH Software Omniscient Code Generator (Lite mode) build 49521"
  5558                           
  5559                           opt pagewidth 120
  5560  007E                     	wtemp0 set btemp


Data Sizes:
    Strings     16
    Constant    0
    Data        64
    BSS         5
    Persistent  0
    Stack       0

Auto Spaces:
    Space          Size  Autos    Used
    COMMON           14     14      14
    BANK0            80     46      51
    BANK1            80      0      64
    BANK3            96      0       0
    BANK2            96      0       0

Pointer List with Targets:

    ?___ftpack	float  size(1) Largest target is 0

    ?_LM35ReadTemp	float  size(1) Largest target is 0

    ?___ftdiv	float  size(1) Largest target is 0

    ?___lwtoft	float  size(1) Largest target is 0

    ?___ftmul	float  size(1) Largest target is 0

    ?___lwdiv	unsigned int  size(1) Largest target is 0

    ?_ReadADC	unsigned int  size(1) Largest target is 0

    ?___awdiv	int  size(1) Largest target is 0

    ?___awmod	int  size(1) Largest target is 2
		 -> LCDWriteInt@val(BANK0[2]), 

    ?___fttol	long  size(1) Largest target is 0

    LCDWriteString@msg	PTR const unsigned char  size(1) Largest target is 12
		 -> STR_2(CODE[4]), STR_1(CODE[12]), 


Critical Paths under _main in COMMON

    _main->_LCDInit
    _main->_LCDGotoXY
    _main->___fttol
    _LCDInit->_LCDByte
    _LCDWriteString->_LCDByte
    _LM35ReadTemp->___lwtoft
    _LCDGotoXY->_LCDByte
    _LCDWriteInt->___fttol
    _LCDByte->_LCDBusyLoop
    ___ftdiv->___lwtoft
    ___ftmul->___lwtoft
    ___lwtoft->___ftpack

Critical Paths under _main in BANK0

    _main->_LM35ReadTemp
    _LM35ReadTemp->___ftmul
    ___ftmul->___ftdiv

Critical Paths under _main in BANK1

    None.

Critical Paths under _main in BANK3

    None.

Critical Paths under _main in BANK2

    None.

Call Graph Tables:

 ---------------------------------------------------------------------------------
 (Depth) Function   	        Calls       Base Space   Used Autos Params    Refs
 ---------------------------------------------------------------------------------
 (0) _main                                                 6     6      0    4600
                                             40 BANK0      6     6      0
                            _LCDInit
                            _ADCInit
                            _LCDByte
                     _LCDWriteString
                       _LM35ReadTemp
                          _LCDGotoXY
                            ___fttol
                        _LCDWriteInt
 ---------------------------------------------------------------------------------
 (1) _LCDInit                                              4     4      0     482
                                             12 COMMON     2     2      0
                                              0 BANK0      2     2      0
                        _LCDBusyLoop
                            _LCDByte
 ---------------------------------------------------------------------------------
 (1) _ADCInit                                              0     0      0       0
 ---------------------------------------------------------------------------------
 (1) _LCDWriteString                                       3     3      0     454
                                             12 COMMON     1     1      0
                                              0 BANK0      2     2      0
                            _LCDByte
 ---------------------------------------------------------------------------------
 (1) _LM35ReadTemp                                         9     6      3    1532
                                             12 COMMON     1     1      0
                                             32 BANK0      8     5      3
                            _ReadADC
                            ___lwdiv
                           ___lwtoft
                            ___ftdiv
                            ___ftmul
 ---------------------------------------------------------------------------------
 (1) _LCDGotoXY                                            3     2      1     345
                                             12 COMMON     2     1      1
                                              0 BANK0      1     1      0
                            _LCDByte
 ---------------------------------------------------------------------------------
 (1) _LCDWriteInt                                         14    11      3    1237
                                              0 BANK0     14    11      3
                            _LCDByte
                            ___awmod
                            ___awdiv
                            ___fttol (ARG)
 ---------------------------------------------------------------------------------
 (2) _LCDByte                                              7     6      1     275
                                              5 COMMON     7     6      1
                        _LCDBusyLoop
 ---------------------------------------------------------------------------------
 (3) _LCDBusyLoop                                          5     5      0     117
                                              0 COMMON     5     5      0
 ---------------------------------------------------------------------------------
 (2) _ReadADC                                              4     2      2      44
                                              0 COMMON     4     2      2
 ---------------------------------------------------------------------------------
 (2) ___lwdiv                                              8     4      4     162
                                              0 COMMON     8     4      4
 ---------------------------------------------------------------------------------
 (2) ___ftdiv                                             16    10      6     489
                                              0 BANK0     16    10      6
                           ___ftpack
                           ___lwtoft (ARG)
 ---------------------------------------------------------------------------------
 (2) ___ftmul                                             16    10      6     535
                                             16 BANK0     16    10      6
                           ___ftpack
                            ___ftdiv (ARG)
                           ___lwtoft (ARG)
 ---------------------------------------------------------------------------------
 (1) ___fttol                                             14    10      4     252
                                              0 COMMON    14    10      4
 ---------------------------------------------------------------------------------
 (2) ___awdiv                                              9     5      4     300
                                              0 COMMON     9     5      4
 ---------------------------------------------------------------------------------
 (2) ___awmod                                              7     3      4     296
                                              0 COMMON     7     3      4
 ---------------------------------------------------------------------------------
 (2) ___lwtoft                                             4     1      3     231
                                              8 COMMON     4     1      3
                           ___ftpack
 ---------------------------------------------------------------------------------
 (3) ___ftpack                                             8     3      5     209
                                              0 COMMON     8     3      5
 ---------------------------------------------------------------------------------
 Estimated maximum stack depth 3
 ---------------------------------------------------------------------------------

 Call Graph Graphs:

 _main (ROOT)
   _LCDInit
     _LCDBusyLoop
     _LCDByte
       _LCDBusyLoop
   _ADCInit
   _LCDByte
     _LCDBusyLoop
   _LCDWriteString
     _LCDByte
       _LCDBusyLoop
   _LM35ReadTemp
     _ReadADC
     ___lwdiv
     ___lwtoft
       ___ftpack
     ___ftdiv
       ___ftpack
       ___lwtoft (ARG)
         ___ftpack
     ___ftmul
       ___ftpack
       ___ftdiv (ARG)
         ___ftpack
         ___lwtoft (ARG)
           ___ftpack
       ___lwtoft (ARG)
         ___ftpack
   _LCDGotoXY
     _LCDByte
       _LCDBusyLoop
   ___fttol
   _LCDWriteInt
     _LCDByte
       _LCDBusyLoop
     ___awmod
     ___awdiv
     ___fttol (ARG)

 Address spaces:
Name               Size   Autos  Total    Cost      Usage
BANK3               60      0       0       9        0.0%
BITBANK3            60      0       0       8        0.0%
SFR3                 0      0       0       4        0.0%
BITSFR3              0      0       0       4        0.0%
BANK2               60      0       0      11        0.0%
BITBANK2            60      0       0      10        0.0%
SFR2                 0      0       0       5        0.0%
BITSFR2              0      0       0       5        0.0%
BANK1               50      0      40       7       80.0%
BITBANK1            50      0       0       6        0.0%
SFR1                 0      0       0       2        0.0%
BITSFR1              0      0       0       2        0.0%
BANK0               50     2E      33       5       63.8%
BITBANK0            50      0       0       4        0.0%
SFR0                 0      0       0       1        0.0%
BITSFR0              0      0       0       1        0.0%
COMMON               E      E       E       1      100.0%
BITCOMMON            E      0       0       0        0.0%
CODE                 0      0       0       0        0.0%
DATA                 0      0      84      12        0.0%
ABS                  0      0      81       3        0.0%
NULL                 0      0       0       0        0.0%
STACK                0      0       3       2        0.0%
EEDATA             100      0       0       0        0.0%


Microchip Technology PIC Macro Assembler V1.12 build 49521 
Symbol Table                                                                                   Fri Jul 12 19:01:35 2013

           ?_LCDBusyLoop 0070                        pc 0002              __CFG_CP$OFF 0000  
                     l20 026F                       l21 0270                       l22 0270  
                     l50 015D                       l51 019F                       l19 0226  
                     l52 01A8                       l60 03B7                       l45 011E  
                     l61 0356                       l46 0121                       l62 039F  
                     l47 014F                       l63 0385                       l55 02C6  
                     l80 06D7                       l72 066C                       l64 039E  
                     l56 02DF                       l81 06EC                       l73 06A4  
                     l65 03B0                       l57 02DF                       l82 0711  
                     l74 066D                       l90 006D                       l66 03C4  
                     l83 0711                       l75 06AB                       l91 0052  
                     l67 03C4                       l76 06C5                       l92 0054  
                     l77 06BA                       l93 0059                       l78 06B3  
                     l86 0050                       l79 06C4                       l87 0075  
                     l88 005F                       l89 0051             ___awdiv@sign 0076  
                     fsr 0004              __CFG_LVP$ON 0000                      l110 0044  
                    l111 0036                      l112 0036                      l120 04D2  
                    l113 003B                      l106 0FD1                      l300 05F1  
                    l220 00EC                      l301 0613                      l221 00FA  
                    l109 0021                      l310 0786                      l302 0622  
                    l222 0102                      l311 079B                      l215 00FB  
                    l320 0539                      l312 07B2                      l216 00CD  
                    l321 0525                      l313 07B7                      l217 00C1  
                    l322 0526                      l314 07CC                      l218 00D2  
                    l323 0538                      l315 07E3                      l307 072D  
                    l219 00D3                      l420 01D5                      l324 055D  
                    l308 07FF                      l421 01C9                      l325 0549  
                    l309 0746                      l422 01DA                      l350 02FB  
                    l326 0556                      l318 04EE                      l423 01DB  
                    l351 0340                      l327 054A                      l319 0576  
                    l432 0FE8                      l424 01EC                      l352 0312  
                    l328 055C                      l425 01FA                      l417 01B6  
                    l353 0306                      l329 056D                      l426 0205  
                    l418 01C0                      l354 0317                      l427 020C  
                    l419 01FB                      l355 0318                      l356 0331  
                    l541 03D9                      l357 033F                      l349 02ED  
                    l550 040C                      l358 034A                      l551 0418  
                    l543 03D1                      l359 0351                      l552 040D  
                    l544 043F                      l553 041C                      l545 03E7  
                    l297 0592                      l554 0426                      l546 03DA  
                    l298 063E                      l555 043F                      l547 03EE  
                    l299 05AB                      l548 0405                      l549 03EF  
                    _RB1 0031                      _RB2 0032                      _RD4 0044  
           __CFG_CPD$OFF 0000                      u910 00D1                      u911 00D0  
                    u905 00C2                      u930 00E4                      u931 00E3  
                    u925 00D4                      u950 00F9                      u951 00F8  
                    u935 00E0                      u960 03C9                      u945 00ED  
                    u970 03D0                      u890 00BE                      u971 03CF  
                    u891 00BD                      u990 03ED                      u991 03EC  
                    u985 03DF                      fsr0 0004          __end_of_ADCInit 0FD2  
                    indf 0000             ___awmod@sign 0076             __CFG_FOSC$HS 0000  
  LM35ReadTemp@adc_value 0046  LCDWriteInt@field_length 0022          __end_of_LCDByte 0150  
        __end_of_LCDInit 02E0             ?_LCDWriteInt 0020              LCDByte@temp 007B  
           ___ftdiv@cntr 002A             ___ftdiv@sign 002F                     l1301 040D  
                   l1311 043E                     l1303 0418                     l1305 0420  
                   l1401 01AE                     l1321 0500                     l1313 04D3  
                   l1307 0428                     l1411 01C6                     l1403 01B3  
                   l1331 0514                     l1323 0501                     l1315 04E4  
                   l1251 0FC3                     l1309 043A                     l1421 01E5  
                   l1413 01C9                     l1405 01B6                     l1341 053F  
                   l1333 051B                     l1325 0507                     l1317 04ED  
                   l1261 00BE                     l1501 0110                     l1253 0FCB  
                   l1431 0205                     l1423 01EC                     l1415 01D0  
                   l1407 01BA                     l1351 0561                     l1343 0548  
                   l1335 0524                     l1327 050E                     l1319 04EE  
                   l1271 00E4                     l1263 00C1                     l1511 012D  
                   l1503 0115                     l1255 0FCE                     l1433 020C  
                   l1425 01F3                     l1417 01D5                     l1409 01C0  
                   l1361 02EA                     l1353 056D                     l1345 054A  
                   l1337 0526                     l1329 0510                     l1601 07A3  
                   l1281 0102                     l1273 00EA                     l1265 00C8  
                   l1257 00B6                     l1441 015A                     l1521 0141  
                   l1513 0130                     l1505 011A                     l1249 0FC0  
                   l1291 03DA                     l1283 03C5                     l1419 01DB  
                   l1427 01FB                     l1371 02FD                     l1363 02ED  
                   l1355 0576                     l1347 0556                     l1339 0539  
                   l1611 07CC                     l1603 07AB                     l1531 058A  
                   l1275 00EC                     l1267 00CD                     l1259 00B8  
                   l1451 0167                     l1443 015B                     l1435 0150  
                   l1523 0144                     l1515 0133                     l1507 0125  
                   l1293 03E7                     l1285 03C9                     l1429 01FF  
                   l1381 0318                     l1373 0303                     l1365 02F1  
                   l1357 02E0                     l1349 055D                     l1613 07D4  
                   l1605 07B2                     l1541 05AB                     l1533 0591  
                   l1277 00F3                     l1269 00D3                     l1461 017E  
                   l1453 0174                     l1445 015D                     l1437 0151  
                   l1525 0147                     l1517 0136                     l1509 012B  
                   l1701 0474                     l1621 0276                     l1295 03EF  
                   l1287 03D1                     l1383 0329                     l1375 0306  
                   l1391 0340                     l1367 02F6                     l1359 02E5  
                   l1615 07DC                     l1607 07B7                     l1551 05DE  
                   l1543 05B1                     l1535 0592                     l1279 00FB  
                   l1471 0194                     l1463 0185                     l1455 0175  
                   l1447 0160                     l1439 0157                     l1527 014A  
                   l1519 0139                     l1711 0054                     l1703 04CB  
                   l1631 0287                     l1623 027E                     l1297 03F3  
                   l1289 03D8                     l1393 0344                     l1385 032F  
                   l1377 030D                     l1369 02FB                     l1617 07E3  
                   l1609 07BB                     l1561 0611                     l1553 05E5  
                   l1545 05B6                     l1537 05A3                     l1529 0577  
                   l1481 001D                     l1473 0197                     l1465 0189  
                   l1457 0178                     l1449 0161                     l1721 063F  
                   l1713 0059                     l1705 04D2                     l1641 0291  
                   l1633 028D                     l1625 0284                     l1299 03FD  
                   l1395 034A                     l1387 0331                     l1379 0312  
                   l1619 07FF                     l1571 0712                     l1563 0613  
                   l1555 05F1                     l1547 05C8                     l1539 05AA  
                   l1491 003B                     l1483 0020                     l1475 019A  
                   l1467 018E                     l1459 017B                     l1731 0664  
                   l1723 0652                     l1715 005E                     l1707 0048  
                   l1651 029E                     l1643 0294                     l1635 028E  
                   l1627 0285                     l1397 0351                     l1389 0338  
                   l1581 0745                     l1573 0725                     l1565 061B  
                   l1557 05F9                     l1549 05DA                     l1493 0044  
                   l1485 0021                     l1477 01A2                     l1469 0193  
                   l1741 06AB                     l1733 066D                     l1725 0656  
                   l1709 004F                     l1717 005F                     l1661 02C5  
                   l1653 02A3                     l1645 0295                     l1637 028F  
                   l1629 0286                     l1495 0FD2                     l1399 01A9  
                   l1591 077B                     l1583 0746                     l1575 072C  
                   l1567 0622                     l1559 0607                     l1487 002D  
                   l1479 0017                     l1751 06DD                     l1743 06B2  
                   l1735 0686                     l1727 0658                     l1719 006E  
                   l1671 0356                     l1663 02C6                     l1655 02AA  
                   l1647 0298                     l1639 0290                     l1497 0FE8  
                   l1593 0781                     l1585 0773                     l1577 072D  
                   l1569 063E                     l1489 0032                     l1753 06EB  
                   l1745 06B3                     l1737 069D                     l1729 065C  
                   l1681 037C                     l1673 0362                     l1665 02D2  
                   l1657 02B4                     l1649 029B                     l1761 020D  
                   l1595 0786                     l1587 0774                     l1579 073E  
                   l1499 0104                     l1755 06EC                     l1747 06BA  
                   l1739 06A4                     l1683 0385                     l1675 0366  
                   l1691 03B7                     l1667 02D8                     l1659 02BB  
                   l1771 023B                     l1763 0213                     l1597 078A  
                   l1589 0775                     l1757 06FB                     l1749 06C5  
                   l1693 0440                     l1685 038D                     l1677 0371  
                   l1669 0355                     l1773 0259                     l1765 0218  
                   l1599 079B                     l1759 0703                     l1695 044E  
                   l1679 0375                     l1687 039F                     l1775 025F  
                   l1767 0226                     l1697 0453                     l1689 03B0  
                   l1769 0233                     l1699 0466                     STR_1 0806  
                   STR_2 0812                     u1010 040B                     u1011 040A  
                   u1100 051B                     u1005 03FE                     u1101 051A  
                   u1030 041C                     u1031 041B                     u1040 0420  
                   u1120 0537                     u1041 041F                     u1025 0410  
                   u1121 0536                     u1050 0431                     u1210 0316  
                   u1130 053F                     u1211 0315                     u1131 053E  
                   u1115 0527                     u1060 043E                     u1205 0307  
                   u1310 01D9                     u1230 0329                     u1150 055B  
                   u1070 04E4                     u1055 042D                     u1311 01D8  
                   u1231 0328                     u1151 055A                     u1071 04E3  
                   u1320 01E5                     u1160 0561                     u1080 04F9  
                   u1321 01E4                     u1305 01CA                     u1225 0319  
                   u1145 054C                     u1250 033E                     u1170 02E5  
                   u1090 0514                     u1410 011A                     u1251 033D  
                   u1235 0325                     u1171 02E4                     u1091 0513  
                   u1411 0119                     u1340 01F9                     u1260 0344  
                   u1180 02F1                     u1500 0725                     u1420 058A  
                   u1341 01F8                     u1325 01E1                     u1245 0332  
                   u1181 02F0                     u1085 04F5                     u1501 0724  
                   u1421 0589                     u1405 0107                     u1350 01FF  
                   u1270 01AE                     u1190 0303                     u1510 073E  
                   u1430 05A3                     u1335 01ED                     u1271 01AD  
                   u1191 0302                     u1511 073D                     u1431 05A2  
                   u1280 01BA                     u1520 0756                     u1440 05C1  
                   u1281 01B9                     u1601 07C4                     u1290 01C6  
                   u1602 07CB                     u1530 0768                     u1450 05D3  
                   u1370 019F                     u1291 01C5                     u1371 019E  
                   u1540 078A                     u1380 001D                     u1700 004E  
                   u1541 0789                     u1525 0752                     u1445 05BD  
                   u1381 001C                     u1365 016A                     u1701 004D  
                   u1630 07E2                     u1470 0607                     u1390 003A  
                   u1710 065C                     u1631 07E1                     u1615 07CD  
                   u1551 0793                     u1535 0764                     u1471 0606  
                   u1455 05CF                     u1391 0039                     u1711 065B  
                   u1552 079A                     u1720 06AA                     u1640 02C4  
                   u1625 07D5                     u1465 05F2                     u1721 06A9  
                   u1641 02C3                     u1490 0621                     u1730 06B1  
                   u1650 02DE                     u1491 0620                     u1475 0603  
                   u1731 06B0                     u1651 02DD                     u1580 07B1  
                   u1740 06C3                     u1660 0362                     u1581 07B0  
                   u1565 079C                     u1485 0614                     u1741 06C2  
                   u1661 0361                     u1590 07BB                     u1750 06EA  
                   u1670 0375                     u1591 07BA                     u1575 07A4  
                   u1751 06E9                     u1807 0463                     u1671 0374  
                   u1760 0710                     u1680 037C                     u1761 070F  
                   u1817 0476                     u1681 037B                     u1690 03C3  
                   u1827 002F                     u1755 06E6                     u1691 03C2  
                   u1765 070C                     u1777 0267                     u1787 027A  
                   u1797 0450             __CFG_WRT$OFF 0000                     _main 020D  
           ___ftpack@arg 0070       __size_of_LCDGotoXY 0031             ___ftpack@exp 0073  
                   btemp 007E            __CFG_BOREN$ON 0000                     start 0000  
           ___ftmul@cntr 003E             ___ftmul@sign 003F          __end_of_ReadADC 0045  
           ___fttol@exp1 007D             ___fttol@lval 0079                    ?_main 0070  
        __end_of___awdiv 0352            __CFG_WDTE$OFF 0000          __end_of___awmod 020D  
        __end_of___ftdiv 063F             LCDInit@style 0020          __end_of___ftmul 0800  
        ___awdiv@divisor 0070          __end_of___fttol 0577          __end_of___lwdiv 0103  
        ___awdiv@counter 0075                    _PORTD 0008                    _TRISD 0088  
          ___ftpack@sign 0074                    main@t 004B     __end_of_LM35ReadTemp 04D3  
                  pclath 000A                    status 0003                    wtemp0 007E  
        __initialization 0FE9             __end_of_main 0273                ??_ADCInit 0070  
                 ??_main 0048            ___fttol@sign1 0078        __end_of_LCDGotoXY 0076  
          LCDByte@isdata 0075                ??_LCDByte 0076                ??_LCDInit 007C  
                 _ADRESH 001E                   _ADRESL 009E         ___awdiv@dividend 0072  
       __end_of___ftpack 0440         __end_of___lwtoft 0FE9                ??_ReadADC 0072  
         __CFG_PWRTE$OFF 0000           _LCDWriteString 0352                ??___awdiv 0074  
              ??___awmod 0074                ??___ftdiv 0026                ??___ftmul 0036  
              ??___fttol 0074                ??___lwdiv 0074     __size_of_LCDBusyLoop 0059  
       ___awdiv@quotient 0077          ___awmod@divisor 0070          ___awmod@counter 0075  
  ___ftmul@f3_as_product 003B             LCDWriteInt@i 002C             LCDWriteInt@j 002A  
   __size_of_LCDWriteInt 00D3  __end_of__initialization 0FFC   __end_of_LCDWriteString 03C5  
             ___ftdiv@f1 0023               ___ftdiv@f2 0020               ___ftdiv@f3 002B  
              LCDByte@hn 0078                LCDByte@ln 0079               ___ftmul@f1 0030  
             ___ftmul@f2 0033               ___fttol@f1 0070           __pcstackCOMMON 0070  
           __pidataBANK1 0076               ___lwtoft@c 0078    __size_of_LM35ReadTemp 0093  
             __pbssBANK0 004E          ?_LCDWriteString 0070               __pmaintext 020D  
                _ADCInit 0FC0             _LM35ReadTemp 0440                ?___ftpack 0070  
              ?___lwtoft 0078                  _LCDByte 0103                  _LCDInit 0273  
             __stringtab 0800                  _ReadADC 0016                  ___cgram 00A0  
                ___awdiv 02E0                  ___awmod 01A9                  ___ftdiv 0577  
                ___ftmul 0712                  ___fttol 04D3                  ___lwdiv 00B6  
             ??___ftpack 0075               ??___lwtoft 007B         ___awmod@dividend 0072  
              _LCDGotoXY 0045     end_of_initialization 0FFC                  init_ram 0007  
      LCDWriteString@msg 0021                _TRISBbits 0086                _TRISDbits 0088  
             ?_LCDGotoXY 007C                ReadADC@ch 0073               LCDInit@__i 0021  
            ___ftdiv@exp 002E               LCDGotoXY@x 0020               LCDGotoXY@y 007C  
            ___ftmul@exp 003A            ??_LCDBusyLoop 0070      start_initialization 0FE9  
          ??_LCDWriteInt 0023         ??_LCDWriteString 007C              __pdataBANK1 00A0  
               ?_ADCInit 0070      __end_of_LCDBusyLoop 01A9                 ?_LCDByte 0075  
               ?_LCDInit 0070        __size_of___ftpack 007B                 LCDByte@c 007A  
      __size_of___lwtoft 0017            __pcstackBANK0 0020              ??_LCDGotoXY 007D  
    __end_of__stringdata 0816         LCDWriteInt@F1160 004E                 ?_ReadADC 0070  
    __end_of_LCDWriteInt 0712            LM35ReadTemp@t 0043         ___lwdiv@dividend 0072  
               ?___awdiv 0070                __ptext350 0FC0                __ptext351 0352  
              __ptext360 0712                __ptext352 0440                __ptext361 04D3  
              __ptext353 0045                __ptext362 02E0                __ptext354 063F  
              __ptext363 01A9                __ptext355 0103                 ?___awmod 0070  
              __ptext364 0FD2                __ptext356 0150                __ptext365 03C5  
              __ptext357 0016                __ptext349 0273                __ptext366 0000  
              __ptext358 00B6                __ptext359 0577                 ?___ftdiv 0020  
               ?___ftmul 0030                 ?___fttol 0070                 ?___lwdiv 0070  
              __pstrings 0800          LCDBusyLoop@busy 0072          LCDBusyLoop@temp 0073  
       ___lwdiv@quotient 0075              _LCDBusyLoop 0150         LCDWriteString@cc 0020  
       __size_of_ADCInit 0012               _ADCON0bits 001F              __stringbase 0805  
             _ADCON1bits 009F              __stringdata 0806         __size_of_LCDByte 004D  
       __size_of_LCDInit 006D              _LCDWriteInt 063F         __size_of_ReadADC 002F  
              init_fetch 0003         __size_of___awdiv 0072         __size_of___awmod 0064  
       __size_of___ftdiv 00C8         __size_of___ftmul 00EE         __size_of___fttol 00A4  
      LCDBusyLoop@status 0074         __size_of___lwdiv 004D                 ___ftpack 03C5  
     __end_of__stringtab 0806                 ___lwtoft 0FD2          ___lwdiv@divisor 0070  
        ___lwdiv@counter 0077            __size_of_main 0066            ?_LM35ReadTemp 0040  
         LCDWriteInt@val 0020           LCDWriteInt@str 0025                stringcode 0800  
         ??_LM35ReadTemp 007C                 stringdir 0800                 stringtab 0800  
__size_of_LCDWriteString 0073  
