

Microchip Technology PIC LITE Macro Assembler V1.41 build -162212810 
                                                                                               Tue Jul 11 23:42:51 2017

Microchip Technology Omniscient Code Generator v1.41 (Free mode) build 201701250102
     1                           	processor	12F629
     2                           	opt	pw 120
     3                           	opt	lm
     4                           	psect	cinit,global,class=CODE,merge=1,delta=2
     5                           	psect	cstackBANK0,global,class=BANK0,space=1,delta=1
     6                           	psect	maintext,global,class=CODE,split=1,delta=2
     7                           	dabs	1,0x5E,2
     8  0000                     
     9                           ; Version 1.41
    10                           ; Generated 25/01/2017 GMT
    11                           ; 
    12                           ; Copyright © 2017, Microchip Technology Inc. and its subsidiaries ("Microchip")
    13                           ; All rights reserved.
    14                           ; 
    15                           ; This software is developed by Microchip Technology Inc. and its subsidiaries ("Microch
      +                          ip").
    16                           ; 
    17                           ; Redistribution and use in source and binary forms, with or without modification, are
    18                           ; permitted provided that the following conditions are met:
    19                           ; 
    20                           ;     1. Redistributions of source code must retain the above copyright notice, this lis
      +                          t of
    21                           ;        conditions and the following disclaimer.
    22                           ; 
    23                           ;     2. Redistributions in binary form must reproduce the above copyright notice, this 
      +                          list
    24                           ;        of conditions and the following disclaimer in the documentation and/or other
    25                           ;        materials provided with the distribution.
    26                           ; 
    27                           ;     3. Microchip's name may not be used to endorse or promote products derived from th
      +                          is
    28                           ;        software without specific prior written permission.
    29                           ; 
    30                           ; THIS SOFTWARE IS PROVIDED BY MICROCHIP "AS IS" AND ANY EXPRESS OR IMPLIED WARRANTIES,
    31                           ; INCLUDING, BUT NOT LIMITED TO, THE IMPLIED WARRANTIES OF MERCHANTABILITY AND FITNESS F
      +                          OR
    32                           ; PURPOSE ARE DISCLAIMED.  IN NO EVENT SHALL MICROCHIP BE LIABLE FOR ANY DIRECT, INDIREC
      +                          T,
    33                           ; INCIDENTAL, SPECIAL, EXEMPLARY, OR CONSEQUENTIAL DAMAGES (INCLUDING BUT NOT LIMITED TO
    34                           ; PROCUREMENT OF SUBSTITUTE GOODS OR SERVICES; LOSS OF USE, DATA OR PROFITS; OR BUSINESS
    35                           ; INTERRUPTION) HOWSOEVER CAUSED AND ON ANY THEORY OF LIABILITY, WHETHER IN CONTRACT, ST
      +                          RICT
    36                           ; LIABILITY, OR TORT (INCLUDING NEGLIGENCE OR OTHERWISE) ARISING IN ANY WAY OUT OF THE U
      +                          SE OF
    37                           ; THIS SOFTWARE, EVEN IF ADVISED OF THE POSSIBILITY OF SUCH DAMAGE.
    38                           ; 
    39                           ; 
    40                           ; Code-generator required, PIC12F629 Definitions
    41                           ; 
    42                           ; SFR Addresses
    43  0000                     	;# 
    44  0001                     	;# 
    45  0002                     	;# 
    46  0003                     	;# 
    47  0004                     	;# 
    48  0005                     	;# 
    49  000A                     	;# 
    50  000B                     	;# 
    51  000C                     	;# 
    52  000E                     	;# 
    53  000E                     	;# 
    54  000F                     	;# 
    55  0010                     	;# 
    56  0019                     	;# 
    57  0081                     	;# 
    58  0085                     	;# 
    59  008C                     	;# 
    60  008E                     	;# 
    61  0090                     	;# 
    62  0095                     	;# 
    63  0096                     	;# 
    64  0096                     	;# 
    65  0099                     	;# 
    66  009A                     	;# 
    67  009A                     	;# 
    68  009B                     	;# 
    69  009C                     	;# 
    70  009D                     	;# 
    71  0005                     _GPIObits	set	5
    72  0085                     _TRISIObits	set	133
    73                           
    74                           ; #config settings
    75  0000                     
    76                           	psect	cinit
    77  03FD                     start_initialization:	
    78  03FD                     __initialization:	
    79  03FD                     end_of_initialization:	
    80                           ;End of C runtime variable initialization code
    81                           
    82  03FD                     __end_of__initialization:	
    83  03FD  0183               	clrf	3
    84  03FE  280F               	ljmp	_main	;jump to C main() function
    85                           
    86                           	psect	cstackBANK0
    87  0020                     __pcstackBANK0:	
    88  0020                     ?_main:	
    89  0020                     ??_main:	
    90                           ; 1 bytes @ 0x0
    91                           
    92                           
    93                           ; 1 bytes @ 0x0
    94  0020                     	ds	3
    95  0023                     main@i:	
    96                           
    97                           ; 2 bytes @ 0x3
    98  0023                     	ds	2
    99                           
   100                           	psect	maintext
   101  000F                     __pmaintext:	
   102 ;;
   103 ;;Main: autosize = 0, tempsize = 3, incstack = 0, save=0
   104 ;;
   105 ;; *************** function _main *****************
   106 ;; Defined at:
   107 ;;		line 63 in file "main.c"
   108 ;; Parameters:    Size  Location     Type
   109 ;;		None
   110 ;; Auto vars:     Size  Location     Type
   111 ;;  i               2    3[BANK0 ] int 
   112 ;; Return value:  Size  Location     Type
   113 ;;                  1    wreg      void 
   114 ;; Registers used:
   115 ;;		wreg, status,2, btemp+1
   116 ;; Tracked objects:
   117 ;;		On entry : B00/0
   118 ;;		On exit  : 0/0
   119 ;;		Unchanged: 0/0
   120 ;; Data sizes:     COMMON   BANK0
   121 ;;      Params:         0       0
   122 ;;      Locals:         0       2
   123 ;;      Temps:          0       3
   124 ;;      Totals:         0       5
   125 ;;Total ram usage:        5 bytes
   126 ;; This function calls:
   127 ;;		Nothing
   128 ;; This function is called by:
   129 ;;		Startup code after reset
   130 ;; This function uses a non-reentrant model
   131 ;;
   132                           
   133                           
   134                           ;psect for function _main
   135  000F                     _main:	
   136                           
   137                           ;main.c: 64: TRISIObits.TRISIO1 = 0;
   138                           
   139                           ;incstack = 0
   140                           ; Regs used in _main: [wreg+status,2+btemp+1]
   141  000F  1683               	bsf	3,5	;RP0=1, select bank1
   142  0010  1085               	bcf	5,1	;volatile
   143  0011                     L1:	
   144                           
   145                           ;main.c: 65: GPIObits.GP1 = 1;
   146  0011  1283               	bcf	3,5	;RP0=0, select bank0
   147  0012  1485               	bsf	5,1	;volatile
   148                           
   149                           ;main.c: 67: {
   150                           ;main.c: 71: { _delay((unsigned long)((50000)*(4000000/4000.0))); _delay((unsigned long)
      +                          ((50000)*(4000000/4000.0))); _delay((unsigned long)((50000)*(4000000/4000.0))); _delay((
      +                          unsigned long)((50000)*(4000000/4000.0))); _delay((unsigned long)((50000)*(4000000/4000
   151                           
   152                           ;main.c: 66: while(1)
   153  0013  30FE               	movlw	254
   154  0014  00A2               	movwf	??_main+2
   155  0015  30A7               	movlw	167
   156  0016  00A1               	movwf	??_main+1
   157  0017  3065               	movlw	101
   158  0018  00A0               	movwf	??_main
   159  0019                     u57:	
   160  0019  0BA0               	decfsz	??_main,f
   161  001A  2819               	goto	u57
   162  001B  0BA1               	decfsz	??_main+1,f
   163  001C  2819               	goto	u57
   164  001D  0BA2               	decfsz	??_main+2,f
   165  001E  2819               	goto	u57
   166  001F  2820               	nop2
   167  0020  30FE               	movlw	254
   168  0021  1283               	bcf	3,5	;RP0=0, select bank0
   169  0022  00A2               	movwf	??_main+2
   170  0023  30A7               	movlw	167
   171  0024  00A1               	movwf	??_main+1
   172  0025  3065               	movlw	101
   173  0026  00A0               	movwf	??_main
   174  0027                     u67:	
   175  0027  0BA0               	decfsz	??_main,f
   176  0028  2827               	goto	u67
   177  0029  0BA1               	decfsz	??_main+1,f
   178  002A  2827               	goto	u67
   179  002B  0BA2               	decfsz	??_main+2,f
   180  002C  2827               	goto	u67
   181  002D  282E               	nop2
   182  002E  30FE               	movlw	254
   183  002F  1283               	bcf	3,5	;RP0=0, select bank0
   184  0030  00A2               	movwf	??_main+2
   185  0031  30A7               	movlw	167
   186  0032  00A1               	movwf	??_main+1
   187  0033  3065               	movlw	101
   188  0034  00A0               	movwf	??_main
   189  0035                     u77:	
   190  0035  0BA0               	decfsz	??_main,f
   191  0036  2835               	goto	u77
   192  0037  0BA1               	decfsz	??_main+1,f
   193  0038  2835               	goto	u77
   194  0039  0BA2               	decfsz	??_main+2,f
   195  003A  2835               	goto	u77
   196  003B  283C               	nop2
   197  003C  30FE               	movlw	254
   198  003D  1283               	bcf	3,5	;RP0=0, select bank0
   199  003E  00A2               	movwf	??_main+2
   200  003F  30A7               	movlw	167
   201  0040  00A1               	movwf	??_main+1
   202  0041  3065               	movlw	101
   203  0042  00A0               	movwf	??_main
   204  0043                     u87:	
   205  0043  0BA0               	decfsz	??_main,f
   206  0044  2843               	goto	u87
   207  0045  0BA1               	decfsz	??_main+1,f
   208  0046  2843               	goto	u87
   209  0047  0BA2               	decfsz	??_main+2,f
   210  0048  2843               	goto	u87
   211  0049  284A               	nop2
   212  004A  30FE               	movlw	254
   213  004B  1283               	bcf	3,5	;RP0=0, select bank0
   214  004C  00A2               	movwf	??_main+2
   215  004D  30A7               	movlw	167
   216  004E  00A1               	movwf	??_main+1
   217  004F  3065               	movlw	101
   218  0050  00A0               	movwf	??_main
   219  0051                     u97:	
   220  0051  0BA0               	decfsz	??_main,f
   221  0052  2851               	goto	u97
   222  0053  0BA1               	decfsz	??_main+1,f
   223  0054  2851               	goto	u97
   224  0055  0BA2               	decfsz	??_main+2,f
   225  0056  2851               	goto	u97
   226  0057  2858               	nop2
   227  0058  30FE               	movlw	254
   228  0059  1283               	bcf	3,5	;RP0=0, select bank0
   229  005A  00A2               	movwf	??_main+2
   230  005B  30A7               	movlw	167
   231  005C  00A1               	movwf	??_main+1
   232  005D  3065               	movlw	101
   233  005E  00A0               	movwf	??_main
   234  005F                     u107:	
   235  005F  0BA0               	decfsz	??_main,f
   236  0060  285F               	goto	u107
   237  0061  0BA1               	decfsz	??_main+1,f
   238  0062  285F               	goto	u107
   239  0063  0BA2               	decfsz	??_main+2,f
   240  0064  285F               	goto	u107
   241  0065  2866               	nop2
   242  0066  30FE               	movlw	254
   243  0067  1283               	bcf	3,5	;RP0=0, select bank0
   244  0068  00A2               	movwf	??_main+2
   245  0069  30A7               	movlw	167
   246  006A  00A1               	movwf	??_main+1
   247  006B  3065               	movlw	101
   248  006C  00A0               	movwf	??_main
   249  006D                     u117:	
   250  006D  0BA0               	decfsz	??_main,f
   251  006E  286D               	goto	u117
   252  006F  0BA1               	decfsz	??_main+1,f
   253  0070  286D               	goto	u117
   254  0071  0BA2               	decfsz	??_main+2,f
   255  0072  286D               	goto	u117
   256  0073  2874               	nop2
   257                           
   258                           ;main.c: 73: GPIObits.GP1 = 0;
   259  0074  1283               	bcf	3,5	;RP0=0, select bank0
   260  0075  1085               	bcf	5,1	;volatile
   261                           
   262                           ;main.c: 77: for(int i = 0; i < 2; i++)
   263  0076  01A3               	clrf	main@i
   264  0077  01A4               	clrf	main@i+1
   265  0078                     L2:	
   266  0078  0824               	movf	main@i+1,w
   267  0079  3A80               	xorlw	128
   268  007A  00DF               	movwf	95
   269  007B  3080               	movlw	128
   270  007C  025F               	subwf	95,w
   271  007D  1D03               	skipz
   272  007E  2881               	goto	u35
   273  007F  3002               	movlw	2
   274  0080  0223               	subwf	main@i,w
   275  0081                     u35:	
   276  0081  1803               	btfsc	3,0
   277  0082  2811               	goto	L1
   278                           
   279                           ;main.c: 78: {
   280                           ;main.c: 79: { { _delay((unsigned long)((50000)*(4000000/4000.0))); _delay((unsigned lon
      +                          g)((50000)*(4000000/4000.0))); _delay((unsigned long)((50000)*(4000000/4000.0))); _delay
      +                          ((unsigned long)((50000)*(4000000/4000.0))); _delay((unsigned long)((50000)*(4000000/40
   281  0083  30FE               	movlw	254
   282  0084  1283               	bcf	3,5	;RP0=0, select bank0
   283  0085  00A2               	movwf	??_main+2
   284  0086  30A7               	movlw	167
   285  0087  00A1               	movwf	??_main+1
   286  0088  3065               	movlw	101
   287  0089  00A0               	movwf	??_main
   288  008A                     u127:	
   289  008A  0BA0               	decfsz	??_main,f
   290  008B  288A               	goto	u127
   291  008C  0BA1               	decfsz	??_main+1,f
   292  008D  288A               	goto	u127
   293  008E  0BA2               	decfsz	??_main+2,f
   294  008F  288A               	goto	u127
   295  0090  2891               	nop2
   296  0091  30FE               	movlw	254
   297  0092  1283               	bcf	3,5	;RP0=0, select bank0
   298  0093  00A2               	movwf	??_main+2
   299  0094  30A7               	movlw	167
   300  0095  00A1               	movwf	??_main+1
   301  0096  3065               	movlw	101
   302  0097  00A0               	movwf	??_main
   303  0098                     u137:	
   304  0098  0BA0               	decfsz	??_main,f
   305  0099  2898               	goto	u137
   306  009A  0BA1               	decfsz	??_main+1,f
   307  009B  2898               	goto	u137
   308  009C  0BA2               	decfsz	??_main+2,f
   309  009D  2898               	goto	u137
   310  009E  289F               	nop2
   311  009F  30FE               	movlw	254
   312  00A0  1283               	bcf	3,5	;RP0=0, select bank0
   313  00A1  00A2               	movwf	??_main+2
   314  00A2  30A7               	movlw	167
   315  00A3  00A1               	movwf	??_main+1
   316  00A4  3065               	movlw	101
   317  00A5  00A0               	movwf	??_main
   318  00A6                     u147:	
   319  00A6  0BA0               	decfsz	??_main,f
   320  00A7  28A6               	goto	u147
   321  00A8  0BA1               	decfsz	??_main+1,f
   322  00A9  28A6               	goto	u147
   323  00AA  0BA2               	decfsz	??_main+2,f
   324  00AB  28A6               	goto	u147
   325  00AC  28AD               	nop2
   326  00AD  30FE               	movlw	254
   327  00AE  1283               	bcf	3,5	;RP0=0, select bank0
   328  00AF  00A2               	movwf	??_main+2
   329  00B0  30A7               	movlw	167
   330  00B1  00A1               	movwf	??_main+1
   331  00B2  3065               	movlw	101
   332  00B3  00A0               	movwf	??_main
   333  00B4                     u157:	
   334  00B4  0BA0               	decfsz	??_main,f
   335  00B5  28B4               	goto	u157
   336  00B6  0BA1               	decfsz	??_main+1,f
   337  00B7  28B4               	goto	u157
   338  00B8  0BA2               	decfsz	??_main+2,f
   339  00B9  28B4               	goto	u157
   340  00BA  28BB               	nop2
   341  00BB  30FE               	movlw	254
   342  00BC  1283               	bcf	3,5	;RP0=0, select bank0
   343  00BD  00A2               	movwf	??_main+2
   344  00BE  30A7               	movlw	167
   345  00BF  00A1               	movwf	??_main+1
   346  00C0  3065               	movlw	101
   347  00C1  00A0               	movwf	??_main
   348  00C2                     u167:	
   349  00C2  0BA0               	decfsz	??_main,f
   350  00C3  28C2               	goto	u167
   351  00C4  0BA1               	decfsz	??_main+1,f
   352  00C5  28C2               	goto	u167
   353  00C6  0BA2               	decfsz	??_main+2,f
   354  00C7  28C2               	goto	u167
   355  00C8  28C9               	nop2
   356  00C9  30FE               	movlw	254
   357  00CA  1283               	bcf	3,5	;RP0=0, select bank0
   358  00CB  00A2               	movwf	??_main+2
   359  00CC  30A7               	movlw	167
   360  00CD  00A1               	movwf	??_main+1
   361  00CE  3065               	movlw	101
   362  00CF  00A0               	movwf	??_main
   363  00D0                     u177:	
   364  00D0  0BA0               	decfsz	??_main,f
   365  00D1  28D0               	goto	u177
   366  00D2  0BA1               	decfsz	??_main+1,f
   367  00D3  28D0               	goto	u177
   368  00D4  0BA2               	decfsz	??_main+2,f
   369  00D5  28D0               	goto	u177
   370  00D6  28D7               	nop2
   371  00D7  30FE               	movlw	254
   372  00D8  1283               	bcf	3,5	;RP0=0, select bank0
   373  00D9  00A2               	movwf	??_main+2
   374  00DA  30A7               	movlw	167
   375  00DB  00A1               	movwf	??_main+1
   376  00DC  3065               	movlw	101
   377  00DD  00A0               	movwf	??_main
   378  00DE                     u187:	
   379  00DE  0BA0               	decfsz	??_main,f
   380  00DF  28DE               	goto	u187
   381  00E0  0BA1               	decfsz	??_main+1,f
   382  00E1  28DE               	goto	u187
   383  00E2  0BA2               	decfsz	??_main+2,f
   384  00E3  28DE               	goto	u187
   385  00E4  28E5               	nop2
   386  00E5  30FE               	movlw	254
   387  00E6  1283               	bcf	3,5	;RP0=0, select bank0
   388  00E7  00A2               	movwf	??_main+2
   389  00E8  30A7               	movlw	167
   390  00E9  00A1               	movwf	??_main+1
   391  00EA  3065               	movlw	101
   392  00EB  00A0               	movwf	??_main
   393  00EC                     u197:	
   394  00EC  0BA0               	decfsz	??_main,f
   395  00ED  28EC               	goto	u197
   396  00EE  0BA1               	decfsz	??_main+1,f
   397  00EF  28EC               	goto	u197
   398  00F0  0BA2               	decfsz	??_main+2,f
   399  00F1  28EC               	goto	u197
   400  00F2  28F3               	nop2
   401  00F3  30FE               	movlw	254
   402  00F4  1283               	bcf	3,5	;RP0=0, select bank0
   403  00F5  00A2               	movwf	??_main+2
   404  00F6  30A7               	movlw	167
   405  00F7  00A1               	movwf	??_main+1
   406  00F8  3065               	movlw	101
   407  00F9  00A0               	movwf	??_main
   408  00FA                     u207:	
   409  00FA  0BA0               	decfsz	??_main,f
   410  00FB  28FA               	goto	u207
   411  00FC  0BA1               	decfsz	??_main+1,f
   412  00FD  28FA               	goto	u207
   413  00FE  0BA2               	decfsz	??_main+2,f
   414  00FF  28FA               	goto	u207
   415  0100  2901               	nop2
   416  0101  30FE               	movlw	254
   417  0102  1283               	bcf	3,5	;RP0=0, select bank0
   418  0103  00A2               	movwf	??_main+2
   419  0104  30A7               	movlw	167
   420  0105  00A1               	movwf	??_main+1
   421  0106  3065               	movlw	101
   422  0107  00A0               	movwf	??_main
   423  0108                     u217:	
   424  0108  0BA0               	decfsz	??_main,f
   425  0109  2908               	goto	u217
   426  010A  0BA1               	decfsz	??_main+1,f
   427  010B  2908               	goto	u217
   428  010C  0BA2               	decfsz	??_main+2,f
   429  010D  2908               	goto	u217
   430  010E  290F               	nop2
   431  010F  30FE               	movlw	254
   432  0110  1283               	bcf	3,5	;RP0=0, select bank0
   433  0111  00A2               	movwf	??_main+2
   434  0112  30A7               	movlw	167
   435  0113  00A1               	movwf	??_main+1
   436  0114  3065               	movlw	101
   437  0115  00A0               	movwf	??_main
   438  0116                     u227:	
   439  0116  0BA0               	decfsz	??_main,f
   440  0117  2916               	goto	u227
   441  0118  0BA1               	decfsz	??_main+1,f
   442  0119  2916               	goto	u227
   443  011A  0BA2               	decfsz	??_main+2,f
   444  011B  2916               	goto	u227
   445  011C  291D               	nop2
   446  011D  30FE               	movlw	254
   447  011E  1283               	bcf	3,5	;RP0=0, select bank0
   448  011F  00A2               	movwf	??_main+2
   449  0120  30A7               	movlw	167
   450  0121  00A1               	movwf	??_main+1
   451  0122  3065               	movlw	101
   452  0123  00A0               	movwf	??_main
   453  0124                     u237:	
   454  0124  0BA0               	decfsz	??_main,f
   455  0125  2924               	goto	u237
   456  0126  0BA1               	decfsz	??_main+1,f
   457  0127  2924               	goto	u237
   458  0128  0BA2               	decfsz	??_main+2,f
   459  0129  2924               	goto	u237
   460  012A  292B               	nop2
   461  012B  30FE               	movlw	254
   462  012C  1283               	bcf	3,5	;RP0=0, select bank0
   463  012D  00A2               	movwf	??_main+2
   464  012E  30A7               	movlw	167
   465  012F  00A1               	movwf	??_main+1
   466  0130  3065               	movlw	101
   467  0131  00A0               	movwf	??_main
   468  0132                     u247:	
   469  0132  0BA0               	decfsz	??_main,f
   470  0133  2932               	goto	u247
   471  0134  0BA1               	decfsz	??_main+1,f
   472  0135  2932               	goto	u247
   473  0136  0BA2               	decfsz	??_main+2,f
   474  0137  2932               	goto	u247
   475  0138  2939               	nop2
   476  0139  30FE               	movlw	254
   477  013A  1283               	bcf	3,5	;RP0=0, select bank0
   478  013B  00A2               	movwf	??_main+2
   479  013C  30A7               	movlw	167
   480  013D  00A1               	movwf	??_main+1
   481  013E  3065               	movlw	101
   482  013F  00A0               	movwf	??_main
   483  0140                     u257:	
   484  0140  0BA0               	decfsz	??_main,f
   485  0141  2940               	goto	u257
   486  0142  0BA1               	decfsz	??_main+1,f
   487  0143  2940               	goto	u257
   488  0144  0BA2               	decfsz	??_main+2,f
   489  0145  2940               	goto	u257
   490  0146  2947               	nop2
   491  0147  30FE               	movlw	254
   492  0148  1283               	bcf	3,5	;RP0=0, select bank0
   493  0149  00A2               	movwf	??_main+2
   494  014A  30A7               	movlw	167
   495  014B  00A1               	movwf	??_main+1
   496  014C  3065               	movlw	101
   497  014D  00A0               	movwf	??_main
   498  014E                     u267:	
   499  014E  0BA0               	decfsz	??_main,f
   500  014F  294E               	goto	u267
   501  0150  0BA1               	decfsz	??_main+1,f
   502  0151  294E               	goto	u267
   503  0152  0BA2               	decfsz	??_main+2,f
   504  0153  294E               	goto	u267
   505  0154  2955               	nop2
   506  0155  30FE               	movlw	254
   507  0156  1283               	bcf	3,5	;RP0=0, select bank0
   508  0157  00A2               	movwf	??_main+2
   509  0158  30A7               	movlw	167
   510  0159  00A1               	movwf	??_main+1
   511  015A  3065               	movlw	101
   512  015B  00A0               	movwf	??_main
   513  015C                     u277:	
   514  015C  0BA0               	decfsz	??_main,f
   515  015D  295C               	goto	u277
   516  015E  0BA1               	decfsz	??_main+1,f
   517  015F  295C               	goto	u277
   518  0160  0BA2               	decfsz	??_main+2,f
   519  0161  295C               	goto	u277
   520  0162  2963               	nop2
   521  0163  30FE               	movlw	254
   522  0164  1283               	bcf	3,5	;RP0=0, select bank0
   523  0165  00A2               	movwf	??_main+2
   524  0166  30A7               	movlw	167
   525  0167  00A1               	movwf	??_main+1
   526  0168  3065               	movlw	101
   527  0169  00A0               	movwf	??_main
   528  016A                     u287:	
   529  016A  0BA0               	decfsz	??_main,f
   530  016B  296A               	goto	u287
   531  016C  0BA1               	decfsz	??_main+1,f
   532  016D  296A               	goto	u287
   533  016E  0BA2               	decfsz	??_main+2,f
   534  016F  296A               	goto	u287
   535  0170  2971               	nop2
   536  0171  30FE               	movlw	254
   537  0172  1283               	bcf	3,5	;RP0=0, select bank0
   538  0173  00A2               	movwf	??_main+2
   539  0174  30A7               	movlw	167
   540  0175  00A1               	movwf	??_main+1
   541  0176  3065               	movlw	101
   542  0177  00A0               	movwf	??_main
   543  0178                     u297:	
   544  0178  0BA0               	decfsz	??_main,f
   545  0179  2978               	goto	u297
   546  017A  0BA1               	decfsz	??_main+1,f
   547  017B  2978               	goto	u297
   548  017C  0BA2               	decfsz	??_main+2,f
   549  017D  2978               	goto	u297
   550  017E  297F               	nop2
   551  017F  30FE               	movlw	254
   552  0180  1283               	bcf	3,5	;RP0=0, select bank0
   553  0181  00A2               	movwf	??_main+2
   554  0182  30A7               	movlw	167
   555  0183  00A1               	movwf	??_main+1
   556  0184  3065               	movlw	101
   557  0185  00A0               	movwf	??_main
   558  0186                     u307:	
   559  0186  0BA0               	decfsz	??_main,f
   560  0187  2986               	goto	u307
   561  0188  0BA1               	decfsz	??_main+1,f
   562  0189  2986               	goto	u307
   563  018A  0BA2               	decfsz	??_main+2,f
   564  018B  2986               	goto	u307
   565  018C  298D               	nop2
   566  018D  30FE               	movlw	254
   567  018E  1283               	bcf	3,5	;RP0=0, select bank0
   568  018F  00A2               	movwf	??_main+2
   569  0190  30A7               	movlw	167
   570  0191  00A1               	movwf	??_main+1
   571  0192  3065               	movlw	101
   572  0193  00A0               	movwf	??_main
   573  0194                     u317:	
   574  0194  0BA0               	decfsz	??_main,f
   575  0195  2994               	goto	u317
   576  0196  0BA1               	decfsz	??_main+1,f
   577  0197  2994               	goto	u317
   578  0198  0BA2               	decfsz	??_main+2,f
   579  0199  2994               	goto	u317
   580  019A  299B               	nop2
   581  019B  30FE               	movlw	254
   582  019C  1283               	bcf	3,5	;RP0=0, select bank0
   583  019D  00A2               	movwf	??_main+2
   584  019E  30A7               	movlw	167
   585  019F  00A1               	movwf	??_main+1
   586  01A0  3065               	movlw	101
   587  01A1  00A0               	movwf	??_main
   588  01A2                     u327:	
   589  01A2  0BA0               	decfsz	??_main,f
   590  01A3  29A2               	goto	u327
   591  01A4  0BA1               	decfsz	??_main+1,f
   592  01A5  29A2               	goto	u327
   593  01A6  0BA2               	decfsz	??_main+2,f
   594  01A7  29A2               	goto	u327
   595  01A8  29A9               	nop2
   596  01A9  30FE               	movlw	254
   597  01AA  1283               	bcf	3,5	;RP0=0, select bank0
   598  01AB  00A2               	movwf	??_main+2
   599  01AC  30A7               	movlw	167
   600  01AD  00A1               	movwf	??_main+1
   601  01AE  3065               	movlw	101
   602  01AF  00A0               	movwf	??_main
   603  01B0                     u337:	
   604  01B0  0BA0               	decfsz	??_main,f
   605  01B1  29B0               	goto	u337
   606  01B2  0BA1               	decfsz	??_main+1,f
   607  01B3  29B0               	goto	u337
   608  01B4  0BA2               	decfsz	??_main+2,f
   609  01B5  29B0               	goto	u337
   610  01B6  29B7               	nop2
   611  01B7  30FE               	movlw	254
   612  01B8  1283               	bcf	3,5	;RP0=0, select bank0
   613  01B9  00A2               	movwf	??_main+2
   614  01BA  30A7               	movlw	167
   615  01BB  00A1               	movwf	??_main+1
   616  01BC  3065               	movlw	101
   617  01BD  00A0               	movwf	??_main
   618  01BE                     u347:	
   619  01BE  0BA0               	decfsz	??_main,f
   620  01BF  29BE               	goto	u347
   621  01C0  0BA1               	decfsz	??_main+1,f
   622  01C1  29BE               	goto	u347
   623  01C2  0BA2               	decfsz	??_main+2,f
   624  01C3  29BE               	goto	u347
   625  01C4  29C5               	nop2
   626  01C5  30FE               	movlw	254
   627  01C6  1283               	bcf	3,5	;RP0=0, select bank0
   628  01C7  00A2               	movwf	??_main+2
   629  01C8  30A7               	movlw	167
   630  01C9  00A1               	movwf	??_main+1
   631  01CA  3065               	movlw	101
   632  01CB  00A0               	movwf	??_main
   633  01CC                     u357:	
   634  01CC  0BA0               	decfsz	??_main,f
   635  01CD  29CC               	goto	u357
   636  01CE  0BA1               	decfsz	??_main+1,f
   637  01CF  29CC               	goto	u357
   638  01D0  0BA2               	decfsz	??_main+2,f
   639  01D1  29CC               	goto	u357
   640  01D2  29D3               	nop2
   641  01D3  30FE               	movlw	254
   642  01D4  1283               	bcf	3,5	;RP0=0, select bank0
   643  01D5  00A2               	movwf	??_main+2
   644  01D6  30A7               	movlw	167
   645  01D7  00A1               	movwf	??_main+1
   646  01D8  3065               	movlw	101
   647  01D9  00A0               	movwf	??_main
   648  01DA                     u367:	
   649  01DA  0BA0               	decfsz	??_main,f
   650  01DB  29DA               	goto	u367
   651  01DC  0BA1               	decfsz	??_main+1,f
   652  01DD  29DA               	goto	u367
   653  01DE  0BA2               	decfsz	??_main+2,f
   654  01DF  29DA               	goto	u367
   655  01E0  29E1               	nop2
   656  01E1  30FE               	movlw	254
   657  01E2  1283               	bcf	3,5	;RP0=0, select bank0
   658  01E3  00A2               	movwf	??_main+2
   659  01E4  30A7               	movlw	167
   660  01E5  00A1               	movwf	??_main+1
   661  01E6  3065               	movlw	101
   662  01E7  00A0               	movwf	??_main
   663  01E8                     u377:	
   664  01E8  0BA0               	decfsz	??_main,f
   665  01E9  29E8               	goto	u377
   666  01EA  0BA1               	decfsz	??_main+1,f
   667  01EB  29E8               	goto	u377
   668  01EC  0BA2               	decfsz	??_main+2,f
   669  01ED  29E8               	goto	u377
   670  01EE  29EF               	nop2
   671  01EF  30FE               	movlw	254
   672  01F0  1283               	bcf	3,5	;RP0=0, select bank0
   673  01F1  00A2               	movwf	??_main+2
   674  01F2  30A7               	movlw	167
   675  01F3  00A1               	movwf	??_main+1
   676  01F4  3065               	movlw	101
   677  01F5  00A0               	movwf	??_main
   678  01F6                     u387:	
   679  01F6  0BA0               	decfsz	??_main,f
   680  01F7  29F6               	goto	u387
   681  01F8  0BA1               	decfsz	??_main+1,f
   682  01F9  29F6               	goto	u387
   683  01FA  0BA2               	decfsz	??_main+2,f
   684  01FB  29F6               	goto	u387
   685  01FC  29FD               	nop2
   686  01FD  30FE               	movlw	254
   687  01FE  1283               	bcf	3,5	;RP0=0, select bank0
   688  01FF  00A2               	movwf	??_main+2
   689  0200  30A7               	movlw	167
   690  0201  00A1               	movwf	??_main+1
   691  0202  3065               	movlw	101
   692  0203  00A0               	movwf	??_main
   693  0204                     u397:	
   694  0204  0BA0               	decfsz	??_main,f
   695  0205  2A04               	goto	u397
   696  0206  0BA1               	decfsz	??_main+1,f
   697  0207  2A04               	goto	u397
   698  0208  0BA2               	decfsz	??_main+2,f
   699  0209  2A04               	goto	u397
   700  020A  2A0B               	nop2
   701  020B  30FE               	movlw	254
   702  020C  1283               	bcf	3,5	;RP0=0, select bank0
   703  020D  00A2               	movwf	??_main+2
   704  020E  30A7               	movlw	167
   705  020F  00A1               	movwf	??_main+1
   706  0210  3065               	movlw	101
   707  0211  00A0               	movwf	??_main
   708  0212                     u407:	
   709  0212  0BA0               	decfsz	??_main,f
   710  0213  2A12               	goto	u407
   711  0214  0BA1               	decfsz	??_main+1,f
   712  0215  2A12               	goto	u407
   713  0216  0BA2               	decfsz	??_main+2,f
   714  0217  2A12               	goto	u407
   715  0218  2A19               	nop2
   716  0219  30FE               	movlw	254
   717  021A  1283               	bcf	3,5	;RP0=0, select bank0
   718  021B  00A2               	movwf	??_main+2
   719  021C  30A7               	movlw	167
   720  021D  00A1               	movwf	??_main+1
   721  021E  3065               	movlw	101
   722  021F  00A0               	movwf	??_main
   723  0220                     u417:	
   724  0220  0BA0               	decfsz	??_main,f
   725  0221  2A20               	goto	u417
   726  0222  0BA1               	decfsz	??_main+1,f
   727  0223  2A20               	goto	u417
   728  0224  0BA2               	decfsz	??_main+2,f
   729  0225  2A20               	goto	u417
   730  0226  2A27               	nop2
   731  0227  30FE               	movlw	254
   732  0228  1283               	bcf	3,5	;RP0=0, select bank0
   733  0229  00A2               	movwf	??_main+2
   734  022A  30A7               	movlw	167
   735  022B  00A1               	movwf	??_main+1
   736  022C  3065               	movlw	101
   737  022D  00A0               	movwf	??_main
   738  022E                     u427:	
   739  022E  0BA0               	decfsz	??_main,f
   740  022F  2A2E               	goto	u427
   741  0230  0BA1               	decfsz	??_main+1,f
   742  0231  2A2E               	goto	u427
   743  0232  0BA2               	decfsz	??_main+2,f
   744  0233  2A2E               	goto	u427
   745  0234  2A35               	nop2
   746  0235  30FE               	movlw	254
   747  0236  1283               	bcf	3,5	;RP0=0, select bank0
   748  0237  00A2               	movwf	??_main+2
   749  0238  30A7               	movlw	167
   750  0239  00A1               	movwf	??_main+1
   751  023A  3065               	movlw	101
   752  023B  00A0               	movwf	??_main
   753  023C                     u437:	
   754  023C  0BA0               	decfsz	??_main,f
   755  023D  2A3C               	goto	u437
   756  023E  0BA1               	decfsz	??_main+1,f
   757  023F  2A3C               	goto	u437
   758  0240  0BA2               	decfsz	??_main+2,f
   759  0241  2A3C               	goto	u437
   760  0242  2A43               	nop2
   761  0243  30FE               	movlw	254
   762  0244  1283               	bcf	3,5	;RP0=0, select bank0
   763  0245  00A2               	movwf	??_main+2
   764  0246  30A7               	movlw	167
   765  0247  00A1               	movwf	??_main+1
   766  0248  3065               	movlw	101
   767  0249  00A0               	movwf	??_main
   768  024A                     u447:	
   769  024A  0BA0               	decfsz	??_main,f
   770  024B  2A4A               	goto	u447
   771  024C  0BA1               	decfsz	??_main+1,f
   772  024D  2A4A               	goto	u447
   773  024E  0BA2               	decfsz	??_main+2,f
   774  024F  2A4A               	goto	u447
   775  0250  2A51               	nop2
   776  0251  30FE               	movlw	254
   777  0252  1283               	bcf	3,5	;RP0=0, select bank0
   778  0253  00A2               	movwf	??_main+2
   779  0254  30A7               	movlw	167
   780  0255  00A1               	movwf	??_main+1
   781  0256  3065               	movlw	101
   782  0257  00A0               	movwf	??_main
   783  0258                     u457:	
   784  0258  0BA0               	decfsz	??_main,f
   785  0259  2A58               	goto	u457
   786  025A  0BA1               	decfsz	??_main+1,f
   787  025B  2A58               	goto	u457
   788  025C  0BA2               	decfsz	??_main+2,f
   789  025D  2A58               	goto	u457
   790  025E  2A5F               	nop2
   791  025F  30FE               	movlw	254
   792  0260  1283               	bcf	3,5	;RP0=0, select bank0
   793  0261  00A2               	movwf	??_main+2
   794  0262  30A7               	movlw	167
   795  0263  00A1               	movwf	??_main+1
   796  0264  3065               	movlw	101
   797  0265  00A0               	movwf	??_main
   798  0266                     u467:	
   799  0266  0BA0               	decfsz	??_main,f
   800  0267  2A66               	goto	u467
   801  0268  0BA1               	decfsz	??_main+1,f
   802  0269  2A66               	goto	u467
   803  026A  0BA2               	decfsz	??_main+2,f
   804  026B  2A66               	goto	u467
   805  026C  2A6D               	nop2
   806  026D  30FE               	movlw	254
   807  026E  1283               	bcf	3,5	;RP0=0, select bank0
   808  026F  00A2               	movwf	??_main+2
   809  0270  30A7               	movlw	167
   810  0271  00A1               	movwf	??_main+1
   811  0272  3065               	movlw	101
   812  0273  00A0               	movwf	??_main
   813  0274                     u477:	
   814  0274  0BA0               	decfsz	??_main,f
   815  0275  2A74               	goto	u477
   816  0276  0BA1               	decfsz	??_main+1,f
   817  0277  2A74               	goto	u477
   818  0278  0BA2               	decfsz	??_main+2,f
   819  0279  2A74               	goto	u477
   820  027A  2A7B               	nop2
   821  027B  30FE               	movlw	254
   822  027C  1283               	bcf	3,5	;RP0=0, select bank0
   823  027D  00A2               	movwf	??_main+2
   824  027E  30A7               	movlw	167
   825  027F  00A1               	movwf	??_main+1
   826  0280  3065               	movlw	101
   827  0281  00A0               	movwf	??_main
   828  0282                     u487:	
   829  0282  0BA0               	decfsz	??_main,f
   830  0283  2A82               	goto	u487
   831  0284  0BA1               	decfsz	??_main+1,f
   832  0285  2A82               	goto	u487
   833  0286  0BA2               	decfsz	??_main+2,f
   834  0287  2A82               	goto	u487
   835  0288  2A89               	nop2
   836  0289  30FE               	movlw	254
   837  028A  1283               	bcf	3,5	;RP0=0, select bank0
   838  028B  00A2               	movwf	??_main+2
   839  028C  30A7               	movlw	167
   840  028D  00A1               	movwf	??_main+1
   841  028E  3065               	movlw	101
   842  028F  00A0               	movwf	??_main
   843  0290                     u497:	
   844  0290  0BA0               	decfsz	??_main,f
   845  0291  2A90               	goto	u497
   846  0292  0BA1               	decfsz	??_main+1,f
   847  0293  2A90               	goto	u497
   848  0294  0BA2               	decfsz	??_main+2,f
   849  0295  2A90               	goto	u497
   850  0296  2A97               	nop2
   851  0297  30FE               	movlw	254
   852  0298  1283               	bcf	3,5	;RP0=0, select bank0
   853  0299  00A2               	movwf	??_main+2
   854  029A  30A7               	movlw	167
   855  029B  00A1               	movwf	??_main+1
   856  029C  3065               	movlw	101
   857  029D  00A0               	movwf	??_main
   858  029E                     u507:	
   859  029E  0BA0               	decfsz	??_main,f
   860  029F  2A9E               	goto	u507
   861  02A0  0BA1               	decfsz	??_main+1,f
   862  02A1  2A9E               	goto	u507
   863  02A2  0BA2               	decfsz	??_main+2,f
   864  02A3  2A9E               	goto	u507
   865  02A4  2AA5               	nop2
   866  02A5  30FE               	movlw	254
   867  02A6  1283               	bcf	3,5	;RP0=0, select bank0
   868  02A7  00A2               	movwf	??_main+2
   869  02A8  30A7               	movlw	167
   870  02A9  00A1               	movwf	??_main+1
   871  02AA  3065               	movlw	101
   872  02AB  00A0               	movwf	??_main
   873  02AC                     u517:	
   874  02AC  0BA0               	decfsz	??_main,f
   875  02AD  2AAC               	goto	u517
   876  02AE  0BA1               	decfsz	??_main+1,f
   877  02AF  2AAC               	goto	u517
   878  02B0  0BA2               	decfsz	??_main+2,f
   879  02B1  2AAC               	goto	u517
   880  02B2  2AB3               	nop2
   881  02B3  30FE               	movlw	254
   882  02B4  1283               	bcf	3,5	;RP0=0, select bank0
   883  02B5  00A2               	movwf	??_main+2
   884  02B6  30A7               	movlw	167
   885  02B7  00A1               	movwf	??_main+1
   886  02B8  3065               	movlw	101
   887  02B9  00A0               	movwf	??_main
   888  02BA                     u527:	
   889  02BA  0BA0               	decfsz	??_main,f
   890  02BB  2ABA               	goto	u527
   891  02BC  0BA1               	decfsz	??_main+1,f
   892  02BD  2ABA               	goto	u527
   893  02BE  0BA2               	decfsz	??_main+2,f
   894  02BF  2ABA               	goto	u527
   895  02C0  2AC1               	nop2
   896  02C1  30FE               	movlw	254
   897  02C2  1283               	bcf	3,5	;RP0=0, select bank0
   898  02C3  00A2               	movwf	??_main+2
   899  02C4  30A7               	movlw	167
   900  02C5  00A1               	movwf	??_main+1
   901  02C6  3065               	movlw	101
   902  02C7  00A0               	movwf	??_main
   903  02C8                     u537:	
   904  02C8  0BA0               	decfsz	??_main,f
   905  02C9  2AC8               	goto	u537
   906  02CA  0BA1               	decfsz	??_main+1,f
   907  02CB  2AC8               	goto	u537
   908  02CC  0BA2               	decfsz	??_main+2,f
   909  02CD  2AC8               	goto	u537
   910  02CE  2ACF               	nop2
   911  02CF  30FE               	movlw	254
   912  02D0  1283               	bcf	3,5	;RP0=0, select bank0
   913  02D1  00A2               	movwf	??_main+2
   914  02D2  30A7               	movlw	167
   915  02D3  00A1               	movwf	??_main+1
   916  02D4  3065               	movlw	101
   917  02D5  00A0               	movwf	??_main
   918  02D6                     u547:	
   919  02D6  0BA0               	decfsz	??_main,f
   920  02D7  2AD6               	goto	u547
   921  02D8  0BA1               	decfsz	??_main+1,f
   922  02D9  2AD6               	goto	u547
   923  02DA  0BA2               	decfsz	??_main+2,f
   924  02DB  2AD6               	goto	u547
   925  02DC  2ADD               	nop2
   926  02DD  30FE               	movlw	254
   927  02DE  1283               	bcf	3,5	;RP0=0, select bank0
   928  02DF  00A2               	movwf	??_main+2
   929  02E0  30A7               	movlw	167
   930  02E1  00A1               	movwf	??_main+1
   931  02E2  3065               	movlw	101
   932  02E3  00A0               	movwf	??_main
   933  02E4                     u557:	
   934  02E4  0BA0               	decfsz	??_main,f
   935  02E5  2AE4               	goto	u557
   936  02E6  0BA1               	decfsz	??_main+1,f
   937  02E7  2AE4               	goto	u557
   938  02E8  0BA2               	decfsz	??_main+2,f
   939  02E9  2AE4               	goto	u557
   940  02EA  2AEB               	nop2
   941  02EB  30FE               	movlw	254
   942  02EC  1283               	bcf	3,5	;RP0=0, select bank0
   943  02ED  00A2               	movwf	??_main+2
   944  02EE  30A7               	movlw	167
   945  02EF  00A1               	movwf	??_main+1
   946  02F0  3065               	movlw	101
   947  02F1  00A0               	movwf	??_main
   948  02F2                     u567:	
   949  02F2  0BA0               	decfsz	??_main,f
   950  02F3  2AF2               	goto	u567
   951  02F4  0BA1               	decfsz	??_main+1,f
   952  02F5  2AF2               	goto	u567
   953  02F6  0BA2               	decfsz	??_main+2,f
   954  02F7  2AF2               	goto	u567
   955  02F8  2AF9               	nop2
   956  02F9  30FE               	movlw	254
   957  02FA  1283               	bcf	3,5	;RP0=0, select bank0
   958  02FB  00A2               	movwf	??_main+2
   959  02FC  30A7               	movlw	167
   960  02FD  00A1               	movwf	??_main+1
   961  02FE  3065               	movlw	101
   962  02FF  00A0               	movwf	??_main
   963  0300                     u577:	
   964  0300  0BA0               	decfsz	??_main,f
   965  0301  2B00               	goto	u577
   966  0302  0BA1               	decfsz	??_main+1,f
   967  0303  2B00               	goto	u577
   968  0304  0BA2               	decfsz	??_main+2,f
   969  0305  2B00               	goto	u577
   970  0306  2B07               	nop2
   971  0307  30FE               	movlw	254
   972  0308  1283               	bcf	3,5	;RP0=0, select bank0
   973  0309  00A2               	movwf	??_main+2
   974  030A  30A7               	movlw	167
   975  030B  00A1               	movwf	??_main+1
   976  030C  3065               	movlw	101
   977  030D  00A0               	movwf	??_main
   978  030E                     u587:	
   979  030E  0BA0               	decfsz	??_main,f
   980  030F  2B0E               	goto	u587
   981  0310  0BA1               	decfsz	??_main+1,f
   982  0311  2B0E               	goto	u587
   983  0312  0BA2               	decfsz	??_main+2,f
   984  0313  2B0E               	goto	u587
   985  0314  2B15               	nop2
   986  0315  30FE               	movlw	254
   987  0316  1283               	bcf	3,5	;RP0=0, select bank0
   988  0317  00A2               	movwf	??_main+2
   989  0318  30A7               	movlw	167
   990  0319  00A1               	movwf	??_main+1
   991  031A  3065               	movlw	101
   992  031B  00A0               	movwf	??_main
   993  031C                     u597:	
   994  031C  0BA0               	decfsz	??_main,f
   995  031D  2B1C               	goto	u597
   996  031E  0BA1               	decfsz	??_main+1,f
   997  031F  2B1C               	goto	u597
   998  0320  0BA2               	decfsz	??_main+2,f
   999  0321  2B1C               	goto	u597
  1000  0322  2B23               	nop2
  1001  0323  30FE               	movlw	254
  1002  0324  1283               	bcf	3,5	;RP0=0, select bank0
  1003  0325  00A2               	movwf	??_main+2
  1004  0326  30A7               	movlw	167
  1005  0327  00A1               	movwf	??_main+1
  1006  0328  3065               	movlw	101
  1007  0329  00A0               	movwf	??_main
  1008  032A                     u607:	
  1009  032A  0BA0               	decfsz	??_main,f
  1010  032B  2B2A               	goto	u607
  1011  032C  0BA1               	decfsz	??_main+1,f
  1012  032D  2B2A               	goto	u607
  1013  032E  0BA2               	decfsz	??_main+2,f
  1014  032F  2B2A               	goto	u607
  1015  0330  2B31               	nop2
  1016  0331  30FE               	movlw	254
  1017  0332  1283               	bcf	3,5	;RP0=0, select bank0
  1018  0333  00A2               	movwf	??_main+2
  1019  0334  30A7               	movlw	167
  1020  0335  00A1               	movwf	??_main+1
  1021  0336  3065               	movlw	101
  1022  0337  00A0               	movwf	??_main
  1023  0338                     u617:	
  1024  0338  0BA0               	decfsz	??_main,f
  1025  0339  2B38               	goto	u617
  1026  033A  0BA1               	decfsz	??_main+1,f
  1027  033B  2B38               	goto	u617
  1028  033C  0BA2               	decfsz	??_main+2,f
  1029  033D  2B38               	goto	u617
  1030  033E  2B3F               	nop2
  1031  033F  30FE               	movlw	254
  1032  0340  1283               	bcf	3,5	;RP0=0, select bank0
  1033  0341  00A2               	movwf	??_main+2
  1034  0342  30A7               	movlw	167
  1035  0343  00A1               	movwf	??_main+1
  1036  0344  3065               	movlw	101
  1037  0345  00A0               	movwf	??_main
  1038  0346                     u627:	
  1039  0346  0BA0               	decfsz	??_main,f
  1040  0347  2B46               	goto	u627
  1041  0348  0BA1               	decfsz	??_main+1,f
  1042  0349  2B46               	goto	u627
  1043  034A  0BA2               	decfsz	??_main+2,f
  1044  034B  2B46               	goto	u627
  1045  034C  2B4D               	nop2
  1046  034D  30FE               	movlw	254
  1047  034E  1283               	bcf	3,5	;RP0=0, select bank0
  1048  034F  00A2               	movwf	??_main+2
  1049  0350  30A7               	movlw	167
  1050  0351  00A1               	movwf	??_main+1
  1051  0352  3065               	movlw	101
  1052  0353  00A0               	movwf	??_main
  1053  0354                     u637:	
  1054  0354  0BA0               	decfsz	??_main,f
  1055  0355  2B54               	goto	u637
  1056  0356  0BA1               	decfsz	??_main+1,f
  1057  0357  2B54               	goto	u637
  1058  0358  0BA2               	decfsz	??_main+2,f
  1059  0359  2B54               	goto	u637
  1060  035A  2B5B               	nop2
  1061  035B  30FE               	movlw	254
  1062  035C  1283               	bcf	3,5	;RP0=0, select bank0
  1063  035D  00A2               	movwf	??_main+2
  1064  035E  30A7               	movlw	167
  1065  035F  00A1               	movwf	??_main+1
  1066  0360  3065               	movlw	101
  1067  0361  00A0               	movwf	??_main
  1068  0362                     u647:	
  1069  0362  0BA0               	decfsz	??_main,f
  1070  0363  2B62               	goto	u647
  1071  0364  0BA1               	decfsz	??_main+1,f
  1072  0365  2B62               	goto	u647
  1073  0366  0BA2               	decfsz	??_main+2,f
  1074  0367  2B62               	goto	u647
  1075  0368  2B69               	nop2
  1076  0369  30FE               	movlw	254
  1077  036A  1283               	bcf	3,5	;RP0=0, select bank0
  1078  036B  00A2               	movwf	??_main+2
  1079  036C  30A7               	movlw	167
  1080  036D  00A1               	movwf	??_main+1
  1081  036E  3065               	movlw	101
  1082  036F  00A0               	movwf	??_main
  1083  0370                     u657:	
  1084  0370  0BA0               	decfsz	??_main,f
  1085  0371  2B70               	goto	u657
  1086  0372  0BA1               	decfsz	??_main+1,f
  1087  0373  2B70               	goto	u657
  1088  0374  0BA2               	decfsz	??_main+2,f
  1089  0375  2B70               	goto	u657
  1090  0376  2B77               	nop2
  1091  0377  30FE               	movlw	254
  1092  0378  1283               	bcf	3,5	;RP0=0, select bank0
  1093  0379  00A2               	movwf	??_main+2
  1094  037A  30A7               	movlw	167
  1095  037B  00A1               	movwf	??_main+1
  1096  037C  3065               	movlw	101
  1097  037D  00A0               	movwf	??_main
  1098  037E                     u667:	
  1099  037E  0BA0               	decfsz	??_main,f
  1100  037F  2B7E               	goto	u667
  1101  0380  0BA1               	decfsz	??_main+1,f
  1102  0381  2B7E               	goto	u667
  1103  0382  0BA2               	decfsz	??_main+2,f
  1104  0383  2B7E               	goto	u667
  1105  0384  2B85               	nop2
  1106  0385  30FE               	movlw	254
  1107  0386  1283               	bcf	3,5	;RP0=0, select bank0
  1108  0387  00A2               	movwf	??_main+2
  1109  0388  30A7               	movlw	167
  1110  0389  00A1               	movwf	??_main+1
  1111  038A  3065               	movlw	101
  1112  038B  00A0               	movwf	??_main
  1113  038C                     u677:	
  1114  038C  0BA0               	decfsz	??_main,f
  1115  038D  2B8C               	goto	u677
  1116  038E  0BA1               	decfsz	??_main+1,f
  1117  038F  2B8C               	goto	u677
  1118  0390  0BA2               	decfsz	??_main+2,f
  1119  0391  2B8C               	goto	u677
  1120  0392  2B93               	nop2
  1121  0393  30FE               	movlw	254
  1122  0394  1283               	bcf	3,5	;RP0=0, select bank0
  1123  0395  00A2               	movwf	??_main+2
  1124  0396  30A7               	movlw	167
  1125  0397  00A1               	movwf	??_main+1
  1126  0398  3065               	movlw	101
  1127  0399  00A0               	movwf	??_main
  1128  039A                     u687:	
  1129  039A  0BA0               	decfsz	??_main,f
  1130  039B  2B9A               	goto	u687
  1131  039C  0BA1               	decfsz	??_main+1,f
  1132  039D  2B9A               	goto	u687
  1133  039E  0BA2               	decfsz	??_main+2,f
  1134  039F  2B9A               	goto	u687
  1135  03A0  2BA1               	nop2
  1136  03A1  30FE               	movlw	254
  1137  03A2  1283               	bcf	3,5	;RP0=0, select bank0
  1138  03A3  00A2               	movwf	??_main+2
  1139  03A4  30A7               	movlw	167
  1140  03A5  00A1               	movwf	??_main+1
  1141  03A6  3065               	movlw	101
  1142  03A7  00A0               	movwf	??_main
  1143  03A8                     u697:	
  1144  03A8  0BA0               	decfsz	??_main,f
  1145  03A9  2BA8               	goto	u697
  1146  03AA  0BA1               	decfsz	??_main+1,f
  1147  03AB  2BA8               	goto	u697
  1148  03AC  0BA2               	decfsz	??_main+2,f
  1149  03AD  2BA8               	goto	u697
  1150  03AE  2BAF               	nop2
  1151  03AF  30FE               	movlw	254
  1152  03B0  1283               	bcf	3,5	;RP0=0, select bank0
  1153  03B1  00A2               	movwf	??_main+2
  1154  03B2  30A7               	movlw	167
  1155  03B3  00A1               	movwf	??_main+1
  1156  03B4  3065               	movlw	101
  1157  03B5  00A0               	movwf	??_main
  1158  03B6                     u707:	
  1159  03B6  0BA0               	decfsz	??_main,f
  1160  03B7  2BB6               	goto	u707
  1161  03B8  0BA1               	decfsz	??_main+1,f
  1162  03B9  2BB6               	goto	u707
  1163  03BA  0BA2               	decfsz	??_main+2,f
  1164  03BB  2BB6               	goto	u707
  1165  03BC  2BBD               	nop2
  1166  03BD  30FE               	movlw	254
  1167  03BE  1283               	bcf	3,5	;RP0=0, select bank0
  1168  03BF  00A2               	movwf	??_main+2
  1169  03C0  30A7               	movlw	167
  1170  03C1  00A1               	movwf	??_main+1
  1171  03C2  3065               	movlw	101
  1172  03C3  00A0               	movwf	??_main
  1173  03C4                     u717:	
  1174  03C4  0BA0               	decfsz	??_main,f
  1175  03C5  2BC4               	goto	u717
  1176  03C6  0BA1               	decfsz	??_main+1,f
  1177  03C7  2BC4               	goto	u717
  1178  03C8  0BA2               	decfsz	??_main+2,f
  1179  03C9  2BC4               	goto	u717
  1180  03CA  2BCB               	nop2
  1181  03CB  30FE               	movlw	254
  1182  03CC  1283               	bcf	3,5	;RP0=0, select bank0
  1183  03CD  00A2               	movwf	??_main+2
  1184  03CE  30A7               	movlw	167
  1185  03CF  00A1               	movwf	??_main+1
  1186  03D0  3065               	movlw	101
  1187  03D1  00A0               	movwf	??_main
  1188  03D2                     u727:	
  1189  03D2  0BA0               	decfsz	??_main,f
  1190  03D3  2BD2               	goto	u727
  1191  03D4  0BA1               	decfsz	??_main+1,f
  1192  03D5  2BD2               	goto	u727
  1193  03D6  0BA2               	decfsz	??_main+2,f
  1194  03D7  2BD2               	goto	u727
  1195  03D8  2BD9               	nop2
  1196  03D9  30FE               	movlw	254
  1197  03DA  1283               	bcf	3,5	;RP0=0, select bank0
  1198  03DB  00A2               	movwf	??_main+2
  1199  03DC  30A7               	movlw	167
  1200  03DD  00A1               	movwf	??_main+1
  1201  03DE  3065               	movlw	101
  1202  03DF  00A0               	movwf	??_main
  1203  03E0                     u737:	
  1204  03E0  0BA0               	decfsz	??_main,f
  1205  03E1  2BE0               	goto	u737
  1206  03E2  0BA1               	decfsz	??_main+1,f
  1207  03E3  2BE0               	goto	u737
  1208  03E4  0BA2               	decfsz	??_main+2,f
  1209  03E5  2BE0               	goto	u737
  1210  03E6  2BE7               	nop2
  1211  03E7  30FE               	movlw	254
  1212  03E8  1283               	bcf	3,5	;RP0=0, select bank0
  1213  03E9  00A2               	movwf	??_main+2
  1214  03EA  30A7               	movlw	167
  1215  03EB  00A1               	movwf	??_main+1
  1216  03EC  3065               	movlw	101
  1217  03ED  00A0               	movwf	??_main
  1218  03EE                     u747:	
  1219  03EE  0BA0               	decfsz	??_main,f
  1220  03EF  2BEE               	goto	u747
  1221  03F0  0BA1               	decfsz	??_main+1,f
  1222  03F1  2BEE               	goto	u747
  1223  03F2  0BA2               	decfsz	??_main+2,f
  1224  03F3  2BEE               	goto	u747
  1225  03F4  2BF5               	nop2
  1226  03F5  3001               	movlw	1
  1227  03F6  1283               	bcf	3,5	;RP0=0, select bank0
  1228  03F7  07A3               	addwf	main@i,f
  1229  03F8  1803               	skipnc
  1230  03F9  0AA4               	incf	main@i+1,f
  1231  03FA  3000               	movlw	0
  1232  03FB  07A4               	addwf	main@i+1,f
  1233  03FC  2878               	goto	L2
  1234  03FD                     __end_of_main:	
  1235                           ;main.c: 80: }
  1236                           ;main.c: 82: GPIObits.GP1 = 1;
  1237                           
  1238  005E                     btemp	set	94	;btemp
  1239  005E                     wtemp0	set	94


Data Sizes:
    Strings     0
    Constant    0
    Data        0
    BSS         0
    Persistent  0
    Stack       0

Auto Spaces:
    Space          Size  Autos    Used
    COMMON            0      0       0
    BANK0            62      5       5

Pointer List with Targets:

    None.

Critical Paths under _main in COMMON

    None.

Critical Paths under _main in BANK0

    None.

Call Graph Tables:

 ---------------------------------------------------------------------------------
 (Depth) Function   	        Calls       Base Space   Used Autos Params    Refs
 ---------------------------------------------------------------------------------
 (0) _main                                                 5     5      0      46
                                              0 BANK0      5     5      0
 ---------------------------------------------------------------------------------
 Estimated maximum stack depth 0
 ---------------------------------------------------------------------------------

 Call Graph Graphs:

 _main (ROOT)

 Address spaces:
Name               Size   Autos  Total    Cost      Usage
BITCOMMON            0      0       0       0        0.0%
EEDATA              80      0       0       0        0.0%
NULL                 0      0       0       0        0.0%
CODE                 0      0       0       0        0.0%
BITSFR0              0      0       0       1        0.0%
SFR0                 0      0       0       1        0.0%
COMMON               0      0       0       1        0.0%
BITSFR1              0      0       0       2        0.0%
SFR1                 0      0       0       2        0.0%
STACK                0      0       0       2        0.0%
BITBANK0            3E      0       0       3        0.0%
BANK0               3E      5       5       4        8.1%
ABS                  0      0       0       5        0.0%
DATA                 0      0       0       6        0.0%


Microchip Technology PIC Macro Assembler V1.41 build -162212810 
Symbol Table                                                                                   Tue Jul 11 23:42:51 2017

             __CFG_CP$ON 0000              __CFG_CPD$ON 0000                       u35 0081  
                     u57 0019                       u67 0027                       u77 0035  
                     u87 0043                       u97 0051                      u107 005F  
                    u117 006D                      u207 00FA                      u127 008A  
                    u217 0108                      u137 0098                      u307 0186  
                    u227 0116                      u147 00A6                      u317 0194  
                    u237 0124                      u157 00B4                      u407 0212  
                    u327 01A2                      u247 0132                      u167 00C2  
                    u417 0220                      u337 01B0                      u257 0140  
                    u177 00D0                      u507 029E                      u427 022E  
                    u347 01BE                      u267 014E                      u187 00DE  
                    u517 02AC                      u437 023C                      u357 01CC  
                    u277 015C                      u197 00EC                      u607 032A  
                    u527 02BA                      u447 024A                      u367 01DA  
                    u287 016A                      u617 0338                      u537 02C8  
                    u457 0258                      u377 01E8                      u297 0178  
                    u707 03B6                      u627 0346                      u547 02D6  
                    u467 0266                      u387 01F6                      u717 03C4  
                    u637 0354                      u557 02E4                      u477 0274  
                    u397 0204                      u727 03D2                      u647 0362  
                    u567 02F2                      u487 0282                      u737 03E0  
                    u657 0370                      u577 0300                      u497 0290  
                    u747 03EE                      u667 037E                      u587 030E  
                    u677 038C                      u597 031C                      u687 039A  
                    u697 03A8                     _main 000F                     btemp 005E  
                   start 0000                    ?_main 0020            __CFG_WDTE$OFF 0000  
                  main@i 0023           __CFG_BOREN$OFF 0000                    status 0003  
                  wtemp0 005E           __CFG_MCLRE$OFF 0000          __initialization 03FD  
           __end_of_main 03FD                   ??_main 0020           __CFG_PWRTE$OFF 0000  
__end_of__initialization 03FD               __pmaintext 000F     end_of_initialization 03FD  
    start_initialization 03FD                ___latbits 0000            __pcstackBANK0 0020  
               _GPIObits 0005            __size_of_main 03EE        __CFG_FOSC$INTRCIO 0000  
             _TRISIObits 0085  
