

HI-TECH Software PIC LITE Macro Assembler V9.83 build 10920 
                                                                                               Sat May 04 20:00:10 2013

HI-TECH Software Omniscient Code Generator (Lite mode) build 10920
     1  0000                     opt subtitle "HI-TECH Software Omniscient Code Generator (Lite mode) build 10920"
     2                           
     3                           opt pagewidth 120
     4                           
     5                           	opt lm
     6                           
     7                           	processor	16F628A
     8                           clrc	macro
     9                           	bcf	3,0
    10  0000                     	endm
    11                           clrz	macro
    12                           	bcf	3,2
    13  0000                     	endm
    14                           setc	macro
    15                           	bsf	3,0
    16  0000                     	endm
    17                           setz	macro
    18                           	bsf	3,2
    19  0000                     	endm
    20                           skipc	macro
    21                           	btfss	3,0
    22  0000                     	endm
    23                           skipz	macro
    24                           	btfss	3,2
    25  0000                     	endm
    26                           skipnc	macro
    27                           	btfsc	3,0
    28  0000                     	endm
    29                           skipnz	macro
    30                           	btfsc	3,2
    31  0000                     	endm
    32  0000                     indf	equ	0
    33  0000                     indf0	equ	0
    34  0002                     pc	equ	2
    35  0002                     pcl	equ	2
    36  0003                     status	equ	3
    37  0004                     fsr	equ	4
    38  0004                     fsr0	equ	4
    39  0001                     c	equ	1
    40  0000                     z	equ	0
    41  000A                     pclath	equ	10
    42                           # 16 "Calling_systemV1.c"
    43                           	psect config,class=CONFIG,delta=2 ;#
    44                           # 16 "Calling_systemV1.c"
    45  2007  DE70               	dw 0xDFFF & 0xFFFB & 0xFFF7 & 0xFFFC & 0xFFFF & 0xFF7F & 0xFEFF ;#
    46                           	FNCALL	_main,_Init
    47                           	FNCALL	_main,_DisplayIndex
    48                           	FNCALL	_DisplayIndex,_GetNextIndex
    49                           	FNCALL	_DisplayIndex,_Display
    50                           	FNROOT	_main
    51                           	FNCALL	_Interrupt_Handler,_InsertNewIndex
    52                           	FNCALL	_InsertNewIndex,___awmod
    53                           	FNCALL	_InsertNewIndex,___awdiv
    54                           	FNCALL	intlevel1,_Interrupt_Handler
    55                           	global	intlevel1
    56                           	FNROOT	intlevel1
    57                           	global	_visible
    58                           psect	idataBANK0,class=CODE,space=0,delta=2
    59                           global __pidataBANK0
    60  04E1                     __pidataBANK0:
    61                           	file	"Calling_systemV1.c"
    62                           	line	35
    63                           
    64                           ;initializer for _visible
    65  04E1  3401               	retlw	01h
    66  04E2  3401               	retlw	01h
    67  04E3  3401               	retlw	01h
    68  04E4  3401               	retlw	01h
    69  04E5  3401               	retlw	01h
    70                           	global	_flick
    71                           	global	_ten
    72                           	global	_timeout
    73                           	global	_unit
    74                           	global	_curFlipFlopTick
    75                           	global	_curNorIndex
    76                           	global	_curTick
    77                           	global	_curViewIndex
    78                           	global	_moved
    79                           	global	_numNorCount
    80                           	global	_prioritized
    81                           	global	_mode
    82                           	global	_tmp
    83                           	global	_PORTA
    84  0005                     _PORTA	set	5
    85                           	global	_PORTB
    86  0006                     _PORTB	set	6
    87                           	global	_CARRY
    88  0018                     _CARRY	set	24
    89                           	global	_GIE
    90  005F                     _GIE	set	95
    91                           	global	_PEIE
    92  005E                     _PEIE	set	94
    93                           	global	_RB4
    94  0034                     _RB4	set	52
    95                           	global	_RB5
    96  0035                     _RB5	set	53
    97                           	global	_RB6
    98  0036                     _RB6	set	54
    99                           	global	_RB7
   100  0037                     _RB7	set	55
   101                           	global	_RBIE
   102  005B                     _RBIE	set	91
   103                           	global	_RBIF
   104  0058                     _RBIF	set	88
   105                           	global	_T0IE
   106  005D                     _T0IE	set	93
   107                           	global	_T1OSCEN
   108  0083                     _T1OSCEN	set	131
   109                           	global	_EEADR
   110  009B                     _EEADR	set	155
   111                           	global	_EECON1
   112  009C                     _EECON1	set	156
   113                           	global	_EECON2
   114  009D                     _EECON2	set	157
   115                           	global	_EEDATA
   116  009A                     _EEDATA	set	154
   117                           	global	_TRISA
   118  0085                     _TRISA	set	133
   119                           	global	_TRISB
   120  0086                     _TRISB	set	134
   121                           	global	_CMIE
   122  0466                     _CMIE	set	1126
   123                           	global	_OSCF
   124  0473                     _OSCF	set	1139
   125                           	global	_RD
   126  04E0                     _RD	set	1248
   127                           	global	_VREN
   128  04FF                     _VREN	set	1279
   129                           	global	_WR
   130  04E1                     _WR	set	1249
   131                           	global	_WREN
   132  04E2                     _WREN	set	1250
   133                           	global	_nRBPU
   134  040F                     _nRBPU	set	1039
   135                           	file	"C:\DOCUME~1\Admin\LOCALS~1\Temp\s2uo."
   136                           	line	#
   137                           psect cinit,class=CODE,delta=2
   138                           global start_initialization
   139  04B3                     start_initialization:
   140                           
   141                           psect	bssCOMMON,class=COMMON,space=1
   142                           global __pbssCOMMON
   143  007C                     __pbssCOMMON:
   144  007C                     _mode:
   145  007C                            ds      1
   146                           
   147  007D                     _tmp:
   148  007D                            ds      1
   149                           
   150                           psect	bssBANK0,class=BANK0,space=1
   151                           global __pbssBANK0
   152  0020                     __pbssBANK0:
   153  0020                     _flick:
   154  0020                            ds      5
   155                           
   156  0025                     _ten:
   157  0025                            ds      5
   158                           
   159  002A                     _timeout:
   160  002A                            ds      5
   161                           
   162  002F                     _unit:
   163  002F                            ds      5
   164                           
   165  0034                     _curFlipFlopTick:
   166  0034                            ds      1
   167                           
   168  0035                     _curNorIndex:
   169  0035                            ds      1
   170                           
   171  0036                     _curTick:
   172  0036                            ds      1
   173                           
   174  0037                     _curViewIndex:
   175  0037                            ds      1
   176                           
   177  0038                     _moved:
   178  0038                            ds      1
   179                           
   180  0039                     _numNorCount:
   181  0039                            ds      1
   182                           
   183  003A                     _prioritized:
   184  003A                            ds      1
   185                           
   186                           psect	dataBANK0,class=BANK0,space=1
   187                           global __pdataBANK0
   188  004C                     __pdataBANK0:
   189                           	file	"Calling_systemV1.c"
   190  004C                     _visible:
   191  004C                            ds      5
   192                           
   193                           psect clrtext,class=CODE,delta=2
   194                           global clear_ram
   195                           ;	Called with FSR containing the base address, and
   196                           ;	W with the last address+1
   197  04D9                     clear_ram:
   198  04D9  0064               	clrwdt			;clear the watchdog before getting into this loop
   199  04DA                     clrloop:
   200  04DA  0180               	clrf	indf		;clear RAM location pointed to by FSR
   201  04DB  0A84               	incf	fsr,f		;increment pointer
   202  04DC  0604               	xorwf	fsr,w		;XOR with final address
   203  04DD  1903               	btfsc	status,2	;have we reached the end yet?
   204  04DE  3400               	retlw	0		;all done for this memory range, return
   205  04DF  0604               	xorwf	fsr,w		;XOR again to restore value
   206  04E0  2CDA               	goto	clrloop		;do the next byte
   207                           
   208                           ; Clear objects allocated to COMMON
   209                           psect cinit,class=CODE,delta=2
   210  04B3  01FC               	clrf	((__pbssCOMMON)+0)&07Fh
   211  04B4  01FD               	clrf	((__pbssCOMMON)+1)&07Fh
   212                           ; Clear objects allocated to BANK0
   213                           psect cinit,class=CODE,delta=2
   214  04B5  1383               	bcf	status, 7	;select IRP bank0
   215  04B6  3020               	movlw	low(__pbssBANK0)
   216  04B7  0084               	movwf	fsr
   217  04B8  303B               	movlw	low((__pbssBANK0)+01Bh)
   218  04B9  24D9               	fcall	clear_ram
   219                           ; Initialize objects allocated to BANK0
   220                           	global __pidataBANK0
   221                           psect cinit,class=CODE,delta=2
   222  04BA  24E1               	fcall	__pidataBANK0+0		;fetch initializer
   223  04BB  00CC               	movwf	__pdataBANK0+0&07fh		
   224  04BC  24E2               	fcall	__pidataBANK0+1		;fetch initializer
   225  04BD  00CD               	movwf	__pdataBANK0+1&07fh		
   226  04BE  24E3               	fcall	__pidataBANK0+2		;fetch initializer
   227  04BF  00CE               	movwf	__pdataBANK0+2&07fh		
   228  04C0  24E4               	fcall	__pidataBANK0+3		;fetch initializer
   229  04C1  00CF               	movwf	__pdataBANK0+3&07fh		
   230  04C2  24E5               	fcall	__pidataBANK0+4		;fetch initializer
   231  04C3  00D0               	movwf	__pdataBANK0+4&07fh		
   232                           psect cinit,class=CODE,delta=2
   233                           global end_of_initialization
   234                           
   235                           ;End of C runtime variable initialization code
   236                           
   237  04C4                     end_of_initialization:
   238  04C4  0183               clrf status
   239  04C5  2CD0               ljmp _main	;jump to C main() function
   240                           psect	cstackCOMMON,class=COMMON,space=1
   241                           global __pcstackCOMMON
   242  0070                     __pcstackCOMMON:
   243                           	global	?_Init
   244  0070                     ?_Init:	; 0 bytes @ 0x0
   245                           	global	?_InsertNewIndex
   246  0070                     ?_InsertNewIndex:	; 0 bytes @ 0x0
   247                           	global	?_DisplayIndex
   248  0070                     ?_DisplayIndex:	; 0 bytes @ 0x0
   249                           	global	?_main
   250  0070                     ?_main:	; 0 bytes @ 0x0
   251                           	global	?_Interrupt_Handler
   252  0070                     ?_Interrupt_Handler:	; 0 bytes @ 0x0
   253                           	global	?_GetNextIndex
   254  0070                     ?_GetNextIndex:	; 1 bytes @ 0x0
   255                           	global	?___awdiv
   256  0070                     ?___awdiv:	; 2 bytes @ 0x0
   257                           	global	?___awmod
   258  0070                     ?___awmod:	; 2 bytes @ 0x0
   259                           	global	___awdiv@divisor
   260  0070                     ___awdiv@divisor:	; 2 bytes @ 0x0
   261                           	global	___awmod@divisor
   262  0070                     ___awmod@divisor:	; 2 bytes @ 0x0
   263  0070                     	ds	2
   264                           	global	___awdiv@dividend
   265  0072                     ___awdiv@dividend:	; 2 bytes @ 0x2
   266                           	global	___awmod@dividend
   267  0072                     ___awmod@dividend:	; 2 bytes @ 0x2
   268  0072                     	ds	2
   269                           	global	??___awdiv
   270  0074                     ??___awdiv:	; 0 bytes @ 0x4
   271                           	global	??___awmod
   272  0074                     ??___awmod:	; 0 bytes @ 0x4
   273  0074                     	ds	1
   274                           	global	___awdiv@counter
   275  0075                     ___awdiv@counter:	; 1 bytes @ 0x5
   276                           	global	___awmod@counter
   277  0075                     ___awmod@counter:	; 1 bytes @ 0x5
   278  0075                     	ds	1
   279                           	global	___awdiv@sign
   280  0076                     ___awdiv@sign:	; 1 bytes @ 0x6
   281                           	global	___awmod@sign
   282  0076                     ___awmod@sign:	; 1 bytes @ 0x6
   283  0076                     	ds	1
   284                           	global	___awdiv@quotient
   285  0077                     ___awdiv@quotient:	; 2 bytes @ 0x7
   286  0077                     	ds	2
   287                           	global	??_InsertNewIndex
   288  0079                     ??_InsertNewIndex:	; 0 bytes @ 0x9
   289  0079                     	ds	3
   290                           psect	cstackBANK0,class=BANK0,space=1
   291                           global __pcstackBANK0
   292  003B                     __pcstackBANK0:
   293                           	global	InsertNewIndex@num
   294  003B                     InsertNewIndex@num:	; 1 bytes @ 0x0
   295  003B                     	ds	1
   296                           	global	InsertNewIndex@t_unit
   297  003C                     InsertNewIndex@t_unit:	; 1 bytes @ 0x1
   298  003C                     	ds	1
   299                           	global	InsertNewIndex@t_ten
   300  003D                     InsertNewIndex@t_ten:	; 1 bytes @ 0x2
   301  003D                     	ds	1
   302                           	global	InsertNewIndex@i
   303  003E                     InsertNewIndex@i:	; 1 bytes @ 0x3
   304  003E                     	ds	1
   305                           	global	InsertNewIndex@i_215
   306  003F                     InsertNewIndex@i_215:	; 1 bytes @ 0x4
   307  003F                     	ds	1
   308                           	global	??_Interrupt_Handler
   309  0040                     ??_Interrupt_Handler:	; 0 bytes @ 0x5
   310  0040                     	ds	4
   311                           	global	??_Init
   312  0044                     ??_Init:	; 0 bytes @ 0x9
   313                           	global	?_Display
   314  0044                     ?_Display:	; 0 bytes @ 0x9
   315                           	global	??_GetNextIndex
   316  0044                     ??_GetNextIndex:	; 0 bytes @ 0x9
   317                           	global	Display@pos
   318  0044                     Display@pos:	; 1 bytes @ 0x9
   319  0044                     	ds	1
   320                           	global	??_Display
   321  0045                     ??_Display:	; 0 bytes @ 0xA
   322                           	global	Display@num
   323  0045                     Display@num:	; 1 bytes @ 0xA
   324  0045                     	ds	1
   325                           	global	GetNextIndex@index
   326  0046                     GetNextIndex@index:	; 1 bytes @ 0xB
   327  0046                     	ds	1
   328                           	global	??_DisplayIndex
   329  0047                     ??_DisplayIndex:	; 0 bytes @ 0xC
   330  0047                     	ds	2
   331                           	global	DisplayIndex@index
   332  0049                     DisplayIndex@index:	; 1 bytes @ 0xE
   333  0049                     	ds	1
   334                           	global	DisplayIndex@i
   335  004A                     DisplayIndex@i:	; 1 bytes @ 0xF
   336  004A                     	ds	1
   337                           	global	DisplayIndex@j
   338  004B                     DisplayIndex@j:	; 1 bytes @ 0x10
   339  004B                     	ds	1
   340                           	global	??_main
   341  004C                     ??_main:	; 0 bytes @ 0x11
   342 ;;Data sizes: Strings 0, constant 0, data 5, bss 29, persistent 0 stack 0
   343 ;;Auto spaces:   Size  Autos    Used
   344 ;; COMMON          14     12      14
   345 ;; BANK0           80     17      49
   346 ;; BANK1           80      0       0
   347 ;; BANK2           48      0       0
   348                           
   349 ;;
   350 ;; Pointer list with targets:
   351                           
   352 ;; ?___awdiv	int  size(1) Largest target is 0
   353 ;;
   354 ;; ?___awmod	int  size(1) Largest target is 0
   355 ;;
   356                           
   357                           
   358 ;;
   359 ;; Critical Paths under _main in COMMON
   360 ;;
   361 ;;   None.
   362 ;;
   363 ;; Critical Paths under _Interrupt_Handler in COMMON
   364 ;;
   365 ;;   _Interrupt_Handler->_InsertNewIndex
   366 ;;   _InsertNewIndex->___awdiv
   367 ;;
   368 ;; Critical Paths under _main in BANK0
   369 ;;
   370 ;;   _main->_DisplayIndex
   371 ;;   _DisplayIndex->_GetNextIndex
   372 ;;
   373 ;; Critical Paths under _Interrupt_Handler in BANK0
   374 ;;
   375 ;;   _Interrupt_Handler->_InsertNewIndex
   376 ;;
   377 ;; Critical Paths under _main in BANK1
   378 ;;
   379 ;;   None.
   380 ;;
   381 ;; Critical Paths under _Interrupt_Handler in BANK1
   382 ;;
   383 ;;   None.
   384 ;;
   385 ;; Critical Paths under _main in BANK2
   386 ;;
   387 ;;   None.
   388 ;;
   389 ;; Critical Paths under _Interrupt_Handler in BANK2
   390 ;;
   391 ;;   None.
   392                           
   393 ;;
   394 ;;Main: autosize = 0, tempsize = 0, incstack = 0, save=0
   395 ;;
   396                           
   397 ;;
   398 ;;Call Graph Tables:
   399 ;;
   400 ;; ---------------------------------------------------------------------------------
   401 ;; (Depth) Function   	        Calls       Base Space   Used Autos Params    Refs
   402 ;; ---------------------------------------------------------------------------------
   403 ;; (0) _main                                                 0     0      0     708
   404 ;;                               _Init
   405 ;;                       _DisplayIndex
   406 ;; ---------------------------------------------------------------------------------
   407 ;; (1) _DisplayIndex                                         5     5      0     708
   408 ;;                                             12 BANK0      5     5      0
   409 ;;                       _GetNextIndex
   410 ;;                            _Display
   411 ;; ---------------------------------------------------------------------------------
   412 ;; (2) _GetNextIndex                                         3     3      0      66
   413 ;;                                              9 BANK0      3     3      0
   414 ;; ---------------------------------------------------------------------------------
   415 ;; (2) _Display                                              2     1      1     242
   416 ;;                                              9 BANK0      2     1      1
   417 ;; ---------------------------------------------------------------------------------
   418 ;; (1) _Init                                                 0     0      0       0
   419 ;; ---------------------------------------------------------------------------------
   420 ;; Estimated maximum stack depth 2
   421 ;; ---------------------------------------------------------------------------------
   422 ;; (Depth) Function   	        Calls       Base Space   Used Autos Params    Refs
   423 ;; ---------------------------------------------------------------------------------
   424 ;; (3) _Interrupt_Handler                                    4     4      0    1064
   425 ;;                                              5 BANK0      4     4      0
   426 ;;                     _InsertNewIndex
   427 ;; ---------------------------------------------------------------------------------
   428 ;; (4) _InsertNewIndex                                       8     8      0    1064
   429 ;;                                              9 COMMON     3     3      0
   430 ;;                                              0 BANK0      5     5      0
   431 ;;                            ___awmod
   432 ;;                            ___awdiv
   433 ;; ---------------------------------------------------------------------------------
   434 ;; (5) ___awmod                                              7     3      4     296
   435 ;;                                              0 COMMON     7     3      4
   436 ;; ---------------------------------------------------------------------------------
   437 ;; (5) ___awdiv                                              9     5      4     300
   438 ;;                                              0 COMMON     9     5      4
   439 ;; ---------------------------------------------------------------------------------
   440 ;; Estimated maximum stack depth 5
   441 ;; ---------------------------------------------------------------------------------
   442                           
   443 ;; Call Graph Graphs:
   444                           
   445 ;; _main (ROOT)
   446 ;;   _Init
   447 ;;   _DisplayIndex
   448 ;;     _GetNextIndex
   449 ;;     _Display
   450 ;;
   451 ;; _Interrupt_Handler (ROOT)
   452 ;;   _InsertNewIndex
   453 ;;     ___awmod
   454 ;;     ___awdiv
   455 ;;
   456                           
   457 ;; Address spaces:
   458                           
   459 ;;Name               Size   Autos  Total    Cost      Usage
   460 ;;SFR3                 0      0       0       4        0.0%
   461 ;;BITSFR3              0      0       0       4        0.0%
   462 ;;BANK2               30      0       0       9        0.0%
   463 ;;BITBANK2            30      0       0       8        0.0%
   464 ;;SFR2                 0      0       0       5        0.0%
   465 ;;BITSFR2              0      0       0       5        0.0%
   466 ;;SFR1                 0      0       0       2        0.0%
   467 ;;BITSFR1              0      0       0       2        0.0%
   468 ;;BANK1               50      0       0       7        0.0%
   469 ;;BITBANK1            50      0       0       6        0.0%
   470 ;;CODE                 0      0       0       0        0.0%
   471 ;;DATA                 0      0      47      10        0.0%
   472 ;;ABS                  0      0      3F       4        0.0%
   473 ;;NULL                 0      0       0       0        0.0%
   474 ;;STACK                0      0       8       2        0.0%
   475 ;;BANK0               50     11      31       3       61.3%
   476 ;;BITBANK0            50      0       0       5        0.0%
   477 ;;SFR0                 0      0       0       1        0.0%
   478 ;;BITSFR0              0      0       0       1        0.0%
   479 ;;COMMON               E      C       E       1      100.0%
   480 ;;BITCOMMON            E      0       0       0        0.0%
   481 ;;EEDATA              80      0       0       0        0.0%
   482                           
   483                           	global	_main
   484                           psect	maintext,global,class=CODE,delta=2
   485                           global __pmaintext
   486  04D0                     __pmaintext:
   487                           
   488 ;; *************** function _main *****************
   489 ;; Defined at:
   490 ;;		line 462 in file "Calling_systemV1.c"
   491 ;; Parameters:    Size  Location     Type
   492 ;;		None
   493 ;; Auto vars:     Size  Location     Type
   494 ;;		None
   495 ;; Return value:  Size  Location     Type
   496 ;;		None               void
   497 ;; Registers used:
   498 ;;		wreg, fsr0l, fsr0h, status,2, status,0, pclath, cstack
   499 ;; Tracked objects:
   500 ;;		On entry : 17F/0
   501 ;;		On exit  : 0/0
   502 ;;		Unchanged: 0/0
   503 ;; Data sizes:     COMMON   BANK0   BANK1   BANK2
   504 ;;      Params:         0       0       0       0
   505 ;;      Locals:         0       0       0       0
   506 ;;      Temps:          0       0       0       0
   507 ;;      Totals:         0       0       0       0
   508 ;;Total ram usage:        0 bytes
   509 ;; Hardware stack levels required when called:    5
   510 ;; This function calls:
   511 ;;		_Init
   512 ;;		_DisplayIndex
   513 ;; This function is called by:
   514 ;;		Startup code after reset
   515 ;; This function uses a non-reentrant model
   516 ;;
   517                           psect	maintext
   518                           	file	"Calling_systemV1.c"
   519                           	line	462
   520                           	global	__size_of_main
   521  0009                     	__size_of_main	equ	__end_of_main-_main
   522                           	
   523  04D0                     _main:	
   524                           	opt	stack 3
   525                           ; Regs used in _main: [wreg-fsr0h+status,2+status,0+pclath+cstack]
   526                           	line	463
   527                           	
   528  04D0                     l2913:	
   529                           ;Calling_systemV1.c: 463: Init();
   530  04D0  249A               	fcall	_Init
   531  04D1  2CD2               	goto	l2915
   532                           	line	465
   533                           ;Calling_systemV1.c: 465: while(1)
   534                           	
   535  04D2                     l464:	
   536                           	line	467
   537                           	
   538  04D2                     l2915:	
   539                           ;Calling_systemV1.c: 466: {
   540                           ;Calling_systemV1.c: 467: DisplayIndex(curViewIndex);
   541  04D2  1283               	bcf	status, 5	;RP0=0, select bank0
   542  04D3  1303               	bcf	status, 6	;RP1=0, select bank0
   543  04D4  0837               	movf	(_curViewIndex),w
   544  04D5  2011               	fcall	_DisplayIndex
   545  04D6  2CD2               	goto	l2915
   546                           	line	469
   547                           	
   548  04D7                     l465:	
   549                           	line	465
   550  04D7  2CD2               	goto	l2915
   551                           	
   552  04D8                     l466:	
   553                           	line	487
   554                           	
   555  04D8                     l467:	
   556                           	global	start
   557  04D8  2810               	ljmp	start
   558                           	opt stack 0
   559                           GLOBAL	__end_of_main
   560  04D9                     	__end_of_main:
   561 ;; =============== function _main ends ============
   562                           
   563                           	signat	_main,88
   564                           	global	_DisplayIndex
   565                           psect	text207,local,class=CODE,delta=2
   566                           global __ptext207
   567  0011                     __ptext207:
   568                           
   569 ;; *************** function _DisplayIndex *****************
   570 ;; Defined at:
   571 ;;		line 333 in file "Calling_systemV1.c"
   572 ;; Parameters:    Size  Location     Type
   573 ;;  index           1    wreg     unsigned char 
   574 ;; Auto vars:     Size  Location     Type
   575 ;;  index           1   14[BANK0 ] unsigned char 
   576 ;;  i               1   15[BANK0 ] unsigned char 
   577 ;;  j               1   16[BANK0 ] unsigned char 
   578 ;; Return value:  Size  Location     Type
   579 ;;		None               void
   580 ;; Registers used:
   581 ;;		wreg, fsr0l, fsr0h, status,2, status,0, pclath, cstack
   582 ;; Tracked objects:
   583 ;;		On entry : 0/0
   584 ;;		On exit  : 0/0
   585 ;;		Unchanged: 0/0
   586 ;; Data sizes:     COMMON   BANK0   BANK1   BANK2
   587 ;;      Params:         0       0       0       0
   588 ;;      Locals:         0       3       0       0
   589 ;;      Temps:          0       2       0       0
   590 ;;      Totals:         0       5       0       0
   591 ;;Total ram usage:        5 bytes
   592 ;; Hardware stack levels used:    1
   593 ;; Hardware stack levels required when called:    4
   594 ;; This function calls:
   595 ;;		_GetNextIndex
   596 ;;		_Display
   597 ;; This function is called by:
   598 ;;		_main
   599 ;; This function uses a non-reentrant model
   600 ;;
   601                           psect	text207
   602                           	file	"Calling_systemV1.c"
   603                           	line	333
   604                           	global	__size_of_DisplayIndex
   605  0173                     	__size_of_DisplayIndex	equ	__end_of_DisplayIndex-_DisplayIndex
   606                           	
   607  0011                     _DisplayIndex:	
   608                           	opt	stack 3
   609                           ; Regs used in _DisplayIndex: [wreg-fsr0h+status,2+status,0+pclath+cstack]
   610                           ;DisplayIndex@index stored from wreg
   611                           	line	335
   612  0011  1283               	bcf	status, 5	;RP0=0, select bank0
   613  0012  1303               	bcf	status, 6	;RP1=0, select bank0
   614  0013  00C9               	movwf	(DisplayIndex@index)
   615                           	
   616  0014                     l2815:	
   617                           ;Calling_systemV1.c: 334: unsigned char j;
   618                           ;Calling_systemV1.c: 335: curFlipFlopTick++;
   619  0014  3001               	movlw	(01h)
   620  0015  00C7               	movwf	(??_DisplayIndex+0)+0
   621  0016  0847               	movf	(??_DisplayIndex+0)+0,w
   622  0017  07B4               	addwf	(_curFlipFlopTick),f
   623                           	line	336
   624                           	
   625  0018                     l2817:	
   626                           ;Calling_systemV1.c: 336: if(curFlipFlopTick == 10)
   627  0018  0834               	movf	(_curFlipFlopTick),w
   628  0019  3A0A               	xorlw	0Ah
   629  001A  1D03               	skipz
   630  001B  281D               	goto	u3081
   631  001C  281E               	goto	u3080
   632  001D                     u3081:
   633  001D  283E               	goto	l2827
   634  001E                     u3080:
   635                           	line	338
   636                           	
   637  001E                     l2819:	
   638                           ;Calling_systemV1.c: 337: {
   639                           ;Calling_systemV1.c: 338: curFlipFlopTick = 0;
   640  001E  01B4               	clrf	(_curFlipFlopTick)
   641                           	line	339
   642                           	
   643  001F                     l2821:	
   644                           ;Calling_systemV1.c: 339: if(flick[curViewIndex] > 0)
   645  001F  0837               	movf	(_curViewIndex),w
   646  0020  3E20               	addlw	_flick&0ffh
   647  0021  0084               	movwf	fsr0
   648  0022  1383               	bcf	status, 7	;select IRP bank0
   649  0023  0880               	movf	indf
   650  0024  1903               	skipnz
   651  0025  2827               	goto	u3091
   652  0026  2828               	goto	u3090
   653  0027                     u3091:
   654  0027  2836               	goto	l2825
   655  0028                     u3090:
   656                           	line	341
   657                           	
   658  0028                     l2823:	
   659                           ;Calling_systemV1.c: 340: {
   660                           ;Calling_systemV1.c: 341: visible[curViewIndex] = (visible[curViewIndex] == 0) ? 1: 0;
   661  0028  0837               	movf	(_curViewIndex),w
   662  0029  3E4C               	addlw	_visible&0ffh
   663  002A  0084               	movwf	fsr0
   664  002B  0880               	movf	indf
   665  002C  3000               	movlw	0
   666  002D  1903               	skipnz
   667  002E  3001               	movlw	1
   668  002F  00C7               	movwf	(??_DisplayIndex+0)+0
   669  0030  0837               	movf	(_curViewIndex),w
   670  0031  3E4C               	addlw	_visible&0ffh
   671  0032  0084               	movwf	fsr0
   672  0033  0847               	movf	(??_DisplayIndex+0)+0,w
   673  0034  0080               	movwf	indf
   674                           	line	342
   675                           ;Calling_systemV1.c: 342: }
   676  0035  283E               	goto	l2827
   677                           	line	343
   678                           	
   679  0036                     l437:	
   680                           	line	345
   681                           	
   682  0036                     l2825:	
   683                           ;Calling_systemV1.c: 343: else
   684                           ;Calling_systemV1.c: 344: {
   685                           ;Calling_systemV1.c: 345: visible[curViewIndex] = 1;
   686  0036  0837               	movf	(_curViewIndex),w
   687  0037  3E4C               	addlw	_visible&0ffh
   688  0038  0084               	movwf	fsr0
   689  0039  0180               	clrf	indf
   690  003A  1403               	bsf	status,0
   691  003B  0D80               	rlf	indf,f
   692  003C  283E               	goto	l2827
   693                           	line	346
   694                           	
   695  003D                     l438:	
   696  003D  283E               	goto	l2827
   697                           	line	347
   698                           	
   699  003E                     l436:	
   700                           	line	349
   701                           	
   702  003E                     l2827:	
   703                           ;Calling_systemV1.c: 346: }
   704                           ;Calling_systemV1.c: 347: }
   705                           ;Calling_systemV1.c: 349: curTick++;
   706  003E  3001               	movlw	(01h)
   707  003F  00C7               	movwf	(??_DisplayIndex+0)+0
   708  0040  0847               	movf	(??_DisplayIndex+0)+0,w
   709  0041  07B6               	addwf	(_curTick),f
   710                           	line	350
   711                           	
   712  0042                     l2829:	
   713                           ;Calling_systemV1.c: 350: if(curTick == 50)
   714  0042  0836               	movf	(_curTick),w
   715  0043  3A32               	xorlw	032h
   716  0044  1D03               	skipz
   717  0045  2847               	goto	u3101
   718  0046  2848               	goto	u3100
   719  0047                     u3101:
   720  0047  2945               	goto	l2903
   721  0048                     u3100:
   722                           	line	352
   723                           	
   724  0048                     l2831:	
   725                           ;Calling_systemV1.c: 351: {
   726                           ;Calling_systemV1.c: 352: curTick = 0;
   727  0048  01B6               	clrf	(_curTick)
   728                           	line	354
   729                           	
   730  0049                     l2833:	
   731                           ;Calling_systemV1.c: 354: if(flick[curViewIndex] > 0)
   732  0049  0837               	movf	(_curViewIndex),w
   733  004A  3E20               	addlw	_flick&0ffh
   734  004B  0084               	movwf	fsr0
   735  004C  1383               	bcf	status, 7	;select IRP bank0
   736  004D  0880               	movf	indf
   737  004E  1903               	skipnz
   738  004F  2851               	goto	u3111
   739  0050  2852               	goto	u3110
   740  0051                     u3111:
   741  0051  285C               	goto	l440
   742  0052                     u3110:
   743                           	line	356
   744                           	
   745  0052                     l2835:	
   746                           ;Calling_systemV1.c: 355: {
   747                           ;Calling_systemV1.c: 356: flick[curViewIndex]--;
   748  0052  0837               	movf	(_curViewIndex),w
   749  0053  3E20               	addlw	_flick&0ffh
   750  0054  0084               	movwf	fsr0
   751  0055  3001               	movlw	low(01h)
   752  0056  0280               	subwf	indf,f
   753                           	line	357
   754                           	
   755  0057                     l2837:	
   756                           ;Calling_systemV1.c: 357: prioritized = 1;
   757  0057  01BA               	clrf	(_prioritized)
   758  0058  1403               	bsf	status,0
   759  0059  0DBA               	rlf	(_prioritized),f
   760  005A  2983               	goto	l441
   761                           	line	358
   762                           	
   763  005B                     l2839:	
   764                           ;Calling_systemV1.c: 358: return;
   765  005B  2983               	goto	l441
   766                           	line	359
   767                           	
   768  005C                     l440:	
   769                           	line	360
   770                           ;Calling_systemV1.c: 359: }
   771                           ;Calling_systemV1.c: 360: prioritized = 0;
   772  005C  01BA               	clrf	(_prioritized)
   773                           	line	362
   774                           	
   775  005D                     l2841:	
   776                           ;Calling_systemV1.c: 362: if(numNorCount == 0)
   777  005D  08B9               	movf	(_numNorCount),f
   778  005E  1D03               	skipz
   779  005F  2861               	goto	u3121
   780  0060  2862               	goto	u3120
   781  0061                     u3121:
   782  0061  2871               	goto	l442
   783  0062                     u3120:
   784                           	line	364
   785                           	
   786  0062                     l2843:	
   787                           ;Calling_systemV1.c: 363: {
   788                           ;Calling_systemV1.c: 364: if(timeout[0] == 0)
   789  0062  08AA               	movf	(_timeout),f
   790  0063  1D03               	skipz
   791  0064  2866               	goto	u3131
   792  0065  2867               	goto	u3130
   793  0066                     u3131:
   794  0066  286D               	goto	l2847
   795  0067                     u3130:
   796                           	line	366
   797                           	
   798  0067                     l2845:	
   799                           ;Calling_systemV1.c: 365: {
   800                           ;Calling_systemV1.c: 366: curNorIndex = 0;
   801  0067  01B5               	clrf	(_curNorIndex)
   802                           	line	367
   803                           ;Calling_systemV1.c: 367: curViewIndex = 0;
   804  0068  01B7               	clrf	(_curViewIndex)
   805                           	line	368
   806                           ;Calling_systemV1.c: 368: unit[0] = 0;
   807  0069  01AF               	clrf	(_unit)
   808                           	line	369
   809                           ;Calling_systemV1.c: 369: ten[0] = 0;
   810  006A  01A5               	clrf	(_ten)
   811                           	line	370
   812                           ;Calling_systemV1.c: 370: timeout[0] = 0;
   813  006B  01AA               	clrf	(_timeout)
   814                           	line	371
   815                           ;Calling_systemV1.c: 371: }
   816  006C  2906               	goto	l2881
   817                           	line	372
   818                           	
   819  006D                     l443:	
   820                           	line	374
   821                           	
   822  006D                     l2847:	
   823                           ;Calling_systemV1.c: 372: else
   824                           ;Calling_systemV1.c: 373: {
   825                           ;Calling_systemV1.c: 374: timeout[0]--;
   826  006D  3001               	movlw	low(01h)
   827  006E  02AA               	subwf	(_timeout),f
   828  006F  2906               	goto	l2881
   829                           	line	375
   830                           	
   831  0070                     l444:	
   832                           	line	376
   833                           ;Calling_systemV1.c: 375: }
   834                           ;Calling_systemV1.c: 376: }
   835  0070  2906               	goto	l2881
   836                           	line	377
   837                           	
   838  0071                     l442:	
   839                           	line	379
   840                           ;Calling_systemV1.c: 377: else
   841                           ;Calling_systemV1.c: 378: {
   842                           ;Calling_systemV1.c: 379: for(unsigned char i = 0; i < numNorCount; i++)
   843  0071  01CA               	clrf	(DisplayIndex@i)
   844  0072  28FE               	goto	l2879
   845                           	line	380
   846                           	
   847  0073                     l447:	
   848                           	line	381
   849                           	
   850  0073                     l2849:	
   851                           ;Calling_systemV1.c: 380: {
   852                           ;Calling_systemV1.c: 381: if(timeout[i] == 0)
   853  0073  084A               	movf	(DisplayIndex@i),w
   854  0074  3E2A               	addlw	_timeout&0ffh
   855  0075  0084               	movwf	fsr0
   856  0076  1383               	bcf	status, 7	;select IRP bank0
   857  0077  0880               	movf	indf,f
   858  0078  1D03               	skipz
   859  0079  287B               	goto	u3141
   860  007A  287C               	goto	u3140
   861  007B                     u3141:
   862  007B  28F2               	goto	l2875
   863  007C                     u3140:
   864                           	line	383
   865                           	
   866  007C                     l2851:	
   867                           ;Calling_systemV1.c: 382: {
   868                           ;Calling_systemV1.c: 383: if(i == curViewIndex)
   869  007C  084A               	movf	(DisplayIndex@i),w
   870  007D  0637               	xorwf	(_curViewIndex),w
   871  007E  1D03               	skipz
   872  007F  2881               	goto	u3151
   873  0080  2882               	goto	u3150
   874  0081                     u3151:
   875  0081  2886               	goto	l2855
   876  0082                     u3150:
   877                           	line	385
   878                           	
   879  0082                     l2853:	
   880                           ;Calling_systemV1.c: 384: {
   881                           ;Calling_systemV1.c: 385: moved = 1;
   882  0082  01B8               	clrf	(_moved)
   883  0083  1403               	bsf	status,0
   884  0084  0DB8               	rlf	(_moved),f
   885  0085  2886               	goto	l2855
   886                           	line	386
   887                           	
   888  0086                     l449:	
   889                           	line	387
   890                           	
   891  0086                     l2855:	
   892                           ;Calling_systemV1.c: 386: }
   893                           ;Calling_systemV1.c: 387: for(j = i; j < numNorCount - 1; j++)
   894  0086  084A               	movf	(DisplayIndex@i),w
   895  0087  00C7               	movwf	(??_DisplayIndex+0)+0
   896  0088  0847               	movf	(??_DisplayIndex+0)+0,w
   897  0089  00CB               	movwf	(DisplayIndex@j)
   898  008A  28D5               	goto	l2871
   899                           	line	388
   900                           	
   901  008B                     l451:	
   902                           	line	389
   903                           	
   904  008B                     l2857:	
   905                           ;Calling_systemV1.c: 388: {
   906                           ;Calling_systemV1.c: 389: if(curViewIndex == j + 1)
   907  008B  1283               	bcf	status, 5	;RP0=0, select bank0
   908  008C  1303               	bcf	status, 6	;RP1=0, select bank0
   909  008D  084B               	movf	(DisplayIndex@j),w
   910  008E  3E01               	addlw	low(01h)
   911  008F  00C7               	movwf	(??_DisplayIndex+0)+0
   912  0090  3000               	movlw	high(01h)
   913  0091  1803               	skipnc
   914  0092  3001               	movlw	(high(01h)+1)&0ffh
   915  0093  00C8               	movwf	((??_DisplayIndex+0)+0)+1
   916  0094  0837               	movf	(_curViewIndex),w
   917  0095  0647               	xorwf	0+(??_DisplayIndex+0)+0,w
   918  0096  0448               	iorwf	1+(??_DisplayIndex+0)+0,w
   919  0097  1D03               	skipz
   920  0098  289A               	goto	u3161
   921  0099  289B               	goto	u3160
   922  009A                     u3161:
   923  009A  28A3               	goto	l2863
   924  009B                     u3160:
   925                           	line	391
   926                           	
   927  009B                     l2859:	
   928                           ;Calling_systemV1.c: 390: {
   929                           ;Calling_systemV1.c: 391: curViewIndex = j;
   930  009B  084B               	movf	(DisplayIndex@j),w
   931  009C  00C7               	movwf	(??_DisplayIndex+0)+0
   932  009D  0847               	movf	(??_DisplayIndex+0)+0,w
   933  009E  00B7               	movwf	(_curViewIndex)
   934                           	line	392
   935                           	
   936  009F                     l2861:	
   937                           ;Calling_systemV1.c: 392: moved = 1;
   938  009F  01B8               	clrf	(_moved)
   939  00A0  1403               	bsf	status,0
   940  00A1  0DB8               	rlf	(_moved),f
   941  00A2  28A3               	goto	l2863
   942                           	line	393
   943                           	
   944  00A3                     l452:	
   945                           	line	394
   946                           	
   947  00A3                     l2863:	
   948                           ;Calling_systemV1.c: 393: }
   949                           ;Calling_systemV1.c: 394: unit[j] = unit[j + 1];
   950  00A3  084B               	movf	(DisplayIndex@j),w
   951  00A4  3E01               	addlw	01h
   952  00A5  3E2F               	addlw	_unit&0ffh
   953  00A6  0084               	movwf	fsr0
   954  00A7  1383               	bcf	status, 7	;select IRP bank0
   955  00A8  0800               	movf	indf,w
   956  00A9  00C7               	movwf	(??_DisplayIndex+0)+0
   957  00AA  084B               	movf	(DisplayIndex@j),w
   958  00AB  3E2F               	addlw	_unit&0ffh
   959  00AC  0084               	movwf	fsr0
   960  00AD  0847               	movf	(??_DisplayIndex+0)+0,w
   961  00AE  0080               	movwf	indf
   962                           	line	395
   963                           	
   964  00AF                     l2865:	
   965                           ;Calling_systemV1.c: 395: ten[j] = ten[j + 1];
   966  00AF  084B               	movf	(DisplayIndex@j),w
   967  00B0  3E01               	addlw	01h
   968  00B1  3E25               	addlw	_ten&0ffh
   969  00B2  0084               	movwf	fsr0
   970  00B3  0800               	movf	indf,w
   971  00B4  00C7               	movwf	(??_DisplayIndex+0)+0
   972  00B5  084B               	movf	(DisplayIndex@j),w
   973  00B6  3E25               	addlw	_ten&0ffh
   974  00B7  0084               	movwf	fsr0
   975  00B8  0847               	movf	(??_DisplayIndex+0)+0,w
   976  00B9  0080               	movwf	indf
   977                           	line	396
   978                           	
   979  00BA                     l2867:	
   980                           ;Calling_systemV1.c: 396: flick[j] = flick[j + 1];
   981  00BA  084B               	movf	(DisplayIndex@j),w
   982  00BB  3E01               	addlw	01h
   983  00BC  3E20               	addlw	_flick&0ffh
   984  00BD  0084               	movwf	fsr0
   985  00BE  0800               	movf	indf,w
   986  00BF  00C7               	movwf	(??_DisplayIndex+0)+0
   987  00C0  084B               	movf	(DisplayIndex@j),w
   988  00C1  3E20               	addlw	_flick&0ffh
   989  00C2  0084               	movwf	fsr0
   990  00C3  0847               	movf	(??_DisplayIndex+0)+0,w
   991  00C4  0080               	movwf	indf
   992                           	line	397
   993                           	
   994  00C5                     l2869:	
   995                           ;Calling_systemV1.c: 397: timeout[j] = timeout[j + 1];
   996  00C5  084B               	movf	(DisplayIndex@j),w
   997  00C6  3E01               	addlw	01h
   998  00C7  3E2A               	addlw	_timeout&0ffh
   999  00C8  0084               	movwf	fsr0
  1000  00C9  0800               	movf	indf,w
  1001  00CA  00C7               	movwf	(??_DisplayIndex+0)+0
  1002  00CB  084B               	movf	(DisplayIndex@j),w
  1003  00CC  3E2A               	addlw	_timeout&0ffh
  1004  00CD  0084               	movwf	fsr0
  1005  00CE  0847               	movf	(??_DisplayIndex+0)+0,w
  1006  00CF  0080               	movwf	indf
  1007                           	line	387
  1008  00D0  3001               	movlw	(01h)
  1009  00D1  00C7               	movwf	(??_DisplayIndex+0)+0
  1010  00D2  0847               	movf	(??_DisplayIndex+0)+0,w
  1011  00D3  07CB               	addwf	(DisplayIndex@j),f
  1012  00D4  28D5               	goto	l2871
  1013                           	
  1014  00D5                     l450:	
  1015                           	
  1016  00D5                     l2871:	
  1017  00D5  0839               	movf	(_numNorCount),w
  1018  00D6  3EFF               	addlw	low(-1)
  1019  00D7  00C7               	movwf	(??_DisplayIndex+0)+0
  1020  00D8  30FF               	movlw	high(-1)
  1021  00D9  1803               	skipnc
  1022  00DA  3000               	movlw	(high(-1)+1)&0ffh
  1023  00DB  00C8               	movwf	((??_DisplayIndex+0)+0)+1
  1024  00DC  0848               	movf	1+(??_DisplayIndex+0)+0,w
  1025  00DD  3A80               	xorlw	80h
  1026  00DE  3C80               	sublw	080h
  1027  00DF  1D03               	skipz
  1028  00E0  28E3               	goto	u3175
  1029  00E1  0847               	movf	0+(??_DisplayIndex+0)+0,w
  1030  00E2  024B               	subwf	(DisplayIndex@j),w
  1031  00E3                     u3175:
  1032                           
  1033  00E3  1C03               	skipc
  1034  00E4  28E6               	goto	u3171
  1035  00E5  28E7               	goto	u3170
  1036  00E6                     u3171:
  1037  00E6  288B               	goto	l2857
  1038  00E7                     u3170:
  1039  00E7  28E8               	goto	l2873
  1040                           	
  1041  00E8                     l453:	
  1042                           	line	399
  1043                           	
  1044  00E8                     l2873:	
  1045                           ;Calling_systemV1.c: 398: }
  1046                           ;Calling_systemV1.c: 399: numNorCount--;
  1047  00E8  3001               	movlw	low(01h)
  1048  00E9  1283               	bcf	status, 5	;RP0=0, select bank0
  1049  00EA  1303               	bcf	status, 6	;RP1=0, select bank0
  1050  00EB  02B9               	subwf	(_numNorCount),f
  1051                           	line	400
  1052                           ;Calling_systemV1.c: 400: curNorIndex = numNorCount - 1;
  1053  00EC  0839               	movf	(_numNorCount),w
  1054  00ED  3EFF               	addlw	0FFh
  1055  00EE  00C7               	movwf	(??_DisplayIndex+0)+0
  1056  00EF  0847               	movf	(??_DisplayIndex+0)+0,w
  1057  00F0  00B5               	movwf	(_curNorIndex)
  1058                           	line	402
  1059                           ;Calling_systemV1.c: 402: }
  1060  00F1  28F9               	goto	l2877
  1061                           	line	403
  1062                           	
  1063  00F2                     l448:	
  1064                           	line	405
  1065                           	
  1066  00F2                     l2875:	
  1067                           ;Calling_systemV1.c: 403: else
  1068                           ;Calling_systemV1.c: 404: {
  1069                           ;Calling_systemV1.c: 405: timeout[i]--;
  1070  00F2  084A               	movf	(DisplayIndex@i),w
  1071  00F3  3E2A               	addlw	_timeout&0ffh
  1072  00F4  0084               	movwf	fsr0
  1073  00F5  3001               	movlw	low(01h)
  1074  00F6  1383               	bcf	status, 7	;select IRP bank0
  1075  00F7  0280               	subwf	indf,f
  1076  00F8  28F9               	goto	l2877
  1077                           	line	406
  1078                           	
  1079  00F9                     l454:	
  1080                           	line	379
  1081                           	
  1082  00F9                     l2877:	
  1083  00F9  3001               	movlw	(01h)
  1084  00FA  00C7               	movwf	(??_DisplayIndex+0)+0
  1085  00FB  0847               	movf	(??_DisplayIndex+0)+0,w
  1086  00FC  07CA               	addwf	(DisplayIndex@i),f
  1087  00FD  28FE               	goto	l2879
  1088                           	
  1089  00FE                     l446:	
  1090                           	
  1091  00FE                     l2879:	
  1092  00FE  0839               	movf	(_numNorCount),w
  1093  00FF  024A               	subwf	(DisplayIndex@i),w
  1094  0100  1C03               	skipc
  1095  0101  2903               	goto	u3181
  1096  0102  2904               	goto	u3180
  1097  0103                     u3181:
  1098  0103  2873               	goto	l2849
  1099  0104                     u3180:
  1100  0104  2906               	goto	l2881
  1101                           	
  1102  0105                     l455:	
  1103  0105  2906               	goto	l2881
  1104                           	line	410
  1105                           	
  1106  0106                     l445:	
  1107                           	line	411
  1108                           	
  1109  0106                     l2881:	
  1110                           ;Calling_systemV1.c: 406: }
  1111                           ;Calling_systemV1.c: 408: }
  1112                           ;Calling_systemV1.c: 410: }
  1113                           ;Calling_systemV1.c: 411: if(moved == 1)
  1114  0106  0838               	movf	(_moved),w
  1115  0107  3A01               	xorlw	01h
  1116  0108  1D03               	skipz
  1117  0109  290B               	goto	u3191
  1118  010A  290C               	goto	u3190
  1119  010B                     u3191:
  1120  010B  2925               	goto	l2893
  1121  010C                     u3190:
  1122                           	line	413
  1123                           	
  1124  010C                     l2883:	
  1125                           ;Calling_systemV1.c: 412: {
  1126                           ;Calling_systemV1.c: 413: if(flick[curViewIndex] == 3)
  1127  010C  0837               	movf	(_curViewIndex),w
  1128  010D  3E20               	addlw	_flick&0ffh
  1129  010E  0084               	movwf	fsr0
  1130  010F  1383               	bcf	status, 7	;select IRP bank0
  1131  0110  0800               	movf	indf,w
  1132  0111  3A03               	xorlw	03h
  1133  0112  1D03               	skipz
  1134  0113  2915               	goto	u3201
  1135  0114  2916               	goto	u3200
  1136  0115                     u3201:
  1137  0115  2923               	goto	l2891
  1138  0116                     u3200:
  1139                           	line	415
  1140                           	
  1141  0116                     l2885:	
  1142                           ;Calling_systemV1.c: 414: {
  1143                           ;Calling_systemV1.c: 415: {RB5 = 1; _delay((unsigned long)((30)*(4000000/4000.0))); RB5 
                                 = 0;};
  1144  0116  1686               	bsf	(53/8),(53)&7
  1145                           	
  1146  0117                     l2887:	
  1147                           	opt asmopt_off
  1148  0117  3027               movlw	39
  1149  0118  00C8               movwf	((??_DisplayIndex+0)+0+1),f
  1150  0119  30F5               	movlw	245
  1151  011A  00C7               movwf	((??_DisplayIndex+0)+0),f
  1152  011B                     u3237:
  1153  011B  0BC7               	decfsz	((??_DisplayIndex+0)+0),f
  1154  011C  291B               	goto	u3237
  1155  011D  0BC8               	decfsz	((??_DisplayIndex+0)+0+1),f
  1156  011E  291B               	goto	u3237
  1157                           opt asmopt_on
  1158                           
  1159                           	
  1160  011F                     l2889:	
  1161  011F  1283               	bcf	status, 5	;RP0=0, select bank0
  1162  0120  1303               	bcf	status, 6	;RP1=0, select bank0
  1163  0121  1286               	bcf	(53/8),(53)&7
  1164  0122  2923               	goto	l2891
  1165                           	line	416
  1166                           	
  1167  0123                     l457:	
  1168                           	line	417
  1169                           	
  1170  0123                     l2891:	
  1171                           ;Calling_systemV1.c: 416: }
  1172                           ;Calling_systemV1.c: 417: moved = 0;
  1173  0123  01B8               	clrf	(_moved)
  1174                           	line	418
  1175                           ;Calling_systemV1.c: 418: }
  1176  0124  2945               	goto	l2903
  1177                           	line	419
  1178                           	
  1179  0125                     l456:	
  1180                           	line	421
  1181                           	
  1182  0125                     l2893:	
  1183                           ;Calling_systemV1.c: 419: else
  1184                           ;Calling_systemV1.c: 420: {
  1185                           ;Calling_systemV1.c: 421: curViewIndex = GetNextIndex(curViewIndex);
  1186  0125  0837               	movf	(_curViewIndex),w
  1187  0126  245D               	fcall	_GetNextIndex
  1188  0127  1283               	bcf	status, 5	;RP0=0, select bank0
  1189  0128  1303               	bcf	status, 6	;RP1=0, select bank0
  1190  0129  00C7               	movwf	(??_DisplayIndex+0)+0
  1191  012A  0847               	movf	(??_DisplayIndex+0)+0,w
  1192  012B  00B7               	movwf	(_curViewIndex)
  1193                           	line	423
  1194                           	
  1195  012C                     l2895:	
  1196                           ;Calling_systemV1.c: 423: if(flick[curViewIndex] == 3)
  1197  012C  0837               	movf	(_curViewIndex),w
  1198  012D  3E20               	addlw	_flick&0ffh
  1199  012E  0084               	movwf	fsr0
  1200  012F  1383               	bcf	status, 7	;select IRP bank0
  1201  0130  0800               	movf	indf,w
  1202  0131  3A03               	xorlw	03h
  1203  0132  1D03               	skipz
  1204  0133  2935               	goto	u3211
  1205  0134  2936               	goto	u3210
  1206  0135                     u3211:
  1207  0135  2945               	goto	l2903
  1208  0136                     u3210:
  1209                           	line	425
  1210                           	
  1211  0136                     l2897:	
  1212                           ;Calling_systemV1.c: 424: {
  1213                           ;Calling_systemV1.c: 425: {RB5 = 1; _delay((unsigned long)((30)*(4000000/4000.0))); RB5 
                                 = 0;};
  1214  0136  1686               	bsf	(53/8),(53)&7
  1215                           	
  1216  0137                     l2899:	
  1217                           	opt asmopt_off
  1218  0137  3027               movlw	39
  1219  0138  00C8               movwf	((??_DisplayIndex+0)+0+1),f
  1220  0139  30F5               	movlw	245
  1221  013A  00C7               movwf	((??_DisplayIndex+0)+0),f
  1222  013B                     u3247:
  1223  013B  0BC7               	decfsz	((??_DisplayIndex+0)+0),f
  1224  013C  293B               	goto	u3247
  1225  013D  0BC8               	decfsz	((??_DisplayIndex+0)+0+1),f
  1226  013E  293B               	goto	u3247
  1227                           opt asmopt_on
  1228                           
  1229                           	
  1230  013F                     l2901:	
  1231  013F  1283               	bcf	status, 5	;RP0=0, select bank0
  1232  0140  1303               	bcf	status, 6	;RP1=0, select bank0
  1233  0141  1286               	bcf	(53/8),(53)&7
  1234  0142  2945               	goto	l2903
  1235                           	line	426
  1236                           	
  1237  0143                     l459:	
  1238  0143  2945               	goto	l2903
  1239                           	line	428
  1240                           	
  1241  0144                     l458:	
  1242  0144  2945               	goto	l2903
  1243                           	line	436
  1244                           	
  1245  0145                     l439:	
  1246                           	line	438
  1247                           	
  1248  0145                     l2903:	
  1249                           ;Calling_systemV1.c: 426: }
  1250                           ;Calling_systemV1.c: 428: }
  1251                           ;Calling_systemV1.c: 436: }
  1252                           ;Calling_systemV1.c: 438: if(visible[curViewIndex] == 1)
  1253  0145  0837               	movf	(_curViewIndex),w
  1254  0146  3E4C               	addlw	_visible&0ffh
  1255  0147  0084               	movwf	fsr0
  1256  0148  1383               	bcf	status, 7	;select IRP bank0
  1257  0149  0800               	movf	indf,w
  1258  014A  3A01               	xorlw	01h
  1259  014B  1D03               	skipz
  1260  014C  294E               	goto	u3221
  1261  014D  294F               	goto	u3220
  1262  014E                     u3221:
  1263  014E  2977               	goto	l460
  1264  014F                     u3220:
  1265                           	line	440
  1266                           	
  1267  014F                     l2905:	
  1268                           ;Calling_systemV1.c: 439: {
  1269                           ;Calling_systemV1.c: 440: Display(unit[index], 0);
  1270  014F  01C4               	clrf	(?_Display)
  1271  0150  0849               	movf	(DisplayIndex@index),w
  1272  0151  3E2F               	addlw	_unit&0ffh
  1273  0152  0084               	movwf	fsr0
  1274  0153  0800               	movf	indf,w
  1275  0154  22C0               	fcall	_Display
  1276                           	line	441
  1277                           	
  1278  0155                     l2907:	
  1279                           ;Calling_systemV1.c: 441: _delay((unsigned long)((10)*(4000000/4000.0)));
  1280                           	opt asmopt_off
  1281  0155  300D               movlw	13
  1282  0156  1283               	bcf	status, 5	;RP0=0, select bank0
  1283  0157  1303               	bcf	status, 6	;RP1=0, select bank0
  1284  0158  00C8               movwf	((??_DisplayIndex+0)+0+1),f
  1285  0159  30FB               	movlw	251
  1286  015A  00C7               movwf	((??_DisplayIndex+0)+0),f
  1287  015B                     u3257:
  1288  015B  0BC7               	decfsz	((??_DisplayIndex+0)+0),f
  1289  015C  295B               	goto	u3257
  1290  015D  0BC8               	decfsz	((??_DisplayIndex+0)+0+1),f
  1291  015E  295B               	goto	u3257
  1292  015F  2960               	nop2
  1293                           opt asmopt_on
  1294                           
  1295                           	line	442
  1296                           	
  1297  0160                     l2909:	
  1298                           ;Calling_systemV1.c: 442: Display(ten[index], 1);
  1299  0160  1283               	bcf	status, 5	;RP0=0, select bank0
  1300  0161  1303               	bcf	status, 6	;RP1=0, select bank0
  1301  0162  01C4               	clrf	(?_Display)
  1302  0163  1403               	bsf	status,0
  1303  0164  0DC4               	rlf	(?_Display),f
  1304  0165  0849               	movf	(DisplayIndex@index),w
  1305  0166  3E25               	addlw	_ten&0ffh
  1306  0167  0084               	movwf	fsr0
  1307  0168  1383               	bcf	status, 7	;select IRP bank0
  1308  0169  0800               	movf	indf,w
  1309  016A  22C0               	fcall	_Display
  1310                           	line	443
  1311                           ;Calling_systemV1.c: 443: _delay((unsigned long)((10)*(4000000/4000.0)));
  1312                           	opt asmopt_off
  1313  016B  300D               movlw	13
  1314  016C  1283               	bcf	status, 5	;RP0=0, select bank0
  1315  016D  1303               	bcf	status, 6	;RP1=0, select bank0
  1316  016E  00C8               movwf	((??_DisplayIndex+0)+0+1),f
  1317  016F  30FB               	movlw	251
  1318  0170  00C7               movwf	((??_DisplayIndex+0)+0),f
  1319  0171                     u3267:
  1320  0171  0BC7               	decfsz	((??_DisplayIndex+0)+0),f
  1321  0172  2971               	goto	u3267
  1322  0173  0BC8               	decfsz	((??_DisplayIndex+0)+0+1),f
  1323  0174  2971               	goto	u3267
  1324  0175  2976               	nop2
  1325                           opt asmopt_on
  1326                           
  1327                           	line	445
  1328                           ;Calling_systemV1.c: 445: }
  1329  0176  2983               	goto	l441
  1330                           	line	446
  1331                           	
  1332  0177                     l460:	
  1333                           	line	448
  1334                           ;Calling_systemV1.c: 446: else
  1335                           ;Calling_systemV1.c: 447: {
  1336                           ;Calling_systemV1.c: 448: RB6 = RB7 = 0;
  1337  0177  1386               	bcf	(55/8),(55)&7
  1338  0178  1306               	bcf	(54/8),(54)&7
  1339                           	line	449
  1340                           	
  1341  0179                     l2911:	
  1342                           ;Calling_systemV1.c: 449: _delay((unsigned long)((20)*(4000000/4000.0)));
  1343                           	opt asmopt_off
  1344  0179  301A               movlw	26
  1345  017A  00C8               movwf	((??_DisplayIndex+0)+0+1),f
  1346  017B  30F8               	movlw	248
  1347  017C  00C7               movwf	((??_DisplayIndex+0)+0),f
  1348  017D                     u3277:
  1349  017D  0BC7               	decfsz	((??_DisplayIndex+0)+0),f
  1350  017E  297D               	goto	u3277
  1351  017F  0BC8               	decfsz	((??_DisplayIndex+0)+0+1),f
  1352  0180  297D               	goto	u3277
  1353  0181  0064               	clrwdt
  1354                           opt asmopt_on
  1355                           
  1356  0182  2983               	goto	l441
  1357                           	line	450
  1358                           	
  1359  0183                     l461:	
  1360                           	line	460
  1361                           	
  1362  0183                     l441:	
  1363  0183  0008               	return
  1364                           	opt stack 0
  1365                           GLOBAL	__end_of_DisplayIndex
  1366  0184                     	__end_of_DisplayIndex:
  1367 ;; =============== function _DisplayIndex ends ============
  1368                           
  1369                           	signat	_DisplayIndex,4216
  1370                           	global	_GetNextIndex
  1371                           psect	text208,local,class=CODE,delta=2
  1372                           global __ptext208
  1373  045D                     __ptext208:
  1374                           
  1375 ;; *************** function _GetNextIndex *****************
  1376 ;; Defined at:
  1377 ;;		line 318 in file "Calling_systemV1.c"
  1378 ;; Parameters:    Size  Location     Type
  1379 ;;  index           1    wreg     unsigned char 
  1380 ;; Auto vars:     Size  Location     Type
  1381 ;;  index           1   11[BANK0 ] unsigned char 
  1382 ;; Return value:  Size  Location     Type
  1383 ;;                  1    wreg      unsigned char 
  1384 ;; Registers used:
  1385 ;;		wreg, status,2, status,0
  1386 ;; Tracked objects:
  1387 ;;		On entry : 0/0
  1388 ;;		On exit  : 0/0
  1389 ;;		Unchanged: 0/0
  1390 ;; Data sizes:     COMMON   BANK0   BANK1   BANK2
  1391 ;;      Params:         0       0       0       0
  1392 ;;      Locals:         0       1       0       0
  1393 ;;      Temps:          0       2       0       0
  1394 ;;      Totals:         0       3       0       0
  1395 ;;Total ram usage:        3 bytes
  1396 ;; Hardware stack levels used:    1
  1397 ;; Hardware stack levels required when called:    3
  1398 ;; This function calls:
  1399 ;;		Nothing
  1400 ;; This function is called by:
  1401 ;;		_DisplayIndex
  1402 ;; This function uses a non-reentrant model
  1403 ;;
  1404                           psect	text208
  1405                           	file	"Calling_systemV1.c"
  1406                           	line	318
  1407                           	global	__size_of_GetNextIndex
  1408  0022                     	__size_of_GetNextIndex	equ	__end_of_GetNextIndex-_GetNextIndex
  1409                           	
  1410  045D                     _GetNextIndex:	
  1411                           	opt	stack 3
  1412                           ; Regs used in _GetNextIndex: [wreg+status,2+status,0]
  1413                           ;GetNextIndex@index stored from wreg
  1414  045D  1283               	bcf	status, 5	;RP0=0, select bank0
  1415  045E  1303               	bcf	status, 6	;RP1=0, select bank0
  1416  045F  00C6               	movwf	(GetNextIndex@index)
  1417                           	line	319
  1418                           	
  1419  0460                     l2715:	
  1420                           ;Calling_systemV1.c: 319: if(numNorCount == 0)
  1421  0460  08B9               	movf	(_numNorCount),f
  1422  0461  1D03               	skipz
  1423  0462  2C64               	goto	u2851
  1424  0463  2C65               	goto	u2850
  1425  0464                     u2851:
  1426  0464  2C68               	goto	l2721
  1427  0465                     u2850:
  1428                           	line	321
  1429                           	
  1430  0465                     l2717:	
  1431                           ;Calling_systemV1.c: 320: {
  1432                           ;Calling_systemV1.c: 321: return index;
  1433  0465  0846               	movf	(GetNextIndex@index),w
  1434  0466  2C7E               	goto	l431
  1435                           	
  1436  0467                     l2719:	
  1437  0467  2C7E               	goto	l431
  1438                           	line	322
  1439                           	
  1440  0468                     l430:	
  1441                           	line	323
  1442                           	
  1443  0468                     l2721:	
  1444                           ;Calling_systemV1.c: 322: }
  1445                           ;Calling_systemV1.c: 323: if(index == numNorCount - 1)
  1446  0468  0839               	movf	(_numNorCount),w
  1447  0469  3EFF               	addlw	low(-1)
  1448  046A  00C4               	movwf	(??_GetNextIndex+0)+0
  1449  046B  30FF               	movlw	high(-1)
  1450  046C  1803               	skipnc
  1451  046D  3000               	movlw	(high(-1)+1)&0ffh
  1452  046E  00C5               	movwf	((??_GetNextIndex+0)+0)+1
  1453  046F  0846               	movf	(GetNextIndex@index),w
  1454  0470  0644               	xorwf	0+(??_GetNextIndex+0)+0,w
  1455  0471  0445               	iorwf	1+(??_GetNextIndex+0)+0,w
  1456  0472  1D03               	skipz
  1457  0473  2C75               	goto	u2861
  1458  0474  2C76               	goto	u2860
  1459  0475                     u2861:
  1460  0475  2C7A               	goto	l2729
  1461  0476                     u2860:
  1462                           	line	325
  1463                           	
  1464  0476                     l2723:	
  1465                           ;Calling_systemV1.c: 324: {
  1466                           ;Calling_systemV1.c: 325: return 0;
  1467  0476  3000               	movlw	(0)
  1468  0477  2C7E               	goto	l431
  1469                           	
  1470  0478                     l2725:	
  1471  0478  2C7E               	goto	l431
  1472                           	line	326
  1473                           	
  1474  0479                     l2727:	
  1475                           ;Calling_systemV1.c: 326: }
  1476  0479  2C7E               	goto	l431
  1477                           	line	327
  1478                           	
  1479  047A                     l432:	
  1480                           	line	329
  1481                           	
  1482  047A                     l2729:	
  1483                           ;Calling_systemV1.c: 327: else
  1484                           ;Calling_systemV1.c: 328: {
  1485                           ;Calling_systemV1.c: 329: return index + 1;
  1486  047A  0846               	movf	(GetNextIndex@index),w
  1487  047B  3E01               	addlw	01h
  1488  047C  2C7E               	goto	l431
  1489                           	
  1490  047D                     l2731:	
  1491  047D  2C7E               	goto	l431
  1492                           	line	330
  1493                           	
  1494  047E                     l433:	
  1495                           	line	331
  1496                           	
  1497  047E                     l431:	
  1498  047E  0008               	return
  1499                           	opt stack 0
  1500                           GLOBAL	__end_of_GetNextIndex
  1501  047F                     	__end_of_GetNextIndex:
  1502 ;; =============== function _GetNextIndex ends ============
  1503                           
  1504                           	signat	_GetNextIndex,4217
  1505                           	global	_Display
  1506                           psect	text209,local,class=CODE,delta=2
  1507                           global __ptext209
  1508  02C0                     __ptext209:
  1509                           
  1510 ;; *************** function _Display *****************
  1511 ;; Defined at:
  1512 ;;		line 82 in file "Calling_systemV1.c"
  1513 ;; Parameters:    Size  Location     Type
  1514 ;;  num             1    wreg     unsigned char 
  1515 ;;  pos             1    9[BANK0 ] unsigned char 
  1516 ;; Auto vars:     Size  Location     Type
  1517 ;;  num             1   10[BANK0 ] unsigned char 
  1518 ;; Return value:  Size  Location     Type
  1519 ;;		None               void
  1520 ;; Registers used:
  1521 ;;		wreg, fsr0l, fsr0h, status,2, status,0
  1522 ;; Tracked objects:
  1523 ;;		On entry : 0/0
  1524 ;;		On exit  : 0/0
  1525 ;;		Unchanged: 0/0
  1526 ;; Data sizes:     COMMON   BANK0   BANK1   BANK2
  1527 ;;      Params:         0       1       0       0
  1528 ;;      Locals:         0       1       0       0
  1529 ;;      Temps:          0       0       0       0
  1530 ;;      Totals:         0       2       0       0
  1531 ;;Total ram usage:        2 bytes
  1532 ;; Hardware stack levels used:    1
  1533 ;; Hardware stack levels required when called:    3
  1534 ;; This function calls:
  1535 ;;		Nothing
  1536 ;; This function is called by:
  1537 ;;		_DisplayIndex
  1538 ;; This function uses a non-reentrant model
  1539 ;;
  1540                           psect	text209
  1541                           	file	"Calling_systemV1.c"
  1542                           	line	82
  1543                           	global	__size_of_Display
  1544  00C3                     	__size_of_Display	equ	__end_of_Display-_Display
  1545                           	
  1546  02C0                     _Display:	
  1547                           	opt	stack 3
  1548                           ; Regs used in _Display: [wreg-fsr0h+status,2+status,0]
  1549                           ;Display@num stored from wreg
  1550  02C0  1283               	bcf	status, 5	;RP0=0, select bank0
  1551  02C1  1303               	bcf	status, 6	;RP1=0, select bank0
  1552  02C2  00C5               	movwf	(Display@num)
  1553                           	line	83
  1554                           	
  1555  02C3                     l2509:	
  1556                           ;Calling_systemV1.c: 83: switch(num)
  1557  02C3  2B77               	goto	l2633
  1558                           	line	85
  1559                           ;Calling_systemV1.c: 84: {
  1560                           ;Calling_systemV1.c: 85: case 0:
  1561                           	
  1562  02C4                     l373:	
  1563                           	line	86
  1564                           	
  1565  02C4                     l2511:	
  1566                           ;Calling_systemV1.c: 86: if(pos == 0)
  1567  02C4  08C4               	movf	(Display@pos),f
  1568  02C5  1D03               	skipz
  1569  02C6  2AC8               	goto	u2631
  1570  02C7  2AC9               	goto	u2630
  1571  02C8                     u2631:
  1572  02C8  2ACF               	goto	l374
  1573  02C9                     u2630:
  1574                           	line	88
  1575                           	
  1576  02C9                     l2513:	
  1577                           ;Calling_systemV1.c: 87: {
  1578                           ;Calling_systemV1.c: 88: RB6 = RB7 = 0;
  1579  02C9  1386               	bcf	(55/8),(55)&7
  1580  02CA  1306               	bcf	(54/8),(54)&7
  1581                           	line	89
  1582                           	
  1583  02CB                     l2515:	
  1584                           ;Calling_systemV1.c: 89: PORTA = 0b01000000;
  1585  02CB  3040               	movlw	(040h)
  1586  02CC  0085               	movwf	(5)	;volatile
  1587                           	line	90
  1588                           	
  1589  02CD                     l2517:	
  1590                           ;Calling_systemV1.c: 90: RB7 = 1;
  1591  02CD  1786               	bsf	(55/8),(55)&7
  1592                           	line	91
  1593                           ;Calling_systemV1.c: 91: }
  1594  02CE  2B82               	goto	l404
  1595                           	line	92
  1596                           	
  1597  02CF                     l374:	
  1598                           	line	94
  1599                           ;Calling_systemV1.c: 92: else
  1600                           ;Calling_systemV1.c: 93: {
  1601                           ;Calling_systemV1.c: 94: RB6 = RB7 = 0;
  1602  02CF  1386               	bcf	(55/8),(55)&7
  1603  02D0  1306               	bcf	(54/8),(54)&7
  1604                           	line	95
  1605                           	
  1606  02D1                     l2519:	
  1607                           ;Calling_systemV1.c: 95: PORTA = 0b01000000;
  1608  02D1  3040               	movlw	(040h)
  1609  02D2  0085               	movwf	(5)	;volatile
  1610                           	line	96
  1611                           	
  1612  02D3                     l2521:	
  1613                           ;Calling_systemV1.c: 96: RB6 = 1;
  1614  02D3  1706               	bsf	(54/8),(54)&7
  1615  02D4  2B82               	goto	l404
  1616                           	line	98
  1617                           	
  1618  02D5                     l375:	
  1619                           	line	99
  1620                           ;Calling_systemV1.c: 98: }
  1621                           ;Calling_systemV1.c: 99: break;
  1622  02D5  2B82               	goto	l404
  1623                           	line	100
  1624                           ;Calling_systemV1.c: 100: case 1:
  1625                           	
  1626  02D6                     l377:	
  1627                           	line	101
  1628                           	
  1629  02D6                     l2523:	
  1630                           ;Calling_systemV1.c: 101: if(pos == 0)
  1631  02D6  08C4               	movf	(Display@pos),f
  1632  02D7  1D03               	skipz
  1633  02D8  2ADA               	goto	u2641
  1634  02D9  2ADB               	goto	u2640
  1635  02DA                     u2641:
  1636  02DA  2AE1               	goto	l378
  1637  02DB                     u2640:
  1638                           	line	103
  1639                           	
  1640  02DB                     l2525:	
  1641                           ;Calling_systemV1.c: 102: {
  1642                           ;Calling_systemV1.c: 103: RB6 = RB7 = 0;
  1643  02DB  1386               	bcf	(55/8),(55)&7
  1644  02DC  1306               	bcf	(54/8),(54)&7
  1645                           	line	104
  1646                           	
  1647  02DD                     l2527:	
  1648                           ;Calling_systemV1.c: 104: PORTA = 0b11100111;
  1649  02DD  30E7               	movlw	(0E7h)
  1650  02DE  0085               	movwf	(5)	;volatile
  1651                           	line	105
  1652                           	
  1653  02DF                     l2529:	
  1654                           ;Calling_systemV1.c: 105: RB7 = 1;
  1655  02DF  1786               	bsf	(55/8),(55)&7
  1656                           	line	106
  1657                           ;Calling_systemV1.c: 106: }
  1658  02E0  2B82               	goto	l404
  1659                           	line	107
  1660                           	
  1661  02E1                     l378:	
  1662                           	line	109
  1663                           ;Calling_systemV1.c: 107: else
  1664                           ;Calling_systemV1.c: 108: {
  1665                           ;Calling_systemV1.c: 109: RB6 = RB7 = 0;
  1666  02E1  1386               	bcf	(55/8),(55)&7
  1667  02E2  1306               	bcf	(54/8),(54)&7
  1668                           	line	110
  1669                           	
  1670  02E3                     l2531:	
  1671                           ;Calling_systemV1.c: 110: PORTA = 0b11100111;
  1672  02E3  30E7               	movlw	(0E7h)
  1673  02E4  0085               	movwf	(5)	;volatile
  1674                           	line	111
  1675                           	
  1676  02E5                     l2533:	
  1677                           ;Calling_systemV1.c: 111: RB6 = 1;
  1678  02E5  1706               	bsf	(54/8),(54)&7
  1679  02E6  2B82               	goto	l404
  1680                           	line	113
  1681                           	
  1682  02E7                     l379:	
  1683                           	line	114
  1684                           ;Calling_systemV1.c: 113: }
  1685                           ;Calling_systemV1.c: 114: break;
  1686  02E7  2B82               	goto	l404
  1687                           	line	115
  1688                           ;Calling_systemV1.c: 115: case 2:
  1689                           	
  1690  02E8                     l380:	
  1691                           	line	116
  1692                           	
  1693  02E8                     l2535:	
  1694                           ;Calling_systemV1.c: 116: if(pos == 0)
  1695  02E8  08C4               	movf	(Display@pos),f
  1696  02E9  1D03               	skipz
  1697  02EA  2AEC               	goto	u2651
  1698  02EB  2AED               	goto	u2650
  1699  02EC                     u2651:
  1700  02EC  2AF3               	goto	l381
  1701  02ED                     u2650:
  1702                           	line	118
  1703                           	
  1704  02ED                     l2537:	
  1705                           ;Calling_systemV1.c: 117: {
  1706                           ;Calling_systemV1.c: 118: RB6 = RB7 = 0;
  1707  02ED  1386               	bcf	(55/8),(55)&7
  1708  02EE  1306               	bcf	(54/8),(54)&7
  1709                           	line	119
  1710                           	
  1711  02EF                     l2539:	
  1712                           ;Calling_systemV1.c: 119: PORTA = 0b10010000;
  1713  02EF  3090               	movlw	(090h)
  1714  02F0  0085               	movwf	(5)	;volatile
  1715                           	line	120
  1716                           	
  1717  02F1                     l2541:	
  1718                           ;Calling_systemV1.c: 120: RB7 = 1;
  1719  02F1  1786               	bsf	(55/8),(55)&7
  1720                           	line	121
  1721                           ;Calling_systemV1.c: 121: }
  1722  02F2  2B82               	goto	l404
  1723                           	line	122
  1724                           	
  1725  02F3                     l381:	
  1726                           	line	124
  1727                           ;Calling_systemV1.c: 122: else
  1728                           ;Calling_systemV1.c: 123: {
  1729                           ;Calling_systemV1.c: 124: RB6 = RB7 = 0;
  1730  02F3  1386               	bcf	(55/8),(55)&7
  1731  02F4  1306               	bcf	(54/8),(54)&7
  1732                           	line	125
  1733                           	
  1734  02F5                     l2543:	
  1735                           ;Calling_systemV1.c: 125: PORTA = 0b10010000;
  1736  02F5  3090               	movlw	(090h)
  1737  02F6  0085               	movwf	(5)	;volatile
  1738                           	line	126
  1739                           	
  1740  02F7                     l2545:	
  1741                           ;Calling_systemV1.c: 126: RB6 = 1;
  1742  02F7  1706               	bsf	(54/8),(54)&7
  1743  02F8  2B82               	goto	l404
  1744                           	line	128
  1745                           	
  1746  02F9                     l382:	
  1747                           	line	129
  1748                           ;Calling_systemV1.c: 128: }
  1749                           ;Calling_systemV1.c: 129: break;
  1750  02F9  2B82               	goto	l404
  1751                           	line	130
  1752                           ;Calling_systemV1.c: 130: case 3:
  1753                           	
  1754  02FA                     l383:	
  1755                           	line	131
  1756                           	
  1757  02FA                     l2547:	
  1758                           ;Calling_systemV1.c: 131: if(pos == 0)
  1759  02FA  08C4               	movf	(Display@pos),f
  1760  02FB  1D03               	skipz
  1761  02FC  2AFE               	goto	u2661
  1762  02FD  2AFF               	goto	u2660
  1763  02FE                     u2661:
  1764  02FE  2B05               	goto	l384
  1765  02FF                     u2660:
  1766                           	line	133
  1767                           	
  1768  02FF                     l2549:	
  1769                           ;Calling_systemV1.c: 132: {
  1770                           ;Calling_systemV1.c: 133: RB6 = RB7 = 0;
  1771  02FF  1386               	bcf	(55/8),(55)&7
  1772  0300  1306               	bcf	(54/8),(54)&7
  1773                           	line	134
  1774                           	
  1775  0301                     l2551:	
  1776                           ;Calling_systemV1.c: 134: PORTA = 0b10100001;
  1777  0301  30A1               	movlw	(0A1h)
  1778  0302  0085               	movwf	(5)	;volatile
  1779                           	line	135
  1780                           	
  1781  0303                     l2553:	
  1782                           ;Calling_systemV1.c: 135: RB7 = 1;
  1783  0303  1786               	bsf	(55/8),(55)&7
  1784                           	line	136
  1785                           ;Calling_systemV1.c: 136: }
  1786  0304  2B82               	goto	l404
  1787                           	line	137
  1788                           	
  1789  0305                     l384:	
  1790                           	line	139
  1791                           ;Calling_systemV1.c: 137: else
  1792                           ;Calling_systemV1.c: 138: {
  1793                           ;Calling_systemV1.c: 139: RB6 = RB7 = 0;
  1794  0305  1386               	bcf	(55/8),(55)&7
  1795  0306  1306               	bcf	(54/8),(54)&7
  1796                           	line	140
  1797                           	
  1798  0307                     l2555:	
  1799                           ;Calling_systemV1.c: 140: PORTA = 0b10100001;
  1800  0307  30A1               	movlw	(0A1h)
  1801  0308  0085               	movwf	(5)	;volatile
  1802                           	line	141
  1803                           	
  1804  0309                     l2557:	
  1805                           ;Calling_systemV1.c: 141: RB6 = 1;
  1806  0309  1706               	bsf	(54/8),(54)&7
  1807  030A  2B82               	goto	l404
  1808                           	line	143
  1809                           	
  1810  030B                     l385:	
  1811                           	line	144
  1812                           ;Calling_systemV1.c: 143: }
  1813                           ;Calling_systemV1.c: 144: break;
  1814  030B  2B82               	goto	l404
  1815                           	line	145
  1816                           ;Calling_systemV1.c: 145: case 4:
  1817                           	
  1818  030C                     l386:	
  1819                           	line	146
  1820                           	
  1821  030C                     l2559:	
  1822                           ;Calling_systemV1.c: 146: if(pos == 0)
  1823  030C  08C4               	movf	(Display@pos),f
  1824  030D  1D03               	skipz
  1825  030E  2B10               	goto	u2671
  1826  030F  2B11               	goto	u2670
  1827  0310                     u2671:
  1828  0310  2B17               	goto	l387
  1829  0311                     u2670:
  1830                           	line	148
  1831                           	
  1832  0311                     l2561:	
  1833                           ;Calling_systemV1.c: 147: {
  1834                           ;Calling_systemV1.c: 148: RB6 = RB7 = 0;
  1835  0311  1386               	bcf	(55/8),(55)&7
  1836  0312  1306               	bcf	(54/8),(54)&7
  1837                           	line	149
  1838                           	
  1839  0313                     l2563:	
  1840                           ;Calling_systemV1.c: 149: PORTA = 0b00100111;
  1841  0313  3027               	movlw	(027h)
  1842  0314  0085               	movwf	(5)	;volatile
  1843                           	line	150
  1844                           	
  1845  0315                     l2565:	
  1846                           ;Calling_systemV1.c: 150: RB7 = 1;
  1847  0315  1786               	bsf	(55/8),(55)&7
  1848                           	line	151
  1849                           ;Calling_systemV1.c: 151: }
  1850  0316  2B82               	goto	l404
  1851                           	line	152
  1852                           	
  1853  0317                     l387:	
  1854                           	line	154
  1855                           ;Calling_systemV1.c: 152: else
  1856                           ;Calling_systemV1.c: 153: {
  1857                           ;Calling_systemV1.c: 154: RB6 = RB7 = 0;
  1858  0317  1386               	bcf	(55/8),(55)&7
  1859  0318  1306               	bcf	(54/8),(54)&7
  1860                           	line	155
  1861                           	
  1862  0319                     l2567:	
  1863                           ;Calling_systemV1.c: 155: PORTA = 0b00100111;
  1864  0319  3027               	movlw	(027h)
  1865  031A  0085               	movwf	(5)	;volatile
  1866                           	line	156
  1867                           	
  1868  031B                     l2569:	
  1869                           ;Calling_systemV1.c: 156: RB6 = 1;
  1870  031B  1706               	bsf	(54/8),(54)&7
  1871  031C  2B82               	goto	l404
  1872                           	line	158
  1873                           	
  1874  031D                     l388:	
  1875                           	line	159
  1876                           ;Calling_systemV1.c: 158: }
  1877                           ;Calling_systemV1.c: 159: break;
  1878  031D  2B82               	goto	l404
  1879                           	line	160
  1880                           ;Calling_systemV1.c: 160: case 5:
  1881                           	
  1882  031E                     l389:	
  1883                           	line	161
  1884                           	
  1885  031E                     l2571:	
  1886                           ;Calling_systemV1.c: 161: if(pos == 0)
  1887  031E  08C4               	movf	(Display@pos),f
  1888  031F  1D03               	skipz
  1889  0320  2B22               	goto	u2681
  1890  0321  2B23               	goto	u2680
  1891  0322                     u2681:
  1892  0322  2B29               	goto	l390
  1893  0323                     u2680:
  1894                           	line	163
  1895                           	
  1896  0323                     l2573:	
  1897                           ;Calling_systemV1.c: 162: {
  1898                           ;Calling_systemV1.c: 163: RB6 = RB7 = 0;
  1899  0323  1386               	bcf	(55/8),(55)&7
  1900  0324  1306               	bcf	(54/8),(54)&7
  1901                           	line	164
  1902                           	
  1903  0325                     l2575:	
  1904                           ;Calling_systemV1.c: 164: PORTA = 0b00101001;
  1905  0325  3029               	movlw	(029h)
  1906  0326  0085               	movwf	(5)	;volatile
  1907                           	line	165
  1908                           	
  1909  0327                     l2577:	
  1910                           ;Calling_systemV1.c: 165: RB7 = 1;
  1911  0327  1786               	bsf	(55/8),(55)&7
  1912                           	line	166
  1913                           ;Calling_systemV1.c: 166: }
  1914  0328  2B82               	goto	l404
  1915                           	line	167
  1916                           	
  1917  0329                     l390:	
  1918                           	line	169
  1919                           ;Calling_systemV1.c: 167: else
  1920                           ;Calling_systemV1.c: 168: {
  1921                           ;Calling_systemV1.c: 169: RB6 = RB7 = 0;
  1922  0329  1386               	bcf	(55/8),(55)&7
  1923  032A  1306               	bcf	(54/8),(54)&7
  1924                           	line	170
  1925                           	
  1926  032B                     l2579:	
  1927                           ;Calling_systemV1.c: 170: PORTA = 0b00101001;
  1928  032B  3029               	movlw	(029h)
  1929  032C  0085               	movwf	(5)	;volatile
  1930                           	line	171
  1931                           	
  1932  032D                     l2581:	
  1933                           ;Calling_systemV1.c: 171: RB6 = 1;
  1934  032D  1706               	bsf	(54/8),(54)&7
  1935  032E  2B82               	goto	l404
  1936                           	line	173
  1937                           	
  1938  032F                     l391:	
  1939                           	line	174
  1940                           ;Calling_systemV1.c: 173: }
  1941                           ;Calling_systemV1.c: 174: break;
  1942  032F  2B82               	goto	l404
  1943                           	line	175
  1944                           ;Calling_systemV1.c: 175: case 6:
  1945                           	
  1946  0330                     l392:	
  1947                           	line	176
  1948                           	
  1949  0330                     l2583:	
  1950                           ;Calling_systemV1.c: 176: if(pos == 0)
  1951  0330  08C4               	movf	(Display@pos),f
  1952  0331  1D03               	skipz
  1953  0332  2B34               	goto	u2691
  1954  0333  2B35               	goto	u2690
  1955  0334                     u2691:
  1956  0334  2B3B               	goto	l393
  1957  0335                     u2690:
  1958                           	line	178
  1959                           	
  1960  0335                     l2585:	
  1961                           ;Calling_systemV1.c: 177: {
  1962                           ;Calling_systemV1.c: 178: RB6 = RB7 = 0;
  1963  0335  1386               	bcf	(55/8),(55)&7
  1964  0336  1306               	bcf	(54/8),(54)&7
  1965                           	line	179
  1966                           	
  1967  0337                     l2587:	
  1968                           ;Calling_systemV1.c: 179: PORTA = 0b00101000;
  1969  0337  3028               	movlw	(028h)
  1970  0338  0085               	movwf	(5)	;volatile
  1971                           	line	180
  1972                           	
  1973  0339                     l2589:	
  1974                           ;Calling_systemV1.c: 180: RB7 = 1;
  1975  0339  1786               	bsf	(55/8),(55)&7
  1976                           	line	181
  1977                           ;Calling_systemV1.c: 181: }
  1978  033A  2B82               	goto	l404
  1979                           	line	182
  1980                           	
  1981  033B                     l393:	
  1982                           	line	184
  1983                           ;Calling_systemV1.c: 182: else
  1984                           ;Calling_systemV1.c: 183: {
  1985                           ;Calling_systemV1.c: 184: RB6 = RB7 = 0;
  1986  033B  1386               	bcf	(55/8),(55)&7
  1987  033C  1306               	bcf	(54/8),(54)&7
  1988                           	line	185
  1989                           	
  1990  033D                     l2591:	
  1991                           ;Calling_systemV1.c: 185: PORTA = 0b00101000;
  1992  033D  3028               	movlw	(028h)
  1993  033E  0085               	movwf	(5)	;volatile
  1994                           	line	186
  1995                           	
  1996  033F                     l2593:	
  1997                           ;Calling_systemV1.c: 186: RB6 = 1;
  1998  033F  1706               	bsf	(54/8),(54)&7
  1999  0340  2B82               	goto	l404
  2000                           	line	188
  2001                           	
  2002  0341                     l394:	
  2003                           	line	189
  2004                           ;Calling_systemV1.c: 188: }
  2005                           ;Calling_systemV1.c: 189: break;
  2006  0341  2B82               	goto	l404
  2007                           	line	190
  2008                           ;Calling_systemV1.c: 190: case 7:
  2009                           	
  2010  0342                     l395:	
  2011                           	line	191
  2012                           	
  2013  0342                     l2595:	
  2014                           ;Calling_systemV1.c: 191: if(pos == 0)
  2015  0342  08C4               	movf	(Display@pos),f
  2016  0343  1D03               	skipz
  2017  0344  2B46               	goto	u2701
  2018  0345  2B47               	goto	u2700
  2019  0346                     u2701:
  2020  0346  2B4D               	goto	l396
  2021  0347                     u2700:
  2022                           	line	193
  2023                           	
  2024  0347                     l2597:	
  2025                           ;Calling_systemV1.c: 192: {
  2026                           ;Calling_systemV1.c: 193: RB6 = RB7 = 0;
  2027  0347  1386               	bcf	(55/8),(55)&7
  2028  0348  1306               	bcf	(54/8),(54)&7
  2029                           	line	194
  2030                           	
  2031  0349                     l2599:	
  2032                           ;Calling_systemV1.c: 194: PORTA = 0b11100011;
  2033  0349  30E3               	movlw	(0E3h)
  2034  034A  0085               	movwf	(5)	;volatile
  2035                           	line	195
  2036                           	
  2037  034B                     l2601:	
  2038                           ;Calling_systemV1.c: 195: RB7 = 1;
  2039  034B  1786               	bsf	(55/8),(55)&7
  2040                           	line	196
  2041                           ;Calling_systemV1.c: 196: }
  2042  034C  2B82               	goto	l404
  2043                           	line	197
  2044                           	
  2045  034D                     l396:	
  2046                           	line	199
  2047                           ;Calling_systemV1.c: 197: else
  2048                           ;Calling_systemV1.c: 198: {
  2049                           ;Calling_systemV1.c: 199: RB6 = RB7 = 0;
  2050  034D  1386               	bcf	(55/8),(55)&7
  2051  034E  1306               	bcf	(54/8),(54)&7
  2052                           	line	200
  2053                           	
  2054  034F                     l2603:	
  2055                           ;Calling_systemV1.c: 200: PORTA = 0b11100011;
  2056  034F  30E3               	movlw	(0E3h)
  2057  0350  0085               	movwf	(5)	;volatile
  2058                           	line	201
  2059                           	
  2060  0351                     l2605:	
  2061                           ;Calling_systemV1.c: 201: RB6 = 1;
  2062  0351  1706               	bsf	(54/8),(54)&7
  2063  0352  2B82               	goto	l404
  2064                           	line	203
  2065                           	
  2066  0353                     l397:	
  2067                           	line	204
  2068                           ;Calling_systemV1.c: 203: }
  2069                           ;Calling_systemV1.c: 204: break;
  2070  0353  2B82               	goto	l404
  2071                           	line	205
  2072                           ;Calling_systemV1.c: 205: case 8:
  2073                           	
  2074  0354                     l398:	
  2075                           	line	206
  2076                           	
  2077  0354                     l2607:	
  2078                           ;Calling_systemV1.c: 206: if(pos == 0)
  2079  0354  08C4               	movf	(Display@pos),f
  2080  0355  1D03               	skipz
  2081  0356  2B58               	goto	u2711
  2082  0357  2B59               	goto	u2710
  2083  0358                     u2711:
  2084  0358  2B5E               	goto	l399
  2085  0359                     u2710:
  2086                           	line	208
  2087                           	
  2088  0359                     l2609:	
  2089                           ;Calling_systemV1.c: 207: {
  2090                           ;Calling_systemV1.c: 208: RB6 = RB7 = 0;
  2091  0359  1386               	bcf	(55/8),(55)&7
  2092  035A  1306               	bcf	(54/8),(54)&7
  2093                           	line	209
  2094                           	
  2095  035B                     l2611:	
  2096                           ;Calling_systemV1.c: 209: PORTA = 0b00000000;
  2097  035B  0185               	clrf	(5)	;volatile
  2098                           	line	210
  2099                           	
  2100  035C                     l2613:	
  2101                           ;Calling_systemV1.c: 210: RB7 = 1;
  2102  035C  1786               	bsf	(55/8),(55)&7
  2103                           	line	211
  2104                           ;Calling_systemV1.c: 211: }
  2105  035D  2B82               	goto	l404
  2106                           	line	212
  2107                           	
  2108  035E                     l399:	
  2109                           	line	214
  2110                           ;Calling_systemV1.c: 212: else
  2111                           ;Calling_systemV1.c: 213: {
  2112                           ;Calling_systemV1.c: 214: RB6 = RB7 = 0;
  2113  035E  1386               	bcf	(55/8),(55)&7
  2114  035F  1306               	bcf	(54/8),(54)&7
  2115                           	line	215
  2116                           	
  2117  0360                     l2615:	
  2118                           ;Calling_systemV1.c: 215: PORTA = 0b00000000;
  2119  0360  0185               	clrf	(5)	;volatile
  2120                           	line	216
  2121                           	
  2122  0361                     l2617:	
  2123                           ;Calling_systemV1.c: 216: RB6 = 1;
  2124  0361  1706               	bsf	(54/8),(54)&7
  2125  0362  2B82               	goto	l404
  2126                           	line	218
  2127                           	
  2128  0363                     l400:	
  2129                           	line	219
  2130                           ;Calling_systemV1.c: 218: }
  2131                           ;Calling_systemV1.c: 219: break;
  2132  0363  2B82               	goto	l404
  2133                           	line	220
  2134                           ;Calling_systemV1.c: 220: case 9:
  2135                           	
  2136  0364                     l401:	
  2137                           	line	221
  2138                           	
  2139  0364                     l2619:	
  2140                           ;Calling_systemV1.c: 221: if(pos == 0)
  2141  0364  08C4               	movf	(Display@pos),f
  2142  0365  1D03               	skipz
  2143  0366  2B68               	goto	u2721
  2144  0367  2B69               	goto	u2720
  2145  0368                     u2721:
  2146  0368  2B6F               	goto	l402
  2147  0369                     u2720:
  2148                           	line	223
  2149                           	
  2150  0369                     l2621:	
  2151                           ;Calling_systemV1.c: 222: {
  2152                           ;Calling_systemV1.c: 223: RB6 = RB7 = 0;
  2153  0369  1386               	bcf	(55/8),(55)&7
  2154  036A  1306               	bcf	(54/8),(54)&7
  2155                           	line	224
  2156                           	
  2157  036B                     l2623:	
  2158                           ;Calling_systemV1.c: 224: PORTA = 0b00000001;
  2159  036B  3001               	movlw	(01h)
  2160  036C  0085               	movwf	(5)	;volatile
  2161                           	line	225
  2162                           	
  2163  036D                     l2625:	
  2164                           ;Calling_systemV1.c: 225: RB7 = 1;
  2165  036D  1786               	bsf	(55/8),(55)&7
  2166                           	line	226
  2167                           ;Calling_systemV1.c: 226: }
  2168  036E  2B82               	goto	l404
  2169                           	line	227
  2170                           	
  2171  036F                     l402:	
  2172                           	line	229
  2173                           ;Calling_systemV1.c: 227: else
  2174                           ;Calling_systemV1.c: 228: {
  2175                           ;Calling_systemV1.c: 229: RB6 = RB7 = 0;
  2176  036F  1386               	bcf	(55/8),(55)&7
  2177  0370  1306               	bcf	(54/8),(54)&7
  2178                           	line	230
  2179                           	
  2180  0371                     l2627:	
  2181                           ;Calling_systemV1.c: 230: PORTA = 0b00000001;
  2182  0371  3001               	movlw	(01h)
  2183  0372  0085               	movwf	(5)	;volatile
  2184                           	line	231
  2185                           	
  2186  0373                     l2629:	
  2187                           ;Calling_systemV1.c: 231: RB6 = 1;
  2188  0373  1706               	bsf	(54/8),(54)&7
  2189  0374  2B82               	goto	l404
  2190                           	line	233
  2191                           	
  2192  0375                     l403:	
  2193                           	line	234
  2194                           ;Calling_systemV1.c: 233: }
  2195                           ;Calling_systemV1.c: 234: break;
  2196  0375  2B82               	goto	l404
  2197                           	line	235
  2198                           	
  2199  0376                     l2631:	
  2200                           ;Calling_systemV1.c: 235: }
  2201  0376  2B82               	goto	l404
  2202                           	line	83
  2203                           	
  2204  0377                     l372:	
  2205                           	
  2206  0377                     l2633:	
  2207  0377  0845               	movf	(Display@num),w
  2208                           	; Switch size 1, requested type "space"
  2209                           ; Number of cases is 10, Range of values is 0 to 9
  2210                           ; switch strategies available:
  2211                           ; Name         Instructions Cycles
  2212                           ; direct_byte           16     6 (fixed)
  2213                           ; simple_byte           31    16 (average)
  2214                           ; jumptable            260     6 (fixed)
  2215                           ; rangetable            14     6 (fixed)
  2216                           ; spacedrange           26     9 (fixed)
  2217                           ; locatedrange          10     3 (fixed)
  2218                           ;	Chosen strategy is direct_byte
  2219                           
  2220  0378  0084               	movwf fsr
  2221  0379  300A               	movlw	10
  2222  037A  0204               	subwf	fsr,w
  2223  037B  1803               skipnc
  2224  037C  2B82               goto l404
  2225  037D  3004               movlw high(S2927)
  2226  037E  008A               movwf pclath
  2227  037F  30C6               	movlw low(S2927)
  2228  0380  0704               	addwf fsr,w
  2229  0381  0082               	movwf pc
  2230                           psect	swtext1,local,class=CONST,delta=2
  2231                           global __pswtext1
  2232  04C6                     __pswtext1:
  2233  04C6                     S2927:
  2234  04C6  2AC4               	ljmp	l2511
  2235  04C7  2AD6               	ljmp	l2523
  2236  04C8  2AE8               	ljmp	l2535
  2237  04C9  2AFA               	ljmp	l2547
  2238  04CA  2B0C               	ljmp	l2559
  2239  04CB  2B1E               	ljmp	l2571
  2240  04CC  2B30               	ljmp	l2583
  2241  04CD  2B42               	ljmp	l2595
  2242  04CE  2B54               	ljmp	l2607
  2243  04CF  2B64               	ljmp	l2619
  2244                           psect	text209
  2245                           
  2246                           	line	235
  2247                           	
  2248  0382                     l376:	
  2249                           	line	236
  2250                           	
  2251  0382                     l404:	
  2252  0382  0008               	return
  2253                           	opt stack 0
  2254                           GLOBAL	__end_of_Display
  2255  0383                     	__end_of_Display:
  2256 ;; =============== function _Display ends ============
  2257                           
  2258                           	signat	_Display,8312
  2259                           	global	_Init
  2260                           psect	text210,local,class=CODE,delta=2
  2261                           global __ptext210
  2262  049A                     __ptext210:
  2263                           
  2264 ;; *************** function _Init *****************
  2265 ;; Defined at:
  2266 ;;		line 46 in file "Calling_systemV1.c"
  2267 ;; Parameters:    Size  Location     Type
  2268 ;;		None
  2269 ;; Auto vars:     Size  Location     Type
  2270 ;;		None
  2271 ;; Return value:  Size  Location     Type
  2272 ;;		None               void
  2273 ;; Registers used:
  2274 ;;		wreg
  2275 ;; Tracked objects:
  2276 ;;		On entry : 0/0
  2277 ;;		On exit  : 0/0
  2278 ;;		Unchanged: 0/0
  2279 ;; Data sizes:     COMMON   BANK0   BANK1   BANK2
  2280 ;;      Params:         0       0       0       0
  2281 ;;      Locals:         0       0       0       0
  2282 ;;      Temps:          0       0       0       0
  2283 ;;      Totals:         0       0       0       0
  2284 ;;Total ram usage:        0 bytes
  2285 ;; Hardware stack levels used:    1
  2286 ;; Hardware stack levels required when called:    3
  2287 ;; This function calls:
  2288 ;;		Nothing
  2289 ;; This function is called by:
  2290 ;;		_main
  2291 ;; This function uses a non-reentrant model
  2292 ;;
  2293                           psect	text210
  2294                           	file	"Calling_systemV1.c"
  2295                           	line	46
  2296                           	global	__size_of_Init
  2297  0019                     	__size_of_Init	equ	__end_of_Init-_Init
  2298                           	
  2299  049A                     _Init:	
  2300                           	opt	stack 4
  2301                           ; Regs used in _Init: [wreg]
  2302                           	line	48
  2303                           	
  2304  049A                     l2495:	
  2305                           ;Calling_systemV1.c: 48: OSCF = 1;
  2306  049A  1683               	bsf	status, 5	;RP0=1, select bank1
  2307  049B  1303               	bcf	status, 6	;RP1=0, select bank1
  2308  049C  158E               	bsf	(1139/8)^080h,(1139)&7
  2309                           	line	51
  2310                           ;Calling_systemV1.c: 51: T0IE = 0;
  2311  049D  128B               	bcf	(93/8),(93)&7
  2312                           	line	53
  2313                           ;Calling_systemV1.c: 53: T1OSCEN = 0;
  2314  049E  1283               	bcf	status, 5	;RP0=0, select bank0
  2315  049F  1303               	bcf	status, 6	;RP1=0, select bank0
  2316  04A0  1190               	bcf	(131/8),(131)&7
  2317                           	line	56
  2318                           ;Calling_systemV1.c: 56: VREN = 0;
  2319  04A1  1683               	bsf	status, 5	;RP0=1, select bank1
  2320  04A2  1303               	bcf	status, 6	;RP1=0, select bank1
  2321  04A3  139F               	bcf	(1279/8)^080h,(1279)&7
  2322                           	line	59
  2323                           ;Calling_systemV1.c: 59: CMIE = 0;
  2324  04A4  130C               	bcf	(1126/8)^080h,(1126)&7
  2325                           	line	61
  2326                           	
  2327  04A5                     l2497:	
  2328                           ;Calling_systemV1.c: 61: TRISA = 0b00100000;
  2329  04A5  3020               	movlw	(020h)
  2330  04A6  0085               	movwf	(133)^080h	;volatile
  2331                           	line	63
  2332                           ;Calling_systemV1.c: 63: TRISB = 0b00011111;
  2333  04A7  301F               	movlw	(01Fh)
  2334  04A8  0086               	movwf	(134)^080h	;volatile
  2335                           	line	65
  2336                           	
  2337  04A9                     l2499:	
  2338                           ;Calling_systemV1.c: 65: RB5 = 0;
  2339  04A9  1283               	bcf	status, 5	;RP0=0, select bank0
  2340  04AA  1303               	bcf	status, 6	;RP1=0, select bank0
  2341  04AB  1286               	bcf	(53/8),(53)&7
  2342                           	line	68
  2343                           	
  2344  04AC                     l2501:	
  2345                           ;Calling_systemV1.c: 68: nRBPU = 0;
  2346  04AC  1683               	bsf	status, 5	;RP0=1, select bank1
  2347  04AD  1303               	bcf	status, 6	;RP1=0, select bank1
  2348  04AE  1381               	bcf	(1039/8)^080h,(1039)&7
  2349                           	line	71
  2350                           	
  2351  04AF                     l2503:	
  2352                           ;Calling_systemV1.c: 71: RBIE = 1;
  2353  04AF  158B               	bsf	(91/8),(91)&7
  2354                           	line	74
  2355                           	
  2356  04B0                     l2505:	
  2357                           ;Calling_systemV1.c: 74: PEIE = 1;
  2358  04B0  170B               	bsf	(94/8),(94)&7
  2359                           	line	77
  2360                           	
  2361  04B1                     l2507:	
  2362                           ;Calling_systemV1.c: 77: GIE = 1;
  2363  04B1  178B               	bsf	(95/8),(95)&7
  2364                           	line	78
  2365                           	
  2366  04B2                     l369:	
  2367  04B2  0008               	return
  2368                           	opt stack 0
  2369                           GLOBAL	__end_of_Init
  2370  04B3                     	__end_of_Init:
  2371 ;; =============== function _Init ends ============
  2372                           
  2373                           	signat	_Init,88
  2374                           	global	_Interrupt_Handler
  2375                           psect	text211,local,class=CODE,delta=2
  2376                           global __ptext211
  2377  047F                     __ptext211:
  2378                           
  2379 ;; *************** function _Interrupt_Handler *****************
  2380 ;; Defined at:
  2381 ;;		line 489 in file "Calling_systemV1.c"
  2382 ;; Parameters:    Size  Location     Type
  2383 ;;		None
  2384 ;; Auto vars:     Size  Location     Type
  2385 ;;		None
  2386 ;; Return value:  Size  Location     Type
  2387 ;;		None               void
  2388 ;; Registers used:
  2389 ;;		wreg, fsr0l, fsr0h, status,2, status,0, pclath, cstack
  2390 ;; Tracked objects:
  2391 ;;		On entry : 0/0
  2392 ;;		On exit  : 0/0
  2393 ;;		Unchanged: 0/0
  2394 ;; Data sizes:     COMMON   BANK0   BANK1   BANK2
  2395 ;;      Params:         0       0       0       0
  2396 ;;      Locals:         0       0       0       0
  2397 ;;      Temps:          0       4       0       0
  2398 ;;      Totals:         0       4       0       0
  2399 ;;Total ram usage:        4 bytes
  2400 ;; Hardware stack levels used:    1
  2401 ;; Hardware stack levels required when called:    2
  2402 ;; This function calls:
  2403 ;;		_InsertNewIndex
  2404 ;; This function is called by:
  2405 ;;		Interrupt level 1
  2406 ;; This function uses a non-reentrant model
  2407 ;;
  2408                           psect	text211
  2409                           	file	"Calling_systemV1.c"
  2410                           	line	489
  2411                           	global	__size_of_Interrupt_Handler
  2412  001B                     	__size_of_Interrupt_Handler	equ	__end_of_Interrupt_Handler-_Interrupt_Handler
  2413                           	
  2414  047F                     _Interrupt_Handler:	
  2415                           	opt	stack 3
  2416                           ; Regs used in _Interrupt_Handler: [wreg-fsr0h+status,2+status,0+pclath+cstack]
  2417                           psect	intentry,class=CODE,delta=2
  2418                           global __pintentry
  2419  0004                     __pintentry:
  2420                           global interrupt_function
  2421  0004                     interrupt_function:
  2422                           	global saved_w
  2423  007E                     	saved_w	set	btemp+0
  2424  0004  00FE               	movwf	saved_w
  2425  0005  0E03               	swapf	status,w
  2426  0006  1283               	bcf	status, 5	;RP0=0, select bank0
  2427  0007  1303               	bcf	status, 6	;RP1=0, select bank0
  2428  0008  00C0               	movwf	(??_Interrupt_Handler+0)
  2429  0009  0804               	movf	fsr0,w
  2430  000A  00C1               	movwf	(??_Interrupt_Handler+1)
  2431  000B  080A               	movf	pclath,w
  2432  000C  00C2               	movwf	(??_Interrupt_Handler+2)
  2433  000D  087F               	movf	btemp+1,w
  2434  000E  00C3               	movwf	(??_Interrupt_Handler+3)
  2435  000F  2C7F               	ljmp	_Interrupt_Handler
  2436                           psect	text211
  2437                           	line	490
  2438                           	
  2439  047F                     i1l2733:	
  2440                           ;Calling_systemV1.c: 490: if(RBIF == 1)
  2441  047F  1C0B               	btfss	(88/8),(88)&7
  2442  0480  2C82               	goto	u287_21
  2443  0481  2C83               	goto	u287_20
  2444  0482                     u287_21:
  2445  0482  2C8D               	goto	i1l472
  2446  0483                     u287_20:
  2447                           	line	492
  2448                           	
  2449  0483                     i1l2735:	
  2450                           ;Calling_systemV1.c: 491: {
  2451                           ;Calling_systemV1.c: 492: if(RB4 == 1)
  2452  0483  1E06               	btfss	(52/8),(52)&7
  2453  0484  2C86               	goto	u288_21
  2454  0485  2C87               	goto	u288_20
  2455  0486                     u288_21:
  2456  0486  2C8B               	goto	i1l2739
  2457  0487                     u288_20:
  2458                           	line	494
  2459                           	
  2460  0487                     i1l2737:	
  2461                           ;Calling_systemV1.c: 493: {
  2462                           ;Calling_systemV1.c: 494: InsertNewIndex(PORTB & 0b00001111);
  2463  0487  0806               	movf	(6),w
  2464  0488  390F               	andlw	0Fh
  2465  0489  2184               	fcall	_InsertNewIndex
  2466  048A  2C8B               	goto	i1l2739
  2467                           	line	495
  2468                           	
  2469  048B                     i1l471:	
  2470                           	line	496
  2471                           	
  2472  048B                     i1l2739:	
  2473                           ;Calling_systemV1.c: 495: }
  2474                           ;Calling_systemV1.c: 496: RBIF = 0;
  2475  048B  100B               	bcf	(88/8),(88)&7
  2476  048C  2C8D               	goto	i1l472
  2477                           	line	497
  2478                           	
  2479  048D                     i1l470:	
  2480                           	line	499
  2481                           	
  2482  048D                     i1l472:	
  2483  048D  1283               	bcf	status, 5	;RP0=0, select bank0
  2484  048E  1303               	bcf	status, 6	;RP1=0, select bank0
  2485  048F  0843               	movf	(??_Interrupt_Handler+3),w
  2486  0490  00FF               	movwf	btemp+1
  2487  0491  0842               	movf	(??_Interrupt_Handler+2),w
  2488  0492  008A               	movwf	pclath
  2489  0493  0841               	movf	(??_Interrupt_Handler+1),w
  2490  0494  0084               	movwf	fsr0
  2491  0495  0E40               	swapf	(??_Interrupt_Handler+0)^00h,w
  2492  0496  0083               	movwf	status
  2493  0497  0EFE               	swapf	saved_w,f
  2494  0498  0E7E               	swapf	saved_w,w
  2495  0499  0009               	retfie
  2496                           	opt stack 0
  2497                           GLOBAL	__end_of_Interrupt_Handler
  2498  049A                     	__end_of_Interrupt_Handler:
  2499 ;; =============== function _Interrupt_Handler ends ============
  2500                           
  2501                           	signat	_Interrupt_Handler,88
  2502                           	global	_InsertNewIndex
  2503                           psect	text212,local,class=CODE,delta=2
  2504                           global __ptext212
  2505  0184                     __ptext212:
  2506                           
  2507 ;; *************** function _InsertNewIndex *****************
  2508 ;; Defined at:
  2509 ;;		line 238 in file "Calling_systemV1.c"
  2510 ;; Parameters:    Size  Location     Type
  2511 ;;  num             1    wreg     unsigned char 
  2512 ;; Auto vars:     Size  Location     Type
  2513 ;;  num             1    0[BANK0 ] unsigned char 
  2514 ;;  i               1    4[BANK0 ] unsigned char 
  2515 ;;  i               1    3[BANK0 ] unsigned char 
  2516 ;;  t_ten           1    2[BANK0 ] unsigned char 
  2517 ;;  t_unit          1    1[BANK0 ] unsigned char 
  2518 ;; Return value:  Size  Location     Type
  2519 ;;		None               void
  2520 ;; Registers used:
  2521 ;;		wreg, fsr0l, fsr0h, status,2, status,0, pclath, cstack
  2522 ;; Tracked objects:
  2523 ;;		On entry : 0/0
  2524 ;;		On exit  : 0/0
  2525 ;;		Unchanged: 0/0
  2526 ;; Data sizes:     COMMON   BANK0   BANK1   BANK2
  2527 ;;      Params:         0       0       0       0
  2528 ;;      Locals:         0       5       0       0
  2529 ;;      Temps:          3       0       0       0
  2530 ;;      Totals:         3       5       0       0
  2531 ;;Total ram usage:        8 bytes
  2532 ;; Hardware stack levels used:    1
  2533 ;; Hardware stack levels required when called:    1
  2534 ;; This function calls:
  2535 ;;		___awmod
  2536 ;;		___awdiv
  2537 ;; This function is called by:
  2538 ;;		_Interrupt_Handler
  2539 ;; This function uses a non-reentrant model
  2540 ;;
  2541                           psect	text212
  2542                           	file	"Calling_systemV1.c"
  2543                           	line	238
  2544                           	global	__size_of_InsertNewIndex
  2545  013C                     	__size_of_InsertNewIndex	equ	__end_of_InsertNewIndex-_InsertNewIndex
  2546                           	
  2547  0184                     _InsertNewIndex:	
  2548                           	opt	stack 3
  2549                           ; Regs used in _InsertNewIndex: [wreg-fsr0h+status,2+status,0+pclath+cstack]
  2550                           ;InsertNewIndex@num stored from wreg
  2551  0184  1283               	bcf	status, 5	;RP0=0, select bank0
  2552  0185  1303               	bcf	status, 6	;RP1=0, select bank0
  2553  0186  00BB               	movwf	(InsertNewIndex@num)
  2554                           	line	239
  2555                           	
  2556  0187                     i1l2637:	
  2557                           ;Calling_systemV1.c: 239: unsigned char t_unit = num%10;
  2558  0187  300A               	movlw	low(0Ah)
  2559  0188  00F0               	movwf	(?___awmod)
  2560  0189  3000               	movlw	high(0Ah)
  2561  018A  00F1               	movwf	((?___awmod))+1
  2562  018B  083B               	movf	(InsertNewIndex@num),w
  2563  018C  00F9               	movwf	(??_InsertNewIndex+0)+0
  2564  018D  01FA               	clrf	(??_InsertNewIndex+0)+0+1
  2565  018E  0879               	movf	0+(??_InsertNewIndex+0)+0,w
  2566  018F  00F2               	movwf	0+(?___awmod)+02h
  2567  0190  087A               	movf	1+(??_InsertNewIndex+0)+0,w
  2568  0191  00F3               	movwf	1+(?___awmod)+02h
  2569  0192  23F7               	fcall	___awmod
  2570  0193  0870               	movf	(0+(?___awmod)),w
  2571  0194  00FB               	movwf	(??_InsertNewIndex+2)+0
  2572  0195  087B               	movf	(??_InsertNewIndex+2)+0,w
  2573  0196  1283               	bcf	status, 5	;RP0=0, select bank0
  2574  0197  1303               	bcf	status, 6	;RP1=0, select bank0
  2575  0198  00BC               	movwf	(InsertNewIndex@t_unit)
  2576                           	line	240
  2577                           ;Calling_systemV1.c: 240: unsigned char t_ten = num/10;
  2578  0199  300A               	movlw	low(0Ah)
  2579  019A  00F0               	movwf	(?___awdiv)
  2580  019B  3000               	movlw	high(0Ah)
  2581  019C  00F1               	movwf	((?___awdiv))+1
  2582  019D  083B               	movf	(InsertNewIndex@num),w
  2583  019E  00F9               	movwf	(??_InsertNewIndex+0)+0
  2584  019F  01FA               	clrf	(??_InsertNewIndex+0)+0+1
  2585  01A0  0879               	movf	0+(??_InsertNewIndex+0)+0,w
  2586  01A1  00F2               	movwf	0+(?___awdiv)+02h
  2587  01A2  087A               	movf	1+(??_InsertNewIndex+0)+0,w
  2588  01A3  00F3               	movwf	1+(?___awdiv)+02h
  2589  01A4  2383               	fcall	___awdiv
  2590  01A5  0870               	movf	(0+(?___awdiv)),w
  2591  01A6  00FB               	movwf	(??_InsertNewIndex+2)+0
  2592  01A7  087B               	movf	(??_InsertNewIndex+2)+0,w
  2593  01A8  1283               	bcf	status, 5	;RP0=0, select bank0
  2594  01A9  1303               	bcf	status, 6	;RP1=0, select bank0
  2595  01AA  00BD               	movwf	(InsertNewIndex@t_ten)
  2596                           	line	242
  2597                           	
  2598  01AB                     i1l2639:	
  2599                           ;Calling_systemV1.c: 242: for(unsigned char i = 0; i < numNorCount; i++)
  2600  01AB  01BE               	clrf	(InsertNewIndex@i)
  2601  01AC  29D9               	goto	i1l2655
  2602                           	line	243
  2603                           	
  2604  01AD                     i1l408:	
  2605                           	line	244
  2606                           	
  2607  01AD                     i1l2641:	
  2608                           ;Calling_systemV1.c: 243: {
  2609                           ;Calling_systemV1.c: 244: if(t_unit != unit[i])
  2610  01AD  083E               	movf	(InsertNewIndex@i),w
  2611  01AE  3E2F               	addlw	_unit&0ffh
  2612  01AF  0084               	movwf	fsr0
  2613  01B0  1383               	bcf	status, 7	;select IRP bank0
  2614  01B1  0800               	movf	indf,w
  2615  01B2  063C               	xorwf	(InsertNewIndex@t_unit),w
  2616  01B3  1903               	skipnz
  2617  01B4  29B6               	goto	u273_21
  2618  01B5  29B7               	goto	u273_20
  2619  01B6                     u273_21:
  2620  01B6  29B9               	goto	i1l2645
  2621  01B7                     u273_20:
  2622  01B7  29D4               	goto	i1l2653
  2623                           	line	246
  2624                           	
  2625  01B8                     i1l2643:	
  2626                           ;Calling_systemV1.c: 245: {
  2627                           ;Calling_systemV1.c: 246: continue;
  2628  01B8  29D4               	goto	i1l2653
  2629                           	line	247
  2630                           	
  2631  01B9                     i1l409:	
  2632                           	line	248
  2633                           	
  2634  01B9                     i1l2645:	
  2635                           ;Calling_systemV1.c: 247: }
  2636                           ;Calling_systemV1.c: 248: if(t_ten != ten[i])
  2637  01B9  083E               	movf	(InsertNewIndex@i),w
  2638  01BA  3E25               	addlw	_ten&0ffh
  2639  01BB  0084               	movwf	fsr0
  2640  01BC  0800               	movf	indf,w
  2641  01BD  063D               	xorwf	(InsertNewIndex@t_ten),w
  2642  01BE  1903               	skipnz
  2643  01BF  29C1               	goto	u274_21
  2644  01C0  29C2               	goto	u274_20
  2645  01C1                     u274_21:
  2646  01C1  29C4               	goto	i1l2649
  2647  01C2                     u274_20:
  2648  01C2  29D4               	goto	i1l2653
  2649                           	line	250
  2650                           	
  2651  01C3                     i1l2647:	
  2652                           ;Calling_systemV1.c: 249: {
  2653                           ;Calling_systemV1.c: 250: continue;
  2654  01C3  29D4               	goto	i1l2653
  2655                           	line	251
  2656                           	
  2657  01C4                     i1l411:	
  2658                           	line	253
  2659                           	
  2660  01C4                     i1l2649:	
  2661                           ;Calling_systemV1.c: 251: }
  2662                           ;Calling_systemV1.c: 253: flick[i] = 3;
  2663  01C4  3003               	movlw	(03h)
  2664  01C5  00F9               	movwf	(??_InsertNewIndex+0)+0
  2665  01C6  083E               	movf	(InsertNewIndex@i),w
  2666  01C7  3E20               	addlw	_flick&0ffh
  2667  01C8  0084               	movwf	fsr0
  2668  01C9  0879               	movf	(??_InsertNewIndex+0)+0,w
  2669  01CA  0080               	movwf	indf
  2670                           	line	254
  2671                           ;Calling_systemV1.c: 254: timeout[i] = 60;
  2672  01CB  303C               	movlw	(03Ch)
  2673  01CC  00F9               	movwf	(??_InsertNewIndex+0)+0
  2674  01CD  083E               	movf	(InsertNewIndex@i),w
  2675  01CE  3E2A               	addlw	_timeout&0ffh
  2676  01CF  0084               	movwf	fsr0
  2677  01D0  0879               	movf	(??_InsertNewIndex+0)+0,w
  2678  01D1  0080               	movwf	indf
  2679  01D2  2ABF               	goto	i1l412
  2680                           	line	256
  2681                           	
  2682  01D3                     i1l2651:	
  2683                           ;Calling_systemV1.c: 256: return;
  2684  01D3  2ABF               	goto	i1l412
  2685                           	line	242
  2686                           	
  2687  01D4                     i1l410:	
  2688                           	
  2689  01D4                     i1l2653:	
  2690  01D4  3001               	movlw	(01h)
  2691  01D5  00F9               	movwf	(??_InsertNewIndex+0)+0
  2692  01D6  0879               	movf	(??_InsertNewIndex+0)+0,w
  2693  01D7  07BE               	addwf	(InsertNewIndex@i),f
  2694  01D8  29D9               	goto	i1l2655
  2695                           	
  2696  01D9                     i1l407:	
  2697                           	
  2698  01D9                     i1l2655:	
  2699  01D9  0839               	movf	(_numNorCount),w
  2700  01DA  023E               	subwf	(InsertNewIndex@i),w
  2701  01DB  1C03               	skipc
  2702  01DC  29DE               	goto	u275_21
  2703  01DD  29DF               	goto	u275_20
  2704  01DE                     u275_21:
  2705  01DE  29AD               	goto	i1l2641
  2706  01DF                     u275_20:
  2707  01DF  29E0               	goto	i1l2657
  2708                           	
  2709  01E0                     i1l413:	
  2710                           	line	259
  2711                           	
  2712  01E0                     i1l2657:	
  2713                           ;Calling_systemV1.c: 257: }
  2714                           ;Calling_systemV1.c: 259: if(numNorCount == 0)
  2715  01E0  08B9               	movf	(_numNorCount),f
  2716  01E1  1D03               	skipz
  2717  01E2  29E4               	goto	u276_21
  2718  01E3  29E5               	goto	u276_20
  2719  01E4                     u276_21:
  2720  01E4  29EA               	goto	i1l2661
  2721  01E5                     u276_20:
  2722                           	line	261
  2723                           	
  2724  01E5                     i1l2659:	
  2725                           ;Calling_systemV1.c: 260: {
  2726                           ;Calling_systemV1.c: 261: numNorCount++;
  2727  01E5  3001               	movlw	(01h)
  2728  01E6  00F9               	movwf	(??_InsertNewIndex+0)+0
  2729  01E7  0879               	movf	(??_InsertNewIndex+0)+0,w
  2730  01E8  07B9               	addwf	(_numNorCount),f
  2731                           	line	262
  2732                           ;Calling_systemV1.c: 262: }
  2733  01E9  2A63               	goto	i1l2683
  2734                           	line	263
  2735                           	
  2736  01EA                     i1l414:	
  2737                           	
  2738  01EA                     i1l2661:	
  2739                           ;Calling_systemV1.c: 263: else if(numNorCount == 5)
  2740  01EA  0839               	movf	(_numNorCount),w
  2741  01EB  3A05               	xorlw	05h
  2742  01EC  1D03               	skipz
  2743  01ED  29EF               	goto	u277_21
  2744  01EE  29F0               	goto	u277_20
  2745  01EF                     u277_21:
  2746  01EF  2A59               	goto	i1l2681
  2747  01F0                     u277_20:
  2748                           	line	266
  2749                           	
  2750  01F0                     i1l2663:	
  2751                           ;Calling_systemV1.c: 264: {
  2752                           ;Calling_systemV1.c: 265: unsigned char i;
  2753                           ;Calling_systemV1.c: 266: for(i = 0; i < numNorCount - 1; i++)
  2754  01F0  01BF               	clrf	(InsertNewIndex@i_215)
  2755  01F1  2A3A               	goto	i1l2675
  2756                           	line	267
  2757                           	
  2758  01F2                     i1l418:	
  2759                           	line	268
  2760                           	
  2761  01F2                     i1l2665:	
  2762                           ;Calling_systemV1.c: 267: {
  2763                           ;Calling_systemV1.c: 268: unit[i] = unit[i + 1];
  2764  01F2  1283               	bcf	status, 5	;RP0=0, select bank0
  2765  01F3  1303               	bcf	status, 6	;RP1=0, select bank0
  2766  01F4  083F               	movf	(InsertNewIndex@i_215),w
  2767  01F5  3E01               	addlw	01h
  2768  01F6  3E2F               	addlw	_unit&0ffh
  2769  01F7  0084               	movwf	fsr0
  2770  01F8  1383               	bcf	status, 7	;select IRP bank0
  2771  01F9  0800               	movf	indf,w
  2772  01FA  00F9               	movwf	(??_InsertNewIndex+0)+0
  2773  01FB  083F               	movf	(InsertNewIndex@i_215),w
  2774  01FC  3E2F               	addlw	_unit&0ffh
  2775  01FD  0084               	movwf	fsr0
  2776  01FE  0879               	movf	(??_InsertNewIndex+0)+0,w
  2777  01FF  0080               	movwf	indf
  2778                           	line	269
  2779                           ;Calling_systemV1.c: 269: ten[i] = ten[i + 1];
  2780  0200  083F               	movf	(InsertNewIndex@i_215),w
  2781  0201  3E01               	addlw	01h
  2782  0202  3E25               	addlw	_ten&0ffh
  2783  0203  0084               	movwf	fsr0
  2784  0204  0800               	movf	indf,w
  2785  0205  00F9               	movwf	(??_InsertNewIndex+0)+0
  2786  0206  083F               	movf	(InsertNewIndex@i_215),w
  2787  0207  3E25               	addlw	_ten&0ffh
  2788  0208  0084               	movwf	fsr0
  2789  0209  0879               	movf	(??_InsertNewIndex+0)+0,w
  2790  020A  0080               	movwf	indf
  2791                           	line	270
  2792                           ;Calling_systemV1.c: 270: flick[i] = flick[i + 1];
  2793  020B  083F               	movf	(InsertNewIndex@i_215),w
  2794  020C  3E01               	addlw	01h
  2795  020D  3E20               	addlw	_flick&0ffh
  2796  020E  0084               	movwf	fsr0
  2797  020F  0800               	movf	indf,w
  2798  0210  00F9               	movwf	(??_InsertNewIndex+0)+0
  2799  0211  083F               	movf	(InsertNewIndex@i_215),w
  2800  0212  3E20               	addlw	_flick&0ffh
  2801  0213  0084               	movwf	fsr0
  2802  0214  0879               	movf	(??_InsertNewIndex+0)+0,w
  2803  0215  0080               	movwf	indf
  2804                           	line	271
  2805                           ;Calling_systemV1.c: 271: timeout[i] = timeout[i + 1];
  2806  0216  083F               	movf	(InsertNewIndex@i_215),w
  2807  0217  3E01               	addlw	01h
  2808  0218  3E2A               	addlw	_timeout&0ffh
  2809  0219  0084               	movwf	fsr0
  2810  021A  0800               	movf	indf,w
  2811  021B  00F9               	movwf	(??_InsertNewIndex+0)+0
  2812  021C  083F               	movf	(InsertNewIndex@i_215),w
  2813  021D  3E2A               	addlw	_timeout&0ffh
  2814  021E  0084               	movwf	fsr0
  2815  021F  0879               	movf	(??_InsertNewIndex+0)+0,w
  2816  0220  0080               	movwf	indf
  2817                           	line	273
  2818                           	
  2819  0221                     i1l2667:	
  2820                           ;Calling_systemV1.c: 273: if(curViewIndex == i + 1)
  2821  0221  083F               	movf	(InsertNewIndex@i_215),w
  2822  0222  3E01               	addlw	low(01h)
  2823  0223  00F9               	movwf	(??_InsertNewIndex+0)+0
  2824  0224  3000               	movlw	high(01h)
  2825  0225  1803               	skipnc
  2826  0226  3001               	movlw	(high(01h)+1)&0ffh
  2827  0227  00FA               	movwf	((??_InsertNewIndex+0)+0)+1
  2828  0228  0837               	movf	(_curViewIndex),w
  2829  0229  0679               	xorwf	0+(??_InsertNewIndex+0)+0,w
  2830  022A  047A               	iorwf	1+(??_InsertNewIndex+0)+0,w
  2831  022B  1D03               	skipz
  2832  022C  2A2E               	goto	u278_21
  2833  022D  2A2F               	goto	u278_20
  2834  022E                     u278_21:
  2835  022E  2A35               	goto	i1l2673
  2836  022F                     u278_20:
  2837                           	line	275
  2838                           	
  2839  022F                     i1l2669:	
  2840                           ;Calling_systemV1.c: 274: {
  2841                           ;Calling_systemV1.c: 275: curViewIndex--;
  2842  022F  3001               	movlw	low(01h)
  2843  0230  02B7               	subwf	(_curViewIndex),f
  2844                           	line	276
  2845                           	
  2846  0231                     i1l2671:	
  2847                           ;Calling_systemV1.c: 276: moved = 1;
  2848  0231  01B8               	clrf	(_moved)
  2849  0232  1403               	bsf	status,0
  2850  0233  0DB8               	rlf	(_moved),f
  2851  0234  2A35               	goto	i1l2673
  2852                           	line	277
  2853                           	
  2854  0235                     i1l419:	
  2855                           	line	266
  2856                           	
  2857  0235                     i1l2673:	
  2858  0235  3001               	movlw	(01h)
  2859  0236  00F9               	movwf	(??_InsertNewIndex+0)+0
  2860  0237  0879               	movf	(??_InsertNewIndex+0)+0,w
  2861  0238  07BF               	addwf	(InsertNewIndex@i_215),f
  2862  0239  2A3A               	goto	i1l2675
  2863                           	
  2864  023A                     i1l417:	
  2865                           	
  2866  023A                     i1l2675:	
  2867  023A  0839               	movf	(_numNorCount),w
  2868  023B  3EFF               	addlw	low(-1)
  2869  023C  00F9               	movwf	(??_InsertNewIndex+0)+0
  2870  023D  30FF               	movlw	high(-1)
  2871  023E  1803               	skipnc
  2872  023F  3000               	movlw	(high(-1)+1)&0ffh
  2873  0240  00FA               	movwf	((??_InsertNewIndex+0)+0)+1
  2874  0241  087A               	movf	1+(??_InsertNewIndex+0)+0,w
  2875  0242  3A80               	xorlw	80h
  2876  0243  3C80               	sublw	080h
  2877  0244  1D03               	skipz
  2878  0245  2A48               	goto	u279_25
  2879  0246  0879               	movf	0+(??_InsertNewIndex+0)+0,w
  2880  0247  023F               	subwf	(InsertNewIndex@i_215),w
  2881  0248                     u279_25:
  2882                           
  2883  0248  1C03               	skipc
  2884  0249  2A4B               	goto	u279_21
  2885  024A  2A4C               	goto	u279_20
  2886  024B                     u279_21:
  2887  024B  29F2               	goto	i1l2665
  2888  024C                     u279_20:
  2889  024C  2A4D               	goto	i1l2677
  2890                           	
  2891  024D                     i1l420:	
  2892                           	line	279
  2893                           	
  2894  024D                     i1l2677:	
  2895                           ;Calling_systemV1.c: 277: }
  2896                           ;Calling_systemV1.c: 278: }
  2897                           ;Calling_systemV1.c: 279: if(curViewIndex == 0)
  2898  024D  1283               	bcf	status, 5	;RP0=0, select bank0
  2899  024E  1303               	bcf	status, 6	;RP1=0, select bank0
  2900  024F  08B7               	movf	(_curViewIndex),f
  2901  0250  1D03               	skipz
  2902  0251  2A53               	goto	u280_21
  2903  0252  2A54               	goto	u280_20
  2904  0253                     u280_21:
  2905  0253  2A63               	goto	i1l2683
  2906  0254                     u280_20:
  2907                           	line	281
  2908                           	
  2909  0254                     i1l2679:	
  2910                           ;Calling_systemV1.c: 280: {
  2911                           ;Calling_systemV1.c: 281: moved = 1;
  2912  0254  01B8               	clrf	(_moved)
  2913  0255  1403               	bsf	status,0
  2914  0256  0DB8               	rlf	(_moved),f
  2915  0257  2A63               	goto	i1l2683
  2916                           	line	282
  2917                           	
  2918  0258                     i1l421:	
  2919                           	line	283
  2920                           ;Calling_systemV1.c: 282: }
  2921                           ;Calling_systemV1.c: 283: }
  2922  0258  2A63               	goto	i1l2683
  2923                           	line	284
  2924                           	
  2925  0259                     i1l416:	
  2926                           	line	286
  2927                           	
  2928  0259                     i1l2681:	
  2929                           ;Calling_systemV1.c: 284: else
  2930                           ;Calling_systemV1.c: 285: {
  2931                           ;Calling_systemV1.c: 286: curNorIndex++;
  2932  0259  3001               	movlw	(01h)
  2933  025A  00F9               	movwf	(??_InsertNewIndex+0)+0
  2934  025B  0879               	movf	(??_InsertNewIndex+0)+0,w
  2935  025C  07B5               	addwf	(_curNorIndex),f
  2936                           	line	287
  2937                           ;Calling_systemV1.c: 287: numNorCount++;
  2938  025D  3001               	movlw	(01h)
  2939  025E  00F9               	movwf	(??_InsertNewIndex+0)+0
  2940  025F  0879               	movf	(??_InsertNewIndex+0)+0,w
  2941  0260  07B9               	addwf	(_numNorCount),f
  2942  0261  2A63               	goto	i1l2683
  2943                           	line	288
  2944                           	
  2945  0262                     i1l422:	
  2946  0262  2A63               	goto	i1l2683
  2947                           	
  2948  0263                     i1l415:	
  2949                           	line	290
  2950                           	
  2951  0263                     i1l2683:	
  2952                           ;Calling_systemV1.c: 288: }
  2953                           ;Calling_systemV1.c: 290: unit[curNorIndex] = t_unit;
  2954  0263  083C               	movf	(InsertNewIndex@t_unit),w
  2955  0264  00F9               	movwf	(??_InsertNewIndex+0)+0
  2956  0265  0835               	movf	(_curNorIndex),w
  2957  0266  3E2F               	addlw	_unit&0ffh
  2958  0267  0084               	movwf	fsr0
  2959  0268  0879               	movf	(??_InsertNewIndex+0)+0,w
  2960  0269  1383               	bcf	status, 7	;select IRP bank0
  2961  026A  0080               	movwf	indf
  2962                           	line	291
  2963                           	
  2964  026B                     i1l2685:	
  2965                           ;Calling_systemV1.c: 291: ten[curNorIndex] = t_ten;
  2966  026B  083D               	movf	(InsertNewIndex@t_ten),w
  2967  026C  00F9               	movwf	(??_InsertNewIndex+0)+0
  2968  026D  0835               	movf	(_curNorIndex),w
  2969  026E  3E25               	addlw	_ten&0ffh
  2970  026F  0084               	movwf	fsr0
  2971  0270  0879               	movf	(??_InsertNewIndex+0)+0,w
  2972  0271  0080               	movwf	indf
  2973                           	line	292
  2974                           	
  2975  0272                     i1l2687:	
  2976                           ;Calling_systemV1.c: 292: flick[curNorIndex] = 3;
  2977  0272  3003               	movlw	(03h)
  2978  0273  00F9               	movwf	(??_InsertNewIndex+0)+0
  2979  0274  0835               	movf	(_curNorIndex),w
  2980  0275  3E20               	addlw	_flick&0ffh
  2981  0276  0084               	movwf	fsr0
  2982  0277  0879               	movf	(??_InsertNewIndex+0)+0,w
  2983  0278  0080               	movwf	indf
  2984                           	line	293
  2985                           	
  2986  0279                     i1l2689:	
  2987                           ;Calling_systemV1.c: 293: timeout[curNorIndex] = 60;
  2988  0279  303C               	movlw	(03Ch)
  2989  027A  00F9               	movwf	(??_InsertNewIndex+0)+0
  2990  027B  0835               	movf	(_curNorIndex),w
  2991  027C  3E2A               	addlw	_timeout&0ffh
  2992  027D  0084               	movwf	fsr0
  2993  027E  0879               	movf	(??_InsertNewIndex+0)+0,w
  2994  027F  0080               	movwf	indf
  2995                           	line	295
  2996                           	
  2997  0280                     i1l2691:	
  2998                           ;Calling_systemV1.c: 295: if(prioritized == 0)
  2999  0280  08BA               	movf	(_prioritized),f
  3000  0281  1D03               	skipz
  3001  0282  2A84               	goto	u281_21
  3002  0283  2A85               	goto	u281_20
  3003  0284                     u281_21:
  3004  0284  2A8D               	goto	i1l2697
  3005  0285                     u281_20:
  3006                           	line	297
  3007                           	
  3008  0285                     i1l2693:	
  3009                           ;Calling_systemV1.c: 296: {
  3010                           ;Calling_systemV1.c: 297: moved = 1;
  3011  0285  01B8               	clrf	(_moved)
  3012  0286  1403               	bsf	status,0
  3013  0287  0DB8               	rlf	(_moved),f
  3014                           	line	298
  3015                           	
  3016  0288                     i1l2695:	
  3017                           ;Calling_systemV1.c: 298: curViewIndex = curNorIndex;
  3018  0288  0835               	movf	(_curNorIndex),w
  3019  0289  00F9               	movwf	(??_InsertNewIndex+0)+0
  3020  028A  0879               	movf	(??_InsertNewIndex+0)+0,w
  3021  028B  00B7               	movwf	(_curViewIndex)
  3022  028C  2A8D               	goto	i1l2697
  3023                           	line	299
  3024                           	
  3025  028D                     i1l423:	
  3026                           	line	301
  3027                           	
  3028  028D                     i1l2697:	
  3029                           ;Calling_systemV1.c: 299: }
  3030                           ;Calling_systemV1.c: 301: if(numNorCount == 1)
  3031  028D  0839               	movf	(_numNorCount),w
  3032  028E  3A01               	xorlw	01h
  3033  028F  1D03               	skipz
  3034  0290  2A92               	goto	u282_21
  3035  0291  2A93               	goto	u282_20
  3036  0292                     u282_21:
  3037  0292  2AA0               	goto	i1l2705
  3038  0293                     u282_20:
  3039                           	line	303
  3040                           	
  3041  0293                     i1l2699:	
  3042                           ;Calling_systemV1.c: 302: {
  3043                           ;Calling_systemV1.c: 303: {RB5 = 1; _delay((unsigned long)((30)*(4000000/4000.0))); RB5 
                                 = 0;};
  3044  0293  1686               	bsf	(53/8),(53)&7
  3045                           	
  3046  0294                     i1l2701:	
  3047                           	opt asmopt_off
  3048  0294  3027               movlw	39
  3049  0295  00FA               movwf	((??_InsertNewIndex+0)+0+1),f
  3050  0296  30F5               	movlw	245
  3051  0297  00F9               movwf	((??_InsertNewIndex+0)+0),f
  3052  0298                     u328_27:
  3053  0298  0BF9               	decfsz	((??_InsertNewIndex+0)+0),f
  3054  0299  2A98               	goto	u328_27
  3055  029A  0BFA               	decfsz	((??_InsertNewIndex+0)+0+1),f
  3056  029B  2A98               	goto	u328_27
  3057                           opt asmopt_on
  3058                           
  3059                           	
  3060  029C                     i1l2703:	
  3061  029C  1283               	bcf	status, 5	;RP0=0, select bank0
  3062  029D  1303               	bcf	status, 6	;RP1=0, select bank0
  3063  029E  1286               	bcf	(53/8),(53)&7
  3064                           	line	304
  3065                           ;Calling_systemV1.c: 304: }
  3066  029F  2ABF               	goto	i1l412
  3067                           	line	305
  3068                           	
  3069  02A0                     i1l424:	
  3070                           	line	307
  3071                           	
  3072  02A0                     i1l2705:	
  3073                           ;Calling_systemV1.c: 305: else
  3074                           ;Calling_systemV1.c: 306: {
  3075                           ;Calling_systemV1.c: 307: if(moved == 1)
  3076  02A0  0838               	movf	(_moved),w
  3077  02A1  3A01               	xorlw	01h
  3078  02A2  1D03               	skipz
  3079  02A3  2AA5               	goto	u283_21
  3080  02A4  2AA6               	goto	u283_20
  3081  02A5                     u283_21:
  3082  02A5  2ABF               	goto	i1l412
  3083  02A6                     u283_20:
  3084                           	line	309
  3085                           	
  3086  02A6                     i1l2707:	
  3087                           ;Calling_systemV1.c: 308: {
  3088                           ;Calling_systemV1.c: 309: if(flick[curViewIndex] == 3)
  3089  02A6  0837               	movf	(_curViewIndex),w
  3090  02A7  3E20               	addlw	_flick&0ffh
  3091  02A8  0084               	movwf	fsr0
  3092  02A9  1383               	bcf	status, 7	;select IRP bank0
  3093  02AA  0800               	movf	indf,w
  3094  02AB  3A03               	xorlw	03h
  3095  02AC  1D03               	skipz
  3096  02AD  2AAF               	goto	u284_21
  3097  02AE  2AB0               	goto	u284_20
  3098  02AF                     u284_21:
  3099  02AF  2ABF               	goto	i1l412
  3100  02B0                     u284_20:
  3101                           	line	311
  3102                           	
  3103  02B0                     i1l2709:	
  3104                           ;Calling_systemV1.c: 310: {
  3105                           ;Calling_systemV1.c: 311: {RB5 = 1; _delay((unsigned long)((30)*(4000000/4000.0))); RB5 
                                 = 0;};
  3106  02B0  1686               	bsf	(53/8),(53)&7
  3107                           	
  3108  02B1                     i1l2711:	
  3109                           	opt asmopt_off
  3110  02B1  3027               movlw	39
  3111  02B2  00FA               movwf	((??_InsertNewIndex+0)+0+1),f
  3112  02B3  30F5               	movlw	245
  3113  02B4  00F9               movwf	((??_InsertNewIndex+0)+0),f
  3114  02B5                     u329_27:
  3115  02B5  0BF9               	decfsz	((??_InsertNewIndex+0)+0),f
  3116  02B6  2AB5               	goto	u329_27
  3117  02B7  0BFA               	decfsz	((??_InsertNewIndex+0)+0+1),f
  3118  02B8  2AB5               	goto	u329_27
  3119                           opt asmopt_on
  3120                           
  3121                           	
  3122  02B9                     i1l2713:	
  3123  02B9  1283               	bcf	status, 5	;RP0=0, select bank0
  3124  02BA  1303               	bcf	status, 6	;RP1=0, select bank0
  3125  02BB  1286               	bcf	(53/8),(53)&7
  3126  02BC  2ABF               	goto	i1l412
  3127                           	line	312
  3128                           	
  3129  02BD                     i1l427:	
  3130  02BD  2ABF               	goto	i1l412
  3131                           	line	313
  3132                           	
  3133  02BE                     i1l426:	
  3134  02BE  2ABF               	goto	i1l412
  3135                           	line	314
  3136                           	
  3137  02BF                     i1l425:	
  3138                           	line	316
  3139                           	
  3140  02BF                     i1l412:	
  3141  02BF  0008               	return
  3142                           	opt stack 0
  3143                           GLOBAL	__end_of_InsertNewIndex
  3144  02C0                     	__end_of_InsertNewIndex:
  3145 ;; =============== function _InsertNewIndex ends ============
  3146                           
  3147                           	signat	_InsertNewIndex,4216
  3148                           	global	___awmod
  3149                           psect	text213,local,class=CODE,delta=2
  3150                           global __ptext213
  3151  03F7                     __ptext213:
  3152                           
  3153 ;; *************** function ___awmod *****************
  3154 ;; Defined at:
  3155 ;;		line 5 in file "C:\Program Files\HI-TECH Software\PICC\9.83\sources\awmod.c"
  3156 ;; Parameters:    Size  Location     Type
  3157 ;;  divisor         2    0[COMMON] int 
  3158 ;;  dividend        2    2[COMMON] int 
  3159 ;; Auto vars:     Size  Location     Type
  3160 ;;  sign            1    6[COMMON] unsigned char 
  3161 ;;  counter         1    5[COMMON] unsigned char 
  3162 ;; Return value:  Size  Location     Type
  3163 ;;                  2    0[COMMON] int 
  3164 ;; Registers used:
  3165 ;;		wreg, status,2, status,0
  3166 ;; Tracked objects:
  3167 ;;		On entry : 0/0
  3168 ;;		On exit  : 0/0
  3169 ;;		Unchanged: 0/0
  3170 ;; Data sizes:     COMMON   BANK0   BANK1   BANK2
  3171 ;;      Params:         4       0       0       0
  3172 ;;      Locals:         2       0       0       0
  3173 ;;      Temps:          1       0       0       0
  3174 ;;      Totals:         7       0       0       0
  3175 ;;Total ram usage:        7 bytes
  3176 ;; Hardware stack levels used:    1
  3177 ;; This function calls:
  3178 ;;		Nothing
  3179 ;; This function is called by:
  3180 ;;		_InsertNewIndex
  3181 ;; This function uses a non-reentrant model
  3182 ;;
  3183                           psect	text213
  3184                           	file	"C:\Program Files\HI-TECH Software\PICC\9.83\sources\awmod.c"
  3185                           	line	5
  3186                           	global	__size_of___awmod
  3187  0066                     	__size_of___awmod	equ	__end_of___awmod-___awmod
  3188                           	
  3189  03F7                     ___awmod:	
  3190                           	opt	stack 3
  3191                           ; Regs used in ___awmod: [wreg+status,2+status,0]
  3192                           	line	8
  3193                           	
  3194  03F7                     i1l2781:	
  3195  03F7  01F6               	clrf	(___awmod@sign)
  3196                           	line	9
  3197  03F8  1FF3               	btfss	(___awmod@dividend+1),7
  3198  03F9  2BFB               	goto	u299_21
  3199  03FA  2BFC               	goto	u299_20
  3200  03FB                     u299_21:
  3201  03FB  2C05               	goto	i1l2785
  3202  03FC                     u299_20:
  3203                           	line	10
  3204                           	
  3205  03FC                     i1l2783:	
  3206  03FC  09F2               	comf	(___awmod@dividend),f
  3207  03FD  09F3               	comf	(___awmod@dividend+1),f
  3208  03FE  0AF2               	incf	(___awmod@dividend),f
  3209  03FF  1903               	skipnz
  3210  0400  0AF3               	incf	(___awmod@dividend+1),f
  3211                           	line	11
  3212  0401  01F6               	clrf	(___awmod@sign)
  3213  0402  1403               	bsf	status,0
  3214  0403  0DF6               	rlf	(___awmod@sign),f
  3215  0404  2C05               	goto	i1l2785
  3216                           	line	12
  3217                           	
  3218  0405                     i1l1087:	
  3219                           	line	13
  3220                           	
  3221  0405                     i1l2785:	
  3222  0405  1FF1               	btfss	(___awmod@divisor+1),7
  3223  0406  2C08               	goto	u300_21
  3224  0407  2C09               	goto	u300_20
  3225  0408                     u300_21:
  3226  0408  2C0F               	goto	i1l2789
  3227  0409                     u300_20:
  3228                           	line	14
  3229                           	
  3230  0409                     i1l2787:	
  3231  0409  09F0               	comf	(___awmod@divisor),f
  3232  040A  09F1               	comf	(___awmod@divisor+1),f
  3233  040B  0AF0               	incf	(___awmod@divisor),f
  3234  040C  1903               	skipnz
  3235  040D  0AF1               	incf	(___awmod@divisor+1),f
  3236  040E  2C0F               	goto	i1l2789
  3237                           	
  3238  040F                     i1l1088:	
  3239                           	line	15
  3240                           	
  3241  040F                     i1l2789:	
  3242  040F  0871               	movf	(___awmod@divisor+1),w
  3243  0410  0470               	iorwf	(___awmod@divisor),w
  3244  0411  1903               	skipnz
  3245  0412  2C14               	goto	u301_21
  3246  0413  2C15               	goto	u301_20
  3247  0414                     u301_21:
  3248  0414  2C4B               	goto	i1l2807
  3249  0415                     u301_20:
  3250                           	line	16
  3251                           	
  3252  0415                     i1l2791:	
  3253  0415  01F5               	clrf	(___awmod@counter)
  3254  0416  1403               	bsf	status,0
  3255  0417  0DF5               	rlf	(___awmod@counter),f
  3256                           	line	17
  3257  0418  2C25               	goto	i1l2797
  3258                           	
  3259  0419                     i1l1091:	
  3260                           	line	18
  3261                           	
  3262  0419                     i1l2793:	
  3263  0419  3001               	movlw	01h
  3264                           	
  3265  041A                     u302_25:
  3266  041A  1003               	clrc
  3267  041B  0DF0               	rlf	(___awmod@divisor),f
  3268  041C  0DF1               	rlf	(___awmod@divisor+1),f
  3269  041D  3EFF               	addlw	-1
  3270  041E  1D03               	skipz
  3271  041F  2C1A               	goto	u302_25
  3272                           	line	19
  3273                           	
  3274  0420                     i1l2795:	
  3275  0420  3001               	movlw	(01h)
  3276  0421  00F4               	movwf	(??___awmod+0)+0
  3277  0422  0874               	movf	(??___awmod+0)+0,w
  3278  0423  07F5               	addwf	(___awmod@counter),f
  3279  0424  2C25               	goto	i1l2797
  3280                           	line	20
  3281                           	
  3282  0425                     i1l1090:	
  3283                           	line	17
  3284                           	
  3285  0425                     i1l2797:	
  3286  0425  1FF1               	btfss	(___awmod@divisor+1),(15)&7
  3287  0426  2C28               	goto	u303_21
  3288  0427  2C29               	goto	u303_20
  3289  0428                     u303_21:
  3290  0428  2C19               	goto	i1l2793
  3291  0429                     u303_20:
  3292  0429  2C2B               	goto	i1l2799
  3293                           	
  3294  042A                     i1l1092:	
  3295  042A  2C2B               	goto	i1l2799
  3296                           	line	21
  3297                           	
  3298  042B                     i1l1093:	
  3299                           	line	22
  3300                           	
  3301  042B                     i1l2799:	
  3302  042B  0871               	movf	(___awmod@divisor+1),w
  3303  042C  0273               	subwf	(___awmod@dividend+1),w
  3304  042D  1D03               	skipz
  3305  042E  2C31               	goto	u304_25
  3306  042F  0870               	movf	(___awmod@divisor),w
  3307  0430  0272               	subwf	(___awmod@dividend),w
  3308  0431                     u304_25:
  3309  0431  1C03               	skipc
  3310  0432  2C34               	goto	u304_21
  3311  0433  2C35               	goto	u304_20
  3312  0434                     u304_21:
  3313  0434  2C3C               	goto	i1l2803
  3314  0435                     u304_20:
  3315                           	line	23
  3316                           	
  3317  0435                     i1l2801:	
  3318  0435  0870               	movf	(___awmod@divisor),w
  3319  0436  02F2               	subwf	(___awmod@dividend),f
  3320  0437  0871               	movf	(___awmod@divisor+1),w
  3321  0438  1C03               	skipc
  3322  0439  03F3               	decf	(___awmod@dividend+1),f
  3323  043A  02F3               	subwf	(___awmod@dividend+1),f
  3324  043B  2C3C               	goto	i1l2803
  3325                           	
  3326  043C                     i1l1094:	
  3327                           	line	24
  3328                           	
  3329  043C                     i1l2803:	
  3330  043C  3001               	movlw	01h
  3331                           	
  3332  043D                     u305_25:
  3333  043D  1003               	clrc
  3334  043E  0CF1               	rrf	(___awmod@divisor+1),f
  3335  043F  0CF0               	rrf	(___awmod@divisor),f
  3336  0440  3EFF               	addlw	-1
  3337  0441  1D03               	skipz
  3338  0442  2C3D               	goto	u305_25
  3339                           	line	25
  3340                           	
  3341  0443                     i1l2805:	
  3342  0443  3001               	movlw	low(01h)
  3343  0444  02F5               	subwf	(___awmod@counter),f
  3344  0445  1D03               	btfss	status,2
  3345  0446  2C48               	goto	u306_21
  3346  0447  2C49               	goto	u306_20
  3347  0448                     u306_21:
  3348  0448  2C2B               	goto	i1l2799
  3349  0449                     u306_20:
  3350  0449  2C4B               	goto	i1l2807
  3351                           	
  3352  044A                     i1l1095:	
  3353  044A  2C4B               	goto	i1l2807
  3354                           	line	26
  3355                           	
  3356  044B                     i1l1089:	
  3357                           	line	27
  3358                           	
  3359  044B                     i1l2807:	
  3360  044B  0876               	movf	(___awmod@sign),w
  3361  044C  1D03               	skipz
  3362  044D  2C4F               	goto	u307_20
  3363  044E  2C55               	goto	i1l2811
  3364  044F                     u307_20:
  3365                           	line	28
  3366                           	
  3367  044F                     i1l2809:	
  3368  044F  09F2               	comf	(___awmod@dividend),f
  3369  0450  09F3               	comf	(___awmod@dividend+1),f
  3370  0451  0AF2               	incf	(___awmod@dividend),f
  3371  0452  1903               	skipnz
  3372  0453  0AF3               	incf	(___awmod@dividend+1),f
  3373  0454  2C55               	goto	i1l2811
  3374                           	
  3375  0455                     i1l1096:	
  3376                           	line	29
  3377                           	
  3378  0455                     i1l2811:	
  3379  0455  0873               	movf	(___awmod@dividend+1),w
  3380  0456  01F1               	clrf	(?___awmod+1)
  3381  0457  07F1               	addwf	(?___awmod+1)
  3382  0458  0872               	movf	(___awmod@dividend),w
  3383  0459  01F0               	clrf	(?___awmod)
  3384  045A  07F0               	addwf	(?___awmod)
  3385                           
  3386  045B  2C5C               	goto	i1l1097
  3387                           	
  3388  045C                     i1l2813:	
  3389                           	line	30
  3390                           	
  3391  045C                     i1l1097:	
  3392  045C  0008               	return
  3393                           	opt stack 0
  3394                           GLOBAL	__end_of___awmod
  3395  045D                     	__end_of___awmod:
  3396 ;; =============== function ___awmod ends ============
  3397                           
  3398                           	signat	___awmod,8314
  3399                           	global	___awdiv
  3400                           psect	text214,local,class=CODE,delta=2
  3401                           global __ptext214
  3402  0383                     __ptext214:
  3403                           
  3404 ;; *************** function ___awdiv *****************
  3405 ;; Defined at:
  3406 ;;		line 5 in file "C:\Program Files\HI-TECH Software\PICC\9.83\sources\awdiv.c"
  3407 ;; Parameters:    Size  Location     Type
  3408 ;;  divisor         2    0[COMMON] int 
  3409 ;;  dividend        2    2[COMMON] int 
  3410 ;; Auto vars:     Size  Location     Type
  3411 ;;  quotient        2    7[COMMON] int 
  3412 ;;  sign            1    6[COMMON] unsigned char 
  3413 ;;  counter         1    5[COMMON] unsigned char 
  3414 ;; Return value:  Size  Location     Type
  3415 ;;                  2    0[COMMON] int 
  3416 ;; Registers used:
  3417 ;;		wreg, status,2, status,0
  3418 ;; Tracked objects:
  3419 ;;		On entry : 0/0
  3420 ;;		On exit  : 0/0
  3421 ;;		Unchanged: 0/0
  3422 ;; Data sizes:     COMMON   BANK0   BANK1   BANK2
  3423 ;;      Params:         4       0       0       0
  3424 ;;      Locals:         4       0       0       0
  3425 ;;      Temps:          1       0       0       0
  3426 ;;      Totals:         9       0       0       0
  3427 ;;Total ram usage:        9 bytes
  3428 ;; Hardware stack levels used:    1
  3429 ;; This function calls:
  3430 ;;		Nothing
  3431 ;; This function is called by:
  3432 ;;		_InsertNewIndex
  3433 ;; This function uses a non-reentrant model
  3434 ;;
  3435                           psect	text214
  3436                           	file	"C:\Program Files\HI-TECH Software\PICC\9.83\sources\awdiv.c"
  3437                           	line	5
  3438                           	global	__size_of___awdiv
  3439  0074                     	__size_of___awdiv	equ	__end_of___awdiv-___awdiv
  3440                           	
  3441  0383                     ___awdiv:	
  3442                           	opt	stack 3
  3443                           ; Regs used in ___awdiv: [wreg+status,2+status,0]
  3444                           	line	9
  3445                           	
  3446  0383                     i1l2741:	
  3447  0383  01F6               	clrf	(___awdiv@sign)
  3448                           	line	10
  3449  0384  1FF1               	btfss	(___awdiv@divisor+1),7
  3450  0385  2B87               	goto	u289_21
  3451  0386  2B88               	goto	u289_20
  3452  0387                     u289_21:
  3453  0387  2B91               	goto	i1l2745
  3454  0388                     u289_20:
  3455                           	line	11
  3456                           	
  3457  0388                     i1l2743:	
  3458  0388  09F0               	comf	(___awdiv@divisor),f
  3459  0389  09F1               	comf	(___awdiv@divisor+1),f
  3460  038A  0AF0               	incf	(___awdiv@divisor),f
  3461  038B  1903               	skipnz
  3462  038C  0AF1               	incf	(___awdiv@divisor+1),f
  3463                           	line	12
  3464  038D  01F6               	clrf	(___awdiv@sign)
  3465  038E  1403               	bsf	status,0
  3466  038F  0DF6               	rlf	(___awdiv@sign),f
  3467  0390  2B91               	goto	i1l2745
  3468                           	line	13
  3469                           	
  3470  0391                     i1l1019:	
  3471                           	line	14
  3472                           	
  3473  0391                     i1l2745:	
  3474  0391  1FF3               	btfss	(___awdiv@dividend+1),7
  3475  0392  2B94               	goto	u290_21
  3476  0393  2B95               	goto	u290_20
  3477  0394                     u290_21:
  3478  0394  2B9F               	goto	i1l2751
  3479  0395                     u290_20:
  3480                           	line	15
  3481                           	
  3482  0395                     i1l2747:	
  3483  0395  09F2               	comf	(___awdiv@dividend),f
  3484  0396  09F3               	comf	(___awdiv@dividend+1),f
  3485  0397  0AF2               	incf	(___awdiv@dividend),f
  3486  0398  1903               	skipnz
  3487  0399  0AF3               	incf	(___awdiv@dividend+1),f
  3488                           	line	16
  3489                           	
  3490  039A                     i1l2749:	
  3491  039A  3001               	movlw	(01h)
  3492  039B  00F4               	movwf	(??___awdiv+0)+0
  3493  039C  0874               	movf	(??___awdiv+0)+0,w
  3494  039D  06F6               	xorwf	(___awdiv@sign),f
  3495  039E  2B9F               	goto	i1l2751
  3496                           	line	17
  3497                           	
  3498  039F                     i1l1020:	
  3499                           	line	18
  3500                           	
  3501  039F                     i1l2751:	
  3502  039F  01F7               	clrf	(___awdiv@quotient)
  3503  03A0  01F8               	clrf	(___awdiv@quotient+1)
  3504                           	line	19
  3505                           	
  3506  03A1                     i1l2753:	
  3507  03A1  0871               	movf	(___awdiv@divisor+1),w
  3508  03A2  0470               	iorwf	(___awdiv@divisor),w
  3509  03A3  1903               	skipnz
  3510  03A4  2BA6               	goto	u291_21
  3511  03A5  2BA7               	goto	u291_20
  3512  03A6                     u291_21:
  3513  03A6  2BE5               	goto	i1l2773
  3514  03A7                     u291_20:
  3515                           	line	20
  3516                           	
  3517  03A7                     i1l2755:	
  3518  03A7  01F5               	clrf	(___awdiv@counter)
  3519  03A8  1403               	bsf	status,0
  3520  03A9  0DF5               	rlf	(___awdiv@counter),f
  3521                           	line	21
  3522  03AA  2BB7               	goto	i1l2761
  3523                           	
  3524  03AB                     i1l1023:	
  3525                           	line	22
  3526                           	
  3527  03AB                     i1l2757:	
  3528  03AB  3001               	movlw	01h
  3529                           	
  3530  03AC                     u292_25:
  3531  03AC  1003               	clrc
  3532  03AD  0DF0               	rlf	(___awdiv@divisor),f
  3533  03AE  0DF1               	rlf	(___awdiv@divisor+1),f
  3534  03AF  3EFF               	addlw	-1
  3535  03B0  1D03               	skipz
  3536  03B1  2BAC               	goto	u292_25
  3537                           	line	23
  3538                           	
  3539  03B2                     i1l2759:	
  3540  03B2  3001               	movlw	(01h)
  3541  03B3  00F4               	movwf	(??___awdiv+0)+0
  3542  03B4  0874               	movf	(??___awdiv+0)+0,w
  3543  03B5  07F5               	addwf	(___awdiv@counter),f
  3544  03B6  2BB7               	goto	i1l2761
  3545                           	line	24
  3546                           	
  3547  03B7                     i1l1022:	
  3548                           	line	21
  3549                           	
  3550  03B7                     i1l2761:	
  3551  03B7  1FF1               	btfss	(___awdiv@divisor+1),(15)&7
  3552  03B8  2BBA               	goto	u293_21
  3553  03B9  2BBB               	goto	u293_20
  3554  03BA                     u293_21:
  3555  03BA  2BAB               	goto	i1l2757
  3556  03BB                     u293_20:
  3557  03BB  2BBD               	goto	i1l2763
  3558                           	
  3559  03BC                     i1l1024:	
  3560  03BC  2BBD               	goto	i1l2763
  3561                           	line	25
  3562                           	
  3563  03BD                     i1l1025:	
  3564                           	line	26
  3565                           	
  3566  03BD                     i1l2763:	
  3567  03BD  3001               	movlw	01h
  3568                           	
  3569  03BE                     u294_25:
  3570  03BE  1003               	clrc
  3571  03BF  0DF7               	rlf	(___awdiv@quotient),f
  3572  03C0  0DF8               	rlf	(___awdiv@quotient+1),f
  3573  03C1  3EFF               	addlw	-1
  3574  03C2  1D03               	skipz
  3575  03C3  2BBE               	goto	u294_25
  3576                           	line	27
  3577  03C4  0871               	movf	(___awdiv@divisor+1),w
  3578  03C5  0273               	subwf	(___awdiv@dividend+1),w
  3579  03C6  1D03               	skipz
  3580  03C7  2BCA               	goto	u295_25
  3581  03C8  0870               	movf	(___awdiv@divisor),w
  3582  03C9  0272               	subwf	(___awdiv@dividend),w
  3583  03CA                     u295_25:
  3584  03CA  1C03               	skipc
  3585  03CB  2BCD               	goto	u295_21
  3586  03CC  2BCE               	goto	u295_20
  3587  03CD                     u295_21:
  3588  03CD  2BD6               	goto	i1l2769
  3589  03CE                     u295_20:
  3590                           	line	28
  3591                           	
  3592  03CE                     i1l2765:	
  3593  03CE  0870               	movf	(___awdiv@divisor),w
  3594  03CF  02F2               	subwf	(___awdiv@dividend),f
  3595  03D0  0871               	movf	(___awdiv@divisor+1),w
  3596  03D1  1C03               	skipc
  3597  03D2  03F3               	decf	(___awdiv@dividend+1),f
  3598  03D3  02F3               	subwf	(___awdiv@dividend+1),f
  3599                           	line	29
  3600                           	
  3601  03D4                     i1l2767:	
  3602  03D4  1477               	bsf	(___awdiv@quotient)+(0/8),(0)&7
  3603  03D5  2BD6               	goto	i1l2769
  3604                           	line	30
  3605                           	
  3606  03D6                     i1l1026:	
  3607                           	line	31
  3608                           	
  3609  03D6                     i1l2769:	
  3610  03D6  3001               	movlw	01h
  3611                           	
  3612  03D7                     u296_25:
  3613  03D7  1003               	clrc
  3614  03D8  0CF1               	rrf	(___awdiv@divisor+1),f
  3615  03D9  0CF0               	rrf	(___awdiv@divisor),f
  3616  03DA  3EFF               	addlw	-1
  3617  03DB  1D03               	skipz
  3618  03DC  2BD7               	goto	u296_25
  3619                           	line	32
  3620                           	
  3621  03DD                     i1l2771:	
  3622  03DD  3001               	movlw	low(01h)
  3623  03DE  02F5               	subwf	(___awdiv@counter),f
  3624  03DF  1D03               	btfss	status,2
  3625  03E0  2BE2               	goto	u297_21
  3626  03E1  2BE3               	goto	u297_20
  3627  03E2                     u297_21:
  3628  03E2  2BBD               	goto	i1l2763
  3629  03E3                     u297_20:
  3630  03E3  2BE5               	goto	i1l2773
  3631                           	
  3632  03E4                     i1l1027:	
  3633  03E4  2BE5               	goto	i1l2773
  3634                           	line	33
  3635                           	
  3636  03E5                     i1l1021:	
  3637                           	line	34
  3638                           	
  3639  03E5                     i1l2773:	
  3640  03E5  0876               	movf	(___awdiv@sign),w
  3641  03E6  1D03               	skipz
  3642  03E7  2BE9               	goto	u298_20
  3643  03E8  2BEF               	goto	i1l2777
  3644  03E9                     u298_20:
  3645                           	line	35
  3646                           	
  3647  03E9                     i1l2775:	
  3648  03E9  09F7               	comf	(___awdiv@quotient),f
  3649  03EA  09F8               	comf	(___awdiv@quotient+1),f
  3650  03EB  0AF7               	incf	(___awdiv@quotient),f
  3651  03EC  1903               	skipnz
  3652  03ED  0AF8               	incf	(___awdiv@quotient+1),f
  3653  03EE  2BEF               	goto	i1l2777
  3654                           	
  3655  03EF                     i1l1028:	
  3656                           	line	36
  3657                           	
  3658  03EF                     i1l2777:	
  3659  03EF  0878               	movf	(___awdiv@quotient+1),w
  3660  03F0  01F1               	clrf	(?___awdiv+1)
  3661  03F1  07F1               	addwf	(?___awdiv+1)
  3662  03F2  0877               	movf	(___awdiv@quotient),w
  3663  03F3  01F0               	clrf	(?___awdiv)
  3664  03F4  07F0               	addwf	(?___awdiv)
  3665                           
  3666  03F5  2BF6               	goto	i1l1029
  3667                           	
  3668  03F6                     i1l2779:	
  3669                           	line	37
  3670                           	
  3671  03F6                     i1l1029:	
  3672  03F6  0008               	return
  3673                           	opt stack 0
  3674                           GLOBAL	__end_of___awdiv
  3675  03F7                     	__end_of___awdiv:
  3676 ;; =============== function ___awdiv ends ============
  3677                           
  3678                           	signat	___awdiv,8314
  3679                           psect	text215,local,class=CODE,delta=2
  3680                           global __ptext215
  3681  0000                     __ptext215:
  3682                           	global	btemp
  3683  007E                     	btemp set 07Eh
  3684                           
  3685                           	DABS	1,126,2	;btemp
  3686                           	global	wtemp0
  3687  007E                     	wtemp0 set btemp


HI-TECH Software PICC Macro Assembler V9.83 build 10920 
Symbol Table                                                                                   Sat May 04 20:00:10 2013

                         pc 0002         ??_Interrupt_Handler 0040                          _RD 04E0  
                        _WR 04E1                ___awdiv@sign 0076                          fsr 0004  
                       l400 0363                         l401 0364                         l402 036F  
                       l403 0375                         l404 0382                         l430 0468  
                       l431 047E                         l432 047A                         l440 005C  
                       l433 047E                         l441 0183                         l450 00D5  
                       l442 0071                         l451 008B                         l443 006D  
                       l372 0377                         l380 02E8                         l460 0177  
                       l452 00A3                         l444 0070                         l436 003E  
                       l381 02F3                         l373 02C4                         l461 0183  
                       l445 0106                         l453 00E8                         l437 0036  
                       l390 0329                         l382 02F9                         l374 02CF  
                       l446 00FE                         l454 00F9                         l438 003D  
                       l391 032F                         l383 02FA                         l375 02D5  
                       l439 0145                         l455 0105                         l447 0073  
                       l376 0382                         l392 0330                         l384 0305  
                       l456 0125                         l448 00F2                         l464 04D2  
                       l369 04B2                         l393 033B                         l385 030B  
                       l377 02D6                         l457 0123                         l449 0086  
                       l465 04D7                         l394 0341                         l386 030C  
                       l378 02E1                         l458 0144                         l466 04D8  
                       l395 0342                         l387 0317                         l379 02E7  
                       l459 0143                         l467 04D8                         l396 034D  
                       l388 031D                         l397 0353                         l389 031E  
                       l398 0354                         l399 035E                         _GIE 005F  
                       _RB4 0034                         _RB5 0035                         _RB6 0036  
                       _RB7 0037                         _ten 0025                         fsr0 0004  
                       _tmp 007D                         indf 0000                ___awmod@sign 0076  
         DisplayIndex@index 0049                        S2927 04C6                        l2501 04AC  
                      l2503 04AF                        l2511 02C4                        l2505 04B0  
                      l2601 034B                        l2521 02D3                        l2513 02C9  
                      l2507 04B1                        l2611 035B                        l2603 034F  
                      l2531 02E3                        l2523 02D6                        l2515 02CB  
                      l2621 0369                        l2613 035C                        l2605 0351  
                      l2541 02F1                        l2533 02E5                        l2525 02DB  
                      l2517 02CD                        l2509 02C3                        l2631 0376  
                      l2623 036B                        l2615 0360                        l2607 0354  
                      l2551 0301                        l2543 02F5                        l2535 02E8  
                      l2527 02DD                        l2519 02D1                        l2625 036D  
                      l2617 0361                        l2609 0359                        l2561 0311  
                      l2553 0303                        l2545 02F7                        l2537 02ED  
                      l2529 02DF                        l2633 0377                        l2721 0468  
                      l2627 0371                        l2619 0364                        l2571 031E  
                      l2563 0313                        l2555 0307                        l2547 02FA  
                      l2539 02EF                        l2731 047D                        l2723 0476  
                      l2715 0460                        l2629 0373                        l2581 032D  
                      l2573 0323                        l2565 0315                        l2557 0309  
                      l2549 02FF                        l2725 0478                        l2717 0465  
                      l2901 013F                        l2821 001F                        l2495 049A  
                      l2591 033D                        l2583 0330                        l2575 0325  
                      l2567 0319                        l2559 030C                        l2727 0479  
                      l2719 0467                        l2911 0179                        l2831 0048  
                      l2903 0145                        l2823 0028                        l2815 0014  
                      l2497 04A5                        l2593 033F                        l2585 0335  
                      l2577 0327                        l2569 031B                        l2729 047A  
                      l2905 014F                        l2841 005D                        l2833 0049  
                      l2825 0036                        l2817 0018                        l2913 04D0  
                      l2499 04A9                        l2595 0342                        l2587 0337  
                      l2579 032B                        l2907 0155                        l2851 007C  
                      l2843 0062                        l2835 0052                        l2819 001E  
                      l2827 003E                        l2915 04D2                        l2597 0347  
                      l2589 0339                        l2909 0160                        l2861 009F  
                      l2853 0082                        l2845 0067                        l2837 0057  
                      l2829 0042                        l2599 0349                        l2863 00A3  
                      l2871 00D5                        l2855 0086                        l2847 006D  
                      l2839 005B                        l2873 00E8                        l2865 00AF  
                      l2857 008B                        l2849 0073                        l2881 0106  
                      l2891 0123                        l2883 010C                        l2867 00BA  
                      l2859 009B                        l2875 00F2                        l2885 0116  
                      l2893 0125                        l2877 00F9                        l2869 00C5  
                      l2895 012C                        l2887 0117                        l2879 00FE  
                      l2897 0136                        l2889 011F                        l2899 0137  
                      _CMIE 0466                        _T0IE 005D                        u3100 0048  
                      u3101 0047                        u3110 0052                        u3111 0051  
                      u3200 0116                        u3120 0062                        u3201 0115  
                      u3121 0061                        u3210 0136                        u3130 0067  
                      u3211 0135                        u3131 0066                        u3220 014F  
                      u3140 007C                        u3221 014E                        u3141 007B  
                      u3150 0082                        u3151 0081                        u3160 009B  
                      u3080 001E                        u3161 009A                        u3081 001D  
                      u3170 00E7                        u3090 0028                        u3171 00E6  
                      u3091 0027                        u2700 0347                        u3180 0104  
                      u2701 0346                        u3237 011B                        u3181 0103  
                      u2710 0359                        u2630 02C9                        u3190 010C  
                      u2711 0358                        u2631 02C8                        u3247 013B  
                      u3191 010B                        u3175 00E3                        u2720 0369  
                      u2640 02DB                        u2721 0368                        u2641 02DA  
                      u3257 015B                        u2650 02ED                        u2651 02EC  
                      u3267 0171                        u2660 02FF                        u2661 02FE  
                      u3277 017D                        u2670 0311                        u2671 0310  
                      u2680 0323                        u2681 0322                        u2690 0335  
                      u2850 0465                        u2691 0334                        u2851 0464  
                      _PEIE 005E                        u2860 0476                        u2861 0475  
                      _RBIE 005B                        _RBIF 0058                        _OSCF 0473  
 __end_of_Interrupt_Handler 049A                        _VREN 04FF                        _WREN 04E2  
                      _Init 049A                        _main 04D0                        _mode 007C  
                      _unit 002F                        btemp 007E                        start 0010  
           __end_of_Display 0383        __end_of_GetNextIndex 047F                       ?_Init 0070  
                     ?_main 0070             __end_of___awdiv 03F7                       _EEADR 009B  
           __end_of___awmod 045D                       _CARRY 0018             ___awdiv@divisor 0070  
                     i1l410 01D4                       i1l411 01C4                       i1l420 024D  
                     i1l412 02BF                       i1l421 0258                       i1l413 01E0  
                     i1l422 0262                       i1l414 01EA                       i1l423 028D  
                     i1l415 0263                       i1l407 01D9                       i1l424 02A0  
                     i1l416 0259                       i1l408 01AD                       i1l425 02BF  
                     i1l417 023A                       i1l409 01B9                       i1l426 02BE  
                     i1l418 01F2                       i1l427 02BD                       i1l419 0235  
                     i1l470 048D                       i1l471 048B                       i1l472 048D  
           ___awdiv@counter 0075                       _PORTA 0005                       _PORTB 0006  
                     _TRISA 0085                       _TRISB 0086             InsertNewIndex@i 003E  
                     _nRBPU 040F                       _flick 0020                       _moved 0038  
                     pclath 000A                       status 0003                       wtemp0 007E  
              __end_of_Init 04B3                __end_of_main 04D9                      ??_Init 0044  
                    ??_main 004C        InsertNewIndex@t_unit 003C        __end_of_DisplayIndex 0184  
                    _EEDATA 009A                      _EECON1 009C                      _EECON2 009D  
          ___awdiv@dividend 0072                      i1l1020 039F                      i1l1021 03E5  
                    i1l1022 03B7                      i1l1023 03AB                      i1l1024 03BC  
                    i1l1025 03BD                      i1l1026 03D6                      i1l1027 03E4  
                    i1l1019 0391  __size_of_Interrupt_Handler 001B                      i1l1028 03EF  
                    i1l1029 03F6                      i1l1090 0425                      i1l1091 0419  
                    i1l1092 042A                      i1l1093 042B                      i1l1094 043C  
                    i1l1095 044A                      i1l1087 0405                      i1l1096 0455  
                    i1l1088 040F                      i1l1097 045C                      i1l1089 044B  
                    i1l2701 0294                      i1l2711 02B1                      i1l2703 029C  
                    i1l2801 0435                      i1l2713 02B9                      i1l2705 02A0  
                    i1l2641 01AD                      i1l2811 0455                      i1l2803 043C  
                    i1l2707 02A6                      i1l2651 01D3                      i1l2643 01B8  
                    i1l2741 0383                      i1l2813 045C                      i1l2805 0443  
                    i1l2709 02B0                      i1l2661 01EA                      i1l2653 01D4  
                    i1l2645 01B9                      i1l2637 0187                      i1l2733 047F  
                    i1l2751 039F                      i1l2743 0388                      i1l2807 044B  
                    i1l2671 0231                      i1l2663 01F0                      i1l2647 01C3  
                    i1l2655 01D9                      i1l2639 01AB                      i1l2735 0483  
                    i1l2761 03B7                      i1l2753 03A1                      i1l2745 0391  
                    i1l2809 044F                      i1l2673 0235                      i1l2665 01F2  
                    i1l2681 0259                      i1l2657 01E0                      i1l2649 01C4  
                    i1l2737 0487                      i1l2771 03DD                      i1l2763 03BD  
                    i1l2755 03A7                      i1l2747 0395                      i1l2691 0280  
                    i1l2667 0221                      i1l2675 023A                      i1l2683 0263  
                    i1l2659 01E5                      i1l2739 048B                      i1l2765 03CE  
                    i1l2757 03AB                      i1l2773 03E5                      i1l2749 039A  
                    i1l2781 03F7                      i1l2693 0285                      i1l2685 026B  
                    i1l2677 024D                      i1l2669 022F                      i1l2775 03E9  
                    i1l2767 03D4                      i1l2759 03B2                      i1l2791 0415  
                    i1l2783 03FC                      i1l2695 0288                      i1l2687 0272  
                    i1l2679 0254                      u300_20 0409                      i1l2777 03EF  
                    i1l2769 03D6                      i1l2793 0419                      u300_21 0408  
                    i1l2785 0405                      i1l2697 028D                      i1l2689 0279  
                    i1l2779 03F6                      i1l2795 0420                      i1l2787 0409  
                    i1l2699 0293                      i1l2797 0425                      i1l2789 040F  
                    i1l2799 042B                      u301_20 0415                      u301_21 0414  
                    u302_25 041A                      u303_20 0429                      u303_21 0428  
                    u304_20 0435                      u304_21 0434                      u304_25 0431  
                    u305_25 043D                      u306_20 0449                      u306_21 0448  
                    u307_20 044F                      u280_20 0254                      u280_21 0253  
                    u328_27 0298                      u281_20 0285                      u273_20 01B7  
                    u281_21 0284                      u273_21 01B6                      u329_27 02B5  
                    u290_20 0395                      u282_20 0293                      u274_20 01C2  
                    u290_21 0394                      u282_21 0292                      u274_21 01C1  
                    u291_20 03A7                      u283_20 02A6                      u275_20 01DF  
                    u291_21 03A6                      u283_21 02A5                      u275_21 01DE  
                    u284_20 02B0                      u276_20 01E5                      u284_21 02AF  
                    u276_21 01E4                      u292_25 03AC                      u293_20 03BB  
                    u277_20 01F0                      u293_21 03BA                      u277_21 01EF  
                    u278_20 022F                      u278_21 022E                      u294_25 03BE  
                    u295_20 03CE                      u279_20 024C                      u287_20 0483  
                    u295_21 03CD                      u279_21 024B                      u287_21 0482  
                    u295_25 03CA                      u279_25 0248                      u288_20 0487  
                    u288_21 0486                      u296_25 03D7                      u297_20 03E3  
                    u289_20 0388                      u297_21 03E2                      u289_21 0387  
                    u298_20 03E9                      u299_20 03FC                      u299_21 03FB  
                 ??_Display 0045                   ??___awdiv 0074                   ??___awmod 0074  
          ___awdiv@quotient 0077             ___awmod@divisor 0070             ___awmod@counter 0075  
                    clrloop 04DA                      saved_w 007E       __size_of_GetNextIndex 0022  
            __pcstackCOMMON 0070                __pidataBANK0 04E1                _GetNextIndex 045D  
   __size_of_InsertNewIndex 013C                  __pbssBANK0 0020                  __pmaintext 04D0  
                __pintentry 0004       __size_of_DisplayIndex 0173                     _T1OSCEN 0083  
                   _Display 02C0           InsertNewIndex@num 003B                _DisplayIndex 0011  
                   ___awdiv 0383                     ___awmod 03F7                     _curTick 0036  
          ___awmod@dividend 0072                     _timeout 002A                     _visible 004C  
      end_of_initialization 04C4              _InsertNewIndex 0184                _curViewIndex 0037  
       start_initialization 04B3      __end_of_InsertNewIndex 02C0         InsertNewIndex@i_215 003F  
       InsertNewIndex@t_ten 003D                 __pdataBANK0 004C                 __pbssCOMMON 007C  
           ?_InsertNewIndex 0070               __pcstackBANK0 003B                    ?_Display 0044  
                  ?___awdiv 0070                   __ptext210 049A                   __ptext211 047F  
                 __ptext212 0184                   __ptext213 03F7                   __ptext214 0383  
                 __ptext215 0000                   __ptext207 0011                   __ptext208 045D  
                 __ptext209 02C0                    ?___awmod 0070                   __pswtext1 04C6  
         interrupt_function 0004                 _curNorIndex 0035             _curFlipFlopTick 0034  
          __size_of_Display 00C3            __size_of___awdiv 0074            __size_of___awmod 0066  
             ?_GetNextIndex 0070               __size_of_Init 0019               __size_of_main 0009  
                  clear_ram 04D9               DisplayIndex@i 004A               DisplayIndex@j 004B  
          ??_InsertNewIndex 0079              ??_GetNextIndex 0044                    intlevel1 0000  
               _numNorCount 0039               ?_DisplayIndex 0070           GetNextIndex@index 0046  
                Display@num 0045                  Display@pos 0044           _Interrupt_Handler 047F  
               _prioritized 003A          ?_Interrupt_Handler 0070              ??_DisplayIndex 0047  
