MPASM  5.43                  PWMC_MAIN107.ASM   3-28-2012  11:36:08         PAGE  1


LOC  OBJECT CODE     LINE SOURCE TEXT
  VALUE

                      00001 ;**********************************************************************
                      00002 ;                                                                     *
                      00003 ;    8 Channel PWM LED Chaser for PIC 16F628/A and 16F84A             *
                      00004 ;                                                                     *
                      00005 ;    Filename:                  pwmc_main107.asm                      *
                      00006 ;    Date:                      03/04/2009                            *
                      00007 ;    File Version:              1.0.7                                 *
                      00008 ;                                                                     *
                      00009 ;    Author:                    Pete Griffiths                        *
                      00010 ;    Company:                   http://picprojects.org.uk             *
                      00011 ;                                                                     * 
                      00012 ;    Written and assmbled under MPLAB Version 8.20                    *
                      00013 ;                                                                     *
                      00014 ;    Before assembling code set correct PIC processor in MPLAB        *
                      00015 ;    from menu option Configure - Select Device                       *
                      00016 ;                                                                     *
                      00017 ;    Now works with 16F84A, 16F627/628 16F627A/628A and 16F88         *
                      00018 ;                                                                     *
                      00019 ;    The devices with 1K program memory (16F84A, 16F627/627A          *
                      00020 ;    will need some Sequences in pwmc_SeqData.inc file removing       *
                      00021 ;    to fit the code in their limited memory.                         *
                      00022 ;                                                                     *
                      00023 ;                                                                     *
                      00024 ;**********************************************************************
                      00025 ;                                                                     *
                      00026 ;    Notes:                                                           *
                      00027 ;     1. PIC 16F628A datasheet can be downloaded from                 *
                      00028 ;        http://ww1.microchip.com/downloads/en/DeviceDoc/40044b.pdf   *
                      00029 ;                                                                     *
                      00030 ;     2. See also MPASM User Guide(UG) which can be downloaded from:  *
                      00031 ;        http://ww1.microchip.com/downloads/en/DeviceDoc/33014J.pdf   *
                      00032 ;        http://picprojects.org.uk/projects/ledchaser/                *
                      00033 ;                                                                     *
                      00034 ;     3. This code uses Pseudo-instructions listed in the MPASM User  *
                      00035 ;        guide, Part 4, Appendix A.5                                  *
                      00036 ;                                                                     *
                      00037 ;     4. For list of Radix types see MPASM UG Section 3.4, Table 3-3  *
                      00038 ;                                                                     *
                      00039 ;**********************************************************************
                      00040 
                      00041         ifdef __16F88
                      00042 
                      00043         #include <p16f88.inc>
                      00044 
                      00045                 ;Program Configuration Register 1
                      00046                 __CONFIG    _CONFIG1, _CP_OFF & _CCP1_RB0 & _DEBUG_OFF & _WRT_PROTECT_OFF & _CPD_OFF & _
                            LVP_OFF & _BODEN_ON & _MCLR_ON & _PWRTE_ON & _WDT_OFF & _INTRC_IO
                      00047 
                      00048                 ;Program Configuration Register 2
                      00049                 __CONFIG    _CONFIG2, _IESO_OFF & _FCMEN_OFF
                      00050 
                      00051         #define T0IF    TMR0IF
                      00052         #define T0IE    TMR0IE
MPASM  5.43                  PWMC_MAIN107.ASM   3-28-2012  11:36:08         PAGE  2


LOC  OBJECT CODE     LINE SOURCE TEXT
  VALUE

                      00053 
                      00054         endif
                      00055 
                      00056               ifdef __16F628A
                      00057 
                      00058                #include <p16f628A.inc>      ; Standard include file
                      00001         LIST
                      00002 
                      00003 ;==========================================================================
                      00004 ;  MPASM PIC16F628A processor include
                      00005 ; 
                      00006 ;  (c) Copyright 1999-2011 Microchip Technology, All rights reserved
                      00007 ;==========================================================================
                      00008 
                      00383         LIST
                      00059                                             ; defines processor specific variable definitions
                      00060                                             ; See MPASM UG Section 4.41
                      00061 
                      00062               ;------------------------------------------------------------------------------------
                      00063               ; '__CONFIG' directive is used to embed configuration data within .asm file.
                      00064               ; The lables following the directive are located in the respective .inc file.
                      00065               ; See respective data sheet for additional information on configuration word.
                      00066               ; and also see MPASM UG Section 4.12
                      00067 
2007   3F74           00068                __CONFIG   _CP_OFF & _WDT_ON & _PWRTE_ON & _INTRC_OSC_NOCLKOUT & _LVP_OFF 
                      00069 
                      00070               endif
                      00071 
                      00072               ifdef __16F628
                      00073 
                      00074                #include <p16f628.inc>
                      00075                __CONFIG   _CP_OFF & _WDT_ON & _PWRTE_ON & _INTRC_OSC_NOCLKOUT & _LVP_OFF 
                      00076 
                      00077               endif
                      00078 
                      00079               ifdef __16F84A
                      00080                
                      00081         ; **** 16F84A only has 1K of program memory - the default pwm_SeqData.inc file ****
                      00082         ; **** will not fit into the available memory, you must remove some of the     ****
                      00083         ; **** the sequence data from the file before assembling the code              ****
                      00084                #include <p16f84a.inc>
                      00085                 __CONFIG   _CP_OFF & _WDT_ON & _PWRTE_ON & _HS_OSC
                      00086               ; Code protect off
                      00087               ; Watch Dog timer off
                      00088               ; Power-up timer delay on
                      00089               ;   change to _RC_OSC for resistor/capacitor 
                      00090               ;   change to _XT_OSC for crystal/resonator <3.5Mhz
                      00091               ;   change to _HS_OSC for high speed crystal/resonator >3.5Mhz
                      00092 
                      00093               endif
                      00094 
                      00095               ;------------------------------------------------------------------------------------
                      00096               ; Suppress specific warning messages
MPASM  5.43                  PWMC_MAIN107.ASM   3-28-2012  11:36:08         PAGE  3


LOC  OBJECT CODE     LINE SOURCE TEXT
  VALUE

                      00097               ; see MPASM UG Section 4.29 for errorlevel directive       
                      00098               ; see MPASM UG Section 8.4 for assembler message descriptions
                      00099               ;
                      00100 
                      00101 
                      00102               errorlevel -302     ; suppress banksel warning messages during assembly
                      00103 
                      00104 
                      00105               ;------------------------------------------------------------------------------------
                      00106               ; define variables in General Purpose Register (GPR) memory
                      00107               ; See MPASM UG Section 4.8
                      00108               ; note: 16F84A GPR start at 0x0C but most other mid-range PICs start at 0x20
                      00109               ; We use 0x20 here for compatibilty with newer PICs
                      00110 
                      00111               cblock 0x20
  00000020            00112                 firstGPR:0                ; mark start of GPR memory used
  00000020            00113                 state                     ; used by function state selector
  00000021            00114                 copyPORTB                 ; working variable, holds copy of PORTB
  00000022            00115                 vc0,vc1,vc2,vc3,vc4       ; vertical counter bits 
  00000027            00116                 hiReload                  ; vertical counter reload hi 
  00000028            00117                 loReload                  ; vertical counter reload lo
  00000029            00118                 pwm                       ; pwm counter
  0000002A            00119                 holdTime                  ; sequence line hold time
  0000002B            00120                 repeatCount               ; repeat seqeunce count
  0000002C            00121                 RandMask                  ; mask to AND random number with
  0000002D            00122                 seqIdxLo                  ; Lo byte address index pointer to start of selected sequence 
                             
  0000002E            00123                 seqIdxHi                  ; Hi byte address index pointer to start of selected sequence
  0000002F            00124                 seqTotal                  ; Total number of sequences in data
  00000030            00125                 seqMatch                  ; working variable
  00000031            00126                 seqCount                  ; working variable
  00000032            00127                 forward                   ; working regsiter for mirroring data
  00000033            00128                 reverse                   ; working regsiter for mirroring data
  00000034            00129                 reloadTemp                ; temporary holding variable for loReload
  00000035            00130                 tick                      ; timer0 ticks 
  00000036            00131                 swTimer                   ; switch hold down timer
  00000037            00132                 flags                     ; function flags register
  00000038            00133           mode          ; mode flags register
  00000039            00134                 indexLo                   ; Lo byte sequence line data address pointer
  0000003A            00135                 indexHi                   ; Hi byte sequence line data address pointer
  0000003B            00136                 save_W                    ; save W during interupt
  0000003C            00137                 save_Status               ; save STATUS during interupt
  0000003D            00138                 save_PCLATH               ; save PCLATH
  0000003E            00139           saveModeTimerL        ; holdoff timer for saving opmode to EEPROM high
  0000003F            00140           saveModeTimerH        ; holdoff timer for saving opmode to EEPROM low
  00000040            00141           eesave_W              ; temp register used in EEPROM routings
  00000041            00142                 LFSRH                     ; Random number shift regsiter high byte
  00000042            00143                 LFSRL:0                   ; Random number shift register low byte
  00000042            00144                 lastGPR                   ; mark last GPR register used 
                      00145                                           ; (required by GPR initialisation code)
                      00146 
                      00147               endc
                      00148 
MPASM  5.43                  PWMC_MAIN107.ASM   3-28-2012  11:36:08         PAGE  4


LOC  OBJECT CODE     LINE SOURCE TEXT
  VALUE

                      00149 ;-------------------------------------------------------------------------------------------------------
                            -------------
                      00150 ; EEPROM data
                      00151 ;       ; program parameters
                      00152         org 0x2100
2100   0000           00153         de .0
2101   0001           00154         de .1
2102   0000           00155         de .0
                      00156 
                      00157         ; embed firmware release info
2103   0020 0050 0057 00158         de " PWM LED Chaser "
       004D 0020 004C 
       0045 0044 0020 
       0043 0068 0061 
       0073 0065 0072 
       0020 
2113   0020 0056 0031 00159         de " V1.0.7 "
       002E 0030 002E 
       0037 0020 
211B   0020 0030 0033 00160         de " 03/04/2009 "
       002F 0030 0034 
       002F 0032 0030 
       0030 0039 0020 
2127   0020 0070 0069 00161         de " picprojects.org.uk "
       0063 0070 0072 
       006F 006A 0065 
       0063 0074 0073 
       002E 006F 0072 
       0067 002E 0075 
       006B 0020 
                      00162 ;-------------------------------------------------------------------------------------------------------
                            -------------
                      00163 
                      00164 ; Define bank select pseudo instructions to make code more readable
                      00165 #define   bank0     bcf       STATUS,RP0          ; Sel Bank 0
                      00166 #define   bank1     bsf       STATUS,RP0          ; Sel Bank 1
                      00167 
                      00168 ;-------------------------------------------------------------------------------------------------------
                            -------------
                      00169 ;
                      00170 ; See MPASM UG Secdtion 4.27 for definition of equ directive
                      00171 
  00000004            00172 switch        equ 4         ; Port bit switch connected to
                      00173 
  00000004            00174 cSAVETIME EQU     d'4'  ; holdoff timer constant for saving EEPROM data
  0000009D            00175 cTIMER    EQU   d'157'
  00000032            00176 cTICKS    EQU   d'50'
                      00177 ; 4Mhz oscillator clock, gives TMR0 clock = 1Mhz.
                      00178 ; Write to timer0 inhibits clock for 2 clock cycles
                      00179 ; TMR0 prescaler of 1:2 gives
                      00180 ; 1Mhz / ((256-157+2) x 2) = 5Khz = 0.2mS
                      00181 ; 50 x 0.2mS = 10mS
                      00182 ; So the sequence hold time will be 10mS x holdTime, giving a range of
MPASM  5.43                  PWMC_MAIN107.ASM   3-28-2012  11:36:08         PAGE  5


LOC  OBJECT CODE     LINE SOURCE TEXT
  VALUE

                      00183 ; 1 = 10mS thru 254 = 2.54S
                      00184 ; remember that a holdtime value of 255 indicates the end of the sequence so DON'T USE IT
                      00185 
                      00186 ; define flag bits
  00000000            00187 fHoldTimeout  EQU           0             ; flag set by ISR, cleared by Table Lookup function
  00000001            00188 fSwitch       EQU           1             ; flag 
  00000002            00189 fsetupRun     EQU           2             ; 0=run mode / 1=setup mode
  00000003            00190 fTick         EQU           3             ; timer tick flag
  00000004            00191 fSaveMode       EQU     4       ; set indicates opmode needs writing to EEPROM, clear indicates no data 
                            to write
                      00192 ;               5
  00000006            00193 fMirrorData   EQU           6             ; flag set, Table read reverses bits in data word [** This fla
                            g must be Bit 6 **]
  00000007            00194 fMirrorNext   EQU           7             ; flag tells code current sequence should be mirrored next tim
                            e
                      00195 
                      00196 #define   canMirror 1<<fMirrorData        ; Don't change the position of this bit, sequence data expects
                             it here
                      00197 
                      00198 ; define mode bits
  00000000            00199 modeSeq EQU     0
  00000001            00200 modeRan EQU     1
  00000002            00201 modeMan EQU     2
  00000003            00202 modeSleep       EQU     3
                      00203 
                      00204 ;-------------------------------------------------------------------------------------------------------
                            -------------
                      00205 ; Program code starts here
                      00206 ;
                      00207 ; See MPASM UG Section 1.7.1, and Example 1-1
                      00208 ;
                      00209 ; Labels      Mnemonics     Operands                     Comments
                      00210 ;             Directives
                      00211 ;             Macros
                      00212 ;
                      00213 RESET_VECTOR  org           0x000                       ; see MPASM UG Section 4.50 
0000   2???           00214               goto          START                       ; START label is in pwmc_start.inc
                      00215 
                      00216 INTERRUPT_V   org           0x004                       ; Interrupt handler code must follow this origin
                             statement
                      00217               #include pwmc_inth.inc                    ; include Interrupt Handler code block
                      00001 ; PWM LED Chaser Interrupt Handler
                      00002 ; rev 1.0.0
0004   00BB           00003               movwf         save_W        ; Preserve W, STATUS and PCLATH
0005   0E03           00004               swapf         STATUS,w
0006   00BC           00005               movwf         save_Status
0007   080A           00006               movfw         PCLATH
0008   00BD           00007               movwf         save_PCLATH
0009   018A           00008         clrf    PCLATH
000A   1283           00009               bank0
                      00010 
000B   0064           00011         clrwdt          ;clear watchdog timer
000C   309D           00012               movlw         cTIMER        ;load W with timer constant
MPASM  5.43                  PWMC_MAIN107.ASM   3-28-2012  11:36:08         PAGE  6


LOC  OBJECT CODE     LINE SOURCE TEXT
  VALUE

000D   0781           00013               addwf         TMR0,F        ;write to Timer 0
000E   110B           00014               bcf           INTCON,T0IF   ;and clear TimerO int flag
                      00015 
000F   2???           00016               call          _pwm          ; drive LEDs
                      00017               
0010   0BB5           00018               decfsz        tick,F        ;decrement ticks
0011   2???           00019               goto          _exitINT      ;exit Interrupt handler if ticks not 0
0012   3032           00020               movlw         cTICKS        ;reload tick
0013   00B5           00021               movwf         tick          ;counter
                      00022               
0014   15B7           00023               bsf           flags, fTick        ; set tick timeout flag bit
                      00024               
0015   03AA           00025               decf          holdTime,F          ; decrement holdtime counter
0016   1903           00026               skpnz                             ; skip next if not reached zero
0017   1437           00027               bsf           flags, fHoldTimeout ; set hold timeout flag bit
                      00028 
                      00029         
0018   1E37           00030         btfss   flags, fSaveMode
0019   2???           00031         goto    _exitINT
                      00032         
001A   0BBE           00033         decfsz  saveModeTimerL,F
001B   2???           00034         goto    _exitINT
001C   0BBF           00035         decfsz  saveModeTimerH,F
001D   2???           00036         goto    _exitINT
001E   2???           00037         call    save.opmode
                      00038 
                      00039 
                      00040 
001F   083D           00041 _exitINT        movfw         save_PCLATH   ;Restore PCLATH
0020   008A           00042               movwf         PCLATH
0021   0E3C           00043               swapf         save_Status,W ;Restore STATUS and W
0022   0083           00044               movwf         STATUS        
0023   0EBB           00045               swapf         save_W,F
0024   0E3B           00046               swapf         save_W,W
0025   0009           00047               retfie                      ;exit from interupt handler
                      00218 
                      00219               #include pwmc_statef.inc                  ; include main state function code block (must r
                            eside in page 0)
                      00001 ; PWM LED Chaser Main state function code block
                      00002 ; Use with pwmc_main103.asm only
                      00003 
                      00004 
0026   2???           00005 _idleState    call          _runState     ; runs state code function
0027   1DB7           00006               btfss         flags, fTick  ; test for timer tick flags set
0028   2???           00007               goto          _idleState    ; idle if flag clear
0029   11B7           00008               bcf           flags, fTick  ; reset timer tick flag     
                      00009 
                      00010 
                      00011               ; if switch held down and count reaches .128, we set State variable to 6 (run/setup state)
                      00012               ; otherwise we wait until switch is released, if it was held down long enough
                      00013               ; to debounce the switch but not long enough to enter run/setup state we
                      00014               ; set the fSwitch flag on release and let current state function handle switch
                      00015               
MPASM  5.43                  PWMC_MAIN107.ASM   3-28-2012  11:36:08         PAGE  7


LOC  OBJECT CODE     LINE SOURCE TEXT
  VALUE

002A   1E05           00016               btfss         PORTA, switch ; test if Switch is down
002B   2???           00017               goto          _swDown       ; do switch down code if it was
                      00018 
002C   0A36           00019               incf          swTimer,W     ; test if swTimer == 255 by adding 1, result in W
002D   1903           00020               skpnz                       ; skip next if result not 0 ( 255 + 1 = 0)
002E   2???           00021               goto          _resetSwTimer ; else we've just returned from a long hold so don't do deboun
                            ce.
                      00022 
                      00023                                           ; value in W is swTimer + 1 from incf above
002F   3EFC           00024               addlw         -.4           ; add 251 to W
0030   1803           00025               skpnc                       ; skip next if if W + 251 < 256 ( carry left clear)
0031   14B7           00026               bsf           flags, fSwitch ; otherwise set fSwitch flag
                      00027 
0032   01B6           00028 _resetSwTimer clrf          swTimer       ; reset switch timer
0033   2???           00029               goto          _idleState    ; and run idle loop
                      00030 
                      00031 
0034                  00032 _swDown       
0034   0A36           00033               incf          swTimer,W     ; increment timer while switch down
0035   1903           00034               skpnz                       ; skip if timer increment doesn't rollover to 0
0036   2???           00035               goto          _idleState    ; else hold timer at 255 until switch released
0037   00B6           00036               movwf         swTimer       ; load current value into W
0038   3A80           00037               xorlw         .128          ; this test will set/clear Z flag in STATUS register
0039   3006           00038               movlw         .6            ; load W with state 6 (won't affect STATUS register)
003A   1903           00039               skpnz                       ; skip if the XORLW .128 wasn't zero.
003B   00A0           00040               movwf         state         ; else set state to do long switch
003C   2???           00041               goto          _idleState
                      00042 
                      00043 
                      00044 ; 
                      00045 
003D                  00046 _runState     ; run state selector code. Must reside in page 0 of program memory
003D   018A           00047               clrf          PCLATH        ; reset PCLATH (expects code in page 0)
003E   0820           00048               movfw         state         ; load state variable into W
003F   0782           00049               addwf         PCL,F         ; add W to current PCL which jumps to one of the
                      00050                                           ; goto's in the list below to select the state function.
0040   2???           00051               goto          _S00          ; 0  
0041   2???           00052               goto          _S01          ; 1  
0042   2???           00053               goto          _S02          ; 2
0043   2???           00054               goto          _S03          ; 3
0044   2???           00055               goto          _S04          ; 4
0045   2???           00056               goto          _S05          ; 5
0046   2???           00057               goto          _S06          ; 6
0047   2???           00058               goto          _S07          ; 7              
                      00059               
                      00060 ; Each state code function will either leave the state varaible unchanged or modify it before exiting
                      00061 ; to control the operation of the sequencer.  
                      00062 
                      00063 ; State 0
                      00064 ; 
0048   0AA0           00065 _S00          incf          state,F                     ; set State == 1
0049   0830           00066               movfw         seqMatch
004A   2???           00067               call          _countSeqIn                 ; find address of first sequence
MPASM  5.43                  PWMC_MAIN107.ASM   3-28-2012  11:36:08         PAGE  8


LOC  OBJECT CODE     LINE SOURCE TEXT
  VALUE

                      00068               
004B   1337           00069               bcf           flags, fMirrorData          ; clear mirror data flag
004C   13B7           00070               bcf           flags, fMirrorNext          ; clear mirror next flag
004D   2???           00071               call          _setIndex                   ; set sequence base address and repeat count
004E   18B8           00072         btfsc         mode,modeRan                ; test if we're in Random mode
004F   2???           00073               goto          _S00rndMir                  ; do random mirror
                      00074 
0050   1B2B           00075               btfsc         repeatCount, fMirrorData
0051   17B7           00076               bsf           flags, fMirrorNext
0052   2???           00077               call          _Lookup                     ; 
                      00078    
0053   0008           00079               return
                      00080 
0054   1F2B           00081 _S00rndMir    btfss         repeatCount, fMirrorData    ; is canMirror bit set for this sequence?
0055   0008           00082               return                                    ; if not we're done
0056   2???           00083               call          _randNum                    ; get random number (use carry flag on return)
0057   1C03           00084               skpc                                      ; skip if carry flag clear
0058   1737           00085               bsf           flags,fMirrorData           ; and set MirrorData flag if it is set
0059   2???           00086               call          _Lookup
005A   0008           00087               return
                      00088 
                      00089 
                      00090 ; State 1
005B                  00091 _S01
                      00092               ; if switch pressed skip to next sequence.  This happens in all auto/random and manual mod
                            es
005B   1CB7           00093               btfss         flags, fSwitch              ; test switch flag
005C   2???           00094               goto          _S01auto                    ; do _S01auto if switch up
005D   10B7           00095               bcf           flags, fSwitch              ; clear switch flag
005E   3003           00096               movlw         .3                          ; set State to 3
005F   00A0           00097               movwf          state
                      00098 
0060   3004           00099         movlw   cSAVETIME
0061   00BF           00100         movwf   saveModeTimerH
0062   01BE           00101         clrf    saveModeTimerL
0063   1637           00102         bsf     flags, fSaveMode
                      00103 
0064   0008           00104               return
                      00105 
0065   1C37           00106 _S01auto      btfss         flags, fHoldTimeout         ; test hold timeout flag
0066   0008           00107               return        
0067   082B           00108               movfw         repeatCount                 ; read repeat count into W reg
0068   391F           00109               andlw         b'00011111'                 ; mask off bits in repeatCount
0069   1D03           00110               skpz                                      ; skip next if repeatCount == 0
006A   2???           00111               goto          _Lookup                     ; else read next entry of current sequence
                      00112                                                         ; the 'goto _Lookup' means we'll use its return 
                            to get back to the call
006B   0AA0           00113               incf          state,F                     ; change to next state
006C   0008           00114               return
                      00115 
                      00116 ; State 2     
006D   0AA0           00117 _S02          incf          state,F
006E   1D38           00118               btfss         mode, modeMan               ; test and skip next if mode is manual
MPASM  5.43                  PWMC_MAIN107.ASM   3-28-2012  11:36:08         PAGE  9


LOC  OBJECT CODE     LINE SOURCE TEXT
  VALUE

006F   0008           00119               return
0070   2???           00120               call          _setIndex                   ; set sequence base address and repeat count
0071   2???           00121               call          _Lookup       
0072   3001           00122               movlw         .1                          ; Set State back to 1
0073   00A0           00123               movwf         state
0074   0008           00124               return        
                      00125 
                      00126 
                      00127 ; State 3
0075   0AA0           00128 _S03          incf          state,F
0076   18B8           00129               btfsc         mode, modeRan               ; don't check mirror state if Random mode on
0077   0008           00130               return
0078   1FB7           00131               btfss         flags, fMirrorNext          ; is 'canMirror' flag set for this sequence?
0079   0008           00132               return
007A   2???           00133               call          _setIndex                   ; reset sequence base addess and repeat count
007B   13B7           00134               bcf           flags,fMirrorNext           ; clear fMirrorNext'flag 
007C   1737           00135               bsf           flags,fMirrorData           ; set the MirrorData flag table data gets mirror
                            ed
007D   3001           00136               movlw         .1                          ; Set State back to 1
007E   00A0           00137               movwf         state
007F   0008           00138               return
                      00139 
                      00140 
                      00141 
                      00142 ; State 4
0080   01A0           00143 _S04          clrf          state                       ; Set next State to 0
0081   18B8           00144               btfsc         mode,modeRan                ; test if Random mode
0082   2???           00145         goto          _getRandSeq
0083   0AB0           00146               incf          seqMatch,F                  ; increment sequence number pointer
0084   0830           00147               movfw         seqMatch                    ; load seqMatch into W
0085   062F           00148               xorwf         seqTotal,W                  ; test to see if this is the highest sequence 
0086   1903           00149               skpnz                                     ; skip next if not
0087   01B0           00150               clrf          seqMatch                    ; else reset to select first available sequence
0088   0008           00151               return
                      00152 
0089   2???           00153 _getRandSeq   call          _randNum
008A   052C           00154               andwf         RandMask,W                  ; mask off unwanted bits, result in W
008B   00B0           00155               movwf         seqMatch                    ; save W to SeqMatch
008C   082F           00156               movf          seqTotal,W                  ; load W with SeqTotal
008D   0230           00157               subwf         seqMatch,W                  ; W = SeqMatch - SeqTotal
008E   1803           00158               skpnc                                     ; if SeqMatch < SeqTotal we're done
008F   2???           00159               goto          _getRandSeq                 ; else try another random number
                      00160                
0090   0008           00161               return
                      00162                  
                      00163 
                      00164 ; State 5
0091                  00165 _S05          ; setup mode state
                      00166               ; Remain in this state until the Switch handler code detects a long switch press
                      00167               ; and changes state for us.
0091   01A8           00168               clrf          loReload                    ; clear pwm reload counter low
0092   0838           00169         movfw   mode
0093   00A7           00170         movwf   hiReload              
MPASM  5.43                  PWMC_MAIN107.ASM   3-28-2012  11:36:08         PAGE 10


LOC  OBJECT CODE     LINE SOURCE TEXT
  VALUE

                      00171 
0094   1CB7           00172               btfss         flags, fSwitch              ; test if switch flag set
0095   0008           00173               return                                    ; do nothing if it is clear
                      00174 
0096   10B7           00175               bcf           flags, fSwitch              ; clear switch flag
                      00176               ; 76543210   3 = Sleep, 2 = Man, 1 = AutoRand, 0 = AutoSeq
                      00177                             
0097   1003           00178         clrc                               ; make sure carry flag is clear
0098   3001           00179         movlw   1<<modeSeq           ; load W with first mode bit set
                      00180         
                      00181         ; Mode 3  puts the PIC into a low power sleep mode, where it waits for the switch
                      00182         ; to be pressed for about 2-3 seconds when it will leave sleep mode and reset/restart.
                      00183         ; Not enabled in the web release of the code but if you swap the commented/uncommented
                      00184         ; btfss instructions around below it will enable it.
                      00185         ;
                      00186         ;btfss  mode, modeSleep       ; sleep mode not in webrelease
0099   1D38           00187         btfss   mode, modeMan        ; If this is the current mode then
                      00188                                            ; skip the rotate that follows                               
                                   
009A   0D38           00189         rlf     mode,W               ; shift bit to select next mode, result in W
009B   00B8           00190         movwf   mode                 ; put W back in mode register
                      00191 
                      00192                                                                                                         
                                   
009C   0008           00193               return
                      00194 
                      00195 
                      00196 ; State 6
                      00197 ; Long Switch test
009D                  00198 _S06
                      00199 
009D   3007           00200               movlw         .7                          ; preload W with state 7
009E   1D37           00201               btfss         flags, fsetupRun            ; skip if we're in run mode
009F   3005           00202               movlw         .5                          ; reload W with state 5
00A0   00A0           00203               movwf         state                       ; set state to either run or setup
00A1   10B7           00204               bcf           flags, fSwitch              ; clear switch flag
00A2   3004           00205               movlw         1<<fsetupRun                
00A3   06B7           00206               xorwf         flags,F                     ; toggle fsetupRun mode flag
                      00207 
00A4   30FF           00208               movlw         .255                        ; load Wreg with .255
00A5   00B6           00209               movwf         swTimer                     ; Wreg to swTimer var 
                      00210 
00A6   1DB8           00211         btfss   mode, modeSleep
00A7   0008           00212         return                                    ; return
                      00213 
                      00214 ; sleep mode, PIC enters sleep state and is woken by the watchdog timer when it 
                      00215 ; tests the switch input.  If switch has been held down for about 2 seconds the PIC
                      00216 ; will restart the chaser by jumping to the reset vector, otherwise it goes back to sleep
                      00217 ; This code is fully functional but not enabled in the web release version
                      00218 
00A8   128B           00219         bcf     INTCON, T0IE            ; disable Timer 0 interrupts
00A9   110B           00220         bcf     INTCON, T0IF            ; clear Timer 0 interrupt flag
00AA   138B           00221         bcf     INTCON, GIE             ; disable global interrupts
MPASM  5.43                  PWMC_MAIN107.ASM   3-28-2012  11:36:08         PAGE 11


LOC  OBJECT CODE     LINE SOURCE TEXT
  VALUE

                      00222 
00AB   0064           00223         clrwdt
00AC   0181           00224         clrf    TMR0
00AD   1683           00225         bank1
00AE   300F           00226         movlw   b'00001111'
00AF   0081           00227         movwf   OPTION_REG
00B0   1283           00228         bank0
00B1   0186           00229         clrf    PORTB           ; turn off all LEDs outputs
00B2   01B6           00230 _snooze clrf    swTimer
00B3   0063           00231 _sleep  sleep
00B4   0064           00232         clrwdt
00B5   1A05           00233         btfsc   PORTA, switch
00B6   2???           00234         goto    _snooze
00B7   0AB6           00235         incf    swTimer,F
00B8   0836           00236         movfw   swTimer
00B9   3A02           00237         xorlw   .2
00BA   1D03 2???      00238         bnz     _sleep
00BC   2???           00239         goto    START
                      00240         
                      00241 
                      00242               
                      00243 ; State 7
00BD                  00244 _S07          ; return from setup to run mode
00BD   01A8           00245               clrf          loReload                    ; clear pwm reload counters (looks better if we 
                            do)
00BE   01A7           00246               clrf          hiReload                    ; 
00BF   01A0           00247               clrf          state                       ; restart sequence by entering state 0
                      00248 
00C0   3004           00249         movlw   cSAVETIME
00C1   00BF           00250         movwf   saveModeTimerH
00C2   01BE           00251         clrf    saveModeTimerL
00C3   1637           00252         bsf     flags, fSaveMode
                      00253 
00C4   0008           00254               return        
                      00220               #include pwmc_start.inc                   ; include reset and initialisation code
                      00001 ; PWM LED Chaser Reset and initialisation code block
                      00002 ; Use with pwmc_main103.asm only
                      00003 
00C5   0064           00004 START   clrwdt
00C6   0186           00005               clrf          PORTB
                      00006 
                      00007 
                      00008               ifdef CMCON
                      00009          ifndef __16F88
00C7   3007           00010                 movlw        b'00000111'                 ; disable comparators by setting CM2:CM0 == 111
00C8   009F           00011                 movwf        CMCON                       ; See 16F628A datasheet section 10.0
                      00012                endif 
                      00013         endif
                      00014               
00C9   1683           00015               bank1                                     ; set to register bank 1
                      00016                                                         ; this is a pseudo instruction defined on earlie
                            r
                      00017         ifdef OSCCON
MPASM  5.43                  PWMC_MAIN107.ASM   3-28-2012  11:36:08         PAGE 12


LOC  OBJECT CODE     LINE SOURCE TEXT
  VALUE

                      00018         movlw   b'01100010'     ; set OSCCON for internal RC oscillator
                      00019         movwf   OSCCON  ; running at 4Mhz
                      00020               endif
                      00021 
                      00022         ifdef ANSEL     ; 16F88
                      00023          clrf   ANSEL   ; Set I/O ports for digital mode
                      00024         endif
                      00025 
00CA   3010           00026               movlw         1<<switch                   ; set PORTA as output except for switch input
00CB   0085           00027               movwf         TRISA
00CC   0186           00028               clrf          TRISB                       ; set PORTB as output
                      00029 
00CD   3000           00030               movlw         b'00000000'   ;setup option register
                      00031               ;               ||||||||---- PS0 - Timer 0: Prescalar 1:256
                      00032               ;               |||||||----- PS1
                      00033               ;               ||||||------ PS2
                      00034               ;               |||||------- PSA -  Assign prescaler to Timer0
                      00035               ;               ||||-------- TOSE - LtoH edge
                      00036               ;               |||--------- TOCS - Timer0 uses IntClk
                      00037               ;               ||---------- INTEDG - falling edge RB0
                      00038               ;               |----------- RBPU - pull-ups enabled
00CE   0081           00039               movwf         OPTION_REG
                      00040 
                      00041               
00CF   1283           00042               bank0                                     ; set to register bank 0
                      00043                                                         ; this is a pseudo instruction defined on earlie
                            r
                      00044 
00D0   0185           00045         clrf    PORTA   ; set all unused outputs on PORTA to 0
                      00046 
                      00047               ; Initialise all GPR memory used by variables to 0
                      00048               ; This code block is very important.  A number of functionns expect
                      00049               ; variables to be zet to zero on first use.  
00D1   3020           00050               movlw         firstGPR      
00D2   0084           00051               movwf         FSR
00D3   3042           00052 _clearGPR     movlw         lastGPR
00D4   0180           00053               clrf          INDF
00D5   0A84           00054               incf          FSR,F
00D6   0604           00055               xorwf         FSR,W
00D7   1D03           00056               skpz
00D8   2???           00057               goto          _clearGPR
                      00058               
00D9   309D           00059               movlw         cTIMER        ; load W with timer constant
00DA   0081           00060               movwf         TMR0          ; preset timer
00DB   3032           00061               movlw         cTICKS
00DC   00B5           00062               movwf         tick          ; preset ticks
                      00063 
                      00064               
                      00065               ; find the number of sequences in the sequence data
                      00066               ; since this data is user defined we don't know how many there are.
00DD   30FF           00067               movlw         .255
00DE   2???           00068               call          _countSeqIn   ; find total individual sequences in data
                      00069               
MPASM  5.43                  PWMC_MAIN107.ASM   3-28-2012  11:36:08         PAGE 13


LOC  OBJECT CODE     LINE SOURCE TEXT
  VALUE

                      00070               ; build a mask to AND the random number against so that the MSB of the mask
                      00071               ; is the same as the MSB of the highest sequence number. With all lower bits
                      00072               ; in the mask set, we can take 8 bit random number and mask off bits higher
                      00073               ; than the MSB of the highest sequence value which means random numbers are
                      00074               ; pre-conditioned to a similar range to the number of sequences.  
                      00075               ; Since the sequences are user defined we have to calculate the mask rather
                      00076               ; than using a predefined constant.
                      00077 
00DF   032F           00078 _buildMask    decf          seqTotal,W       ; 
00E0   00BB           00079               movwf         save_W           ; use save_W variable as temporary working var
00E1   01AC           00080               clrf          RandMask
00E2   3008           00081               movlw         .8              
00E3   0DBB           00082 _loopMask     rlf           save_W,F
00E4   08AC           00083               movf          RandMask,F
00E5   1D03           00084               skpz
00E6   1403           00085               setc
00E7   0DAC           00086               rlf           RandMask,F
00E8   3EFF           00087               addlw         -.1
00E9   1D03 2???      00088               bnz          _loopMask
                      00089               
00EB   01B0           00090               clrf          seqMatch      ; make sure this is clear before entering state code
                      00091 
00EC   301F           00092               movlw         .31           ; initialise PWM ramp variable
00ED   00A9           00093               movwf         pwm           ; cosmetic really, LEDs will flash on power-up
                      00094                                           ; unless we set this here.
                      00095               
                      00096               ; *************************************************************************              
                      00097               ; initialise mode control flags
                      00098               ; Code will start in auto-sequential mode 
                      00099               ; If you want code to startup in a different mode, change flags here
                      00100               ;
                      00101 
00EE   2???           00102         call    restore.opmode
00EF   3001           00103         movlw   .1
00F0   00A0           00104         movwf   state
                      00105    
                      00106               ; 
                      00107               ; *************************************************************************
                      00108 
00F1   110B           00109               bcf           INTCON, T0IF  ; clear TimerO int flag
00F2   168B           00110               bsf           INTCON, T0IE  ; enable TMR0 interrupt
00F3   178B           00111               bsf           INTCON, GIE   ; enable Global interrupts
                      00112 
00F4   2???           00113               goto          _idleState    ; start main state function code
                      00221               #include pwmc_functions.inc               ; include all program functions
                      00001 ; PWM LED Chaser 
                      00002 ; All functions used by PWM LED Chaser are contained in this include file
                      00003 ; rev 1.0.2
                      00004 
                      00005 ;-------------------------------------------------------------------------------------------------------
                            -------------
                      00006 ; PWM Function
                      00007 
MPASM  5.43                  PWMC_MAIN107.ASM   3-28-2012  11:36:08         PAGE 14


LOC  OBJECT CODE     LINE SOURCE TEXT
  VALUE

                      00008 
00F5   0822           00009 _pwm          movfw         vc0           ; AND all 5 bits of vertical counter
00F6   0523           00010               andwf         vc1,W
00F7   0524           00011               andwf         vc2,W
00F8   0525           00012               andwf         vc3,W
00F9   0526           00013               andwf         vc4,W
00FA   04A1           00014               iorwf         copyPORTB,F   ; then OR bits with copyPORTB working variable
00FB   0821           00015               movfw         copyPORTB     ; load in W
00FC   0086           00016               movwf         PORTB         ; and write to physical PORTB
                      00017                                           ; when 5 bits in vertical count reach 11111 
                      00018                                           ; corresponding Port bit is turned on and then
                      00019                                           ; remains on until counter is reset
                      00020               
                      00021 ; ---------------------------------------
                      00022 ; 2^5 bit x 8 vertical counter
                      00023 ; generates the pwm for the 8 channel LED output
                      00024 ; More info on how this works can be found here
                      00025 ;  http://everything2.com/e2node/vertical counter
                      00026 ;  http://www.dattalo.com/technical/software/pic/vertcnt.html
                      00027 
00FD   0825           00028 _vc32         movf          vc3,W
00FE   0524           00029               andwf         vc2,W
00FF   0523           00030               andwf         vc1,W
0100   0522           00031               andwf         vc0,W
0101   06A6           00032               xorwf         vc4,F
                      00033 
0102   0824           00034               movf          vc2,W
0103   0523           00035               andwf         vc1,W
0104   0522           00036               andwf         vc0,W
0105   06A5           00037               xorwf         vc3,F
                      00038 
0106   0823           00039               movf          vc1,W
0107   0522           00040               andwf         vc0,W
0108   06A4           00041               xorwf         vc2,F
                      00042 
0109   0822           00043               movf          vc0,W
010A   06A3           00044               xorwf         vc1,F
                      00045 
010B   09A2           00046               comf          vc0,F
                      00047 
                      00048 ; ---------------------------------------
                      00049 
010C   0BA9           00050               decfsz        pwm,F         ; decrement PWM counter
010D   0008           00051               return                      ; return if count != 0
                      00052 
                      00053               ; reset and reload PWM output / counter
010E   301F           00054               movlw         .31           ; reload PWM counter
010F   00A9           00055               movwf         pwm
                      00056               
0110   01A1           00057               clrf          copyPORTB     ; reset output port working variable
                      00058               ; vertical counter is 8 channels by 5 bits
                      00059               ; rvc1 rvc0  vc4-0  PWM ratio
                      00060               ;    0 0     00000  0/31   off
MPASM  5.43                  PWMC_MAIN107.ASM   3-28-2012  11:36:08         PAGE 15


LOC  OBJECT CODE     LINE SOURCE TEXT
  VALUE

                      00061               ;    0 1     00001  1/31   dim
                      00062               ;    1 0     00100  8/31   bright
                      00063               ;    1 1     11111  31/31  very bright
                      00064               ;
0111   0828           00065               movfw         loReload      ; reload the  vertical counter
0112   00A2           00066               movwf         vc0           
0113   0827           00067               movfw         hiReload
0114   00A5           00068               movwf         vc3
0115   0528           00069               andwf         loReload,W
0116   00A3           00070               movwf         vc1
0117   00A4           00071               movwf         vc2
0118   00A6           00072               movwf         vc4
0119   0008           00073               return
                      00074 
                      00075        
                      00076 ;-------------------------------------------------------------------------------------------------------
                            -------------
                      00077 ; function to reverse the bits in the data
                      00078 ; bits 7-0 -> 0-7
                      00079 ; Use inline code rather than loop for speed.
                      00080 
011A   00B2           00081 _mirrorData   movwf         forward       ; enter with data to reverse in W
011B   0DB2           00082               rlf           forward,f ;0
011C   0CB3           00083               rrf           reverse,f
011D   0DB2           00084               rlf           forward,f ;1
011E   0CB3           00085               rrf           reverse,f
011F   0DB2           00086               rlf           forward,f ;2
0120   0CB3           00087               rrf           reverse,f
0121   0DB2           00088               rlf           forward,f ;3
0122   0CB3           00089               rrf           reverse,f
0123   0DB2           00090               rlf           forward,f ;4
0124   0CB3           00091               rrf           reverse,f
0125   0DB2           00092               rlf           forward,f ;5
0126   0CB3           00093               rrf           reverse,f
0127   0DB2           00094               rlf           forward,f ;6
0128   0CB3           00095               rrf           reverse,f
0129   0DB2           00096               rlf           forward,f ;7
012A   0C33           00097               rrf           reverse,w     ;return with reversed data in W
012B   0008           00098               return
                      00099               
                      00100               
                      00101 ;-------------------------------------------------------------------------------------------------------
                            -------------
                      00102 ; LOOKUP function
                      00103 
012C   2???           00104 _Lookup       call          _incTableRd
012D   018A           00105         clrf    PCLATH
012E   00AA           00106               movwf         holdTime                    ; save holdTimer variable
012F   1037           00107               bcf           flags, fHoldTimeout         ; clear holdTimeout flag
0130   3E01           00108               addlw         .1                          ; add 1 to holdTime, if it was 255 result is 0 c
                            arry 1
0131   1903           00109               skpnz                                     ; skip next if result is not 0
0132   2???           00110               goto          _resetIndex                 ; otherwise we've reached end of data so reset p
MPASM  5.43                  PWMC_MAIN107.ASM   3-28-2012  11:36:08         PAGE 16


LOC  OBJECT CODE     LINE SOURCE TEXT
  VALUE

                            oints to start
                      00111               
0133   2???           00112               call          _incTableRd
0134   018A           00113         clrf    PCLATH
0135   1B37           00114               btfsc         flags, fMirrorData
0136   2???           00115               call          _mirrorData
0137   00B4           00116               movwf         reloadTemp
                      00117 
0138   2???           00118               call          _incTableRd
0139   018A           00119         clrf    PCLATH
013A   1B37           00120               btfsc         flags, fMirrorData
013B   2???           00121               call          _mirrorData
013C   00A7           00122         movwf         hiReload
013D   0834           00123               movfw         reloadTemp
013E   00A8           00124               movwf         loReload
013F   0008           00125               return
                      00126 ;-------------------------------------------
                      00127 ; reset index to start of sequence, read first entry (repeat count / mirror flag) and
                      00128 ; discard it so we set index pointer to first line entry of sequence
                      00129 ; Also set hold timeout flag so we come straight back into the lookup function on next state run
0140   2???           00130 _resetIndex   call          _setSeqBase                 ;
0141   2???           00131               call          _incTableRd                 ; read repeatcount but ignore it
0142   018A           00132         clrf    PCLATH
0143   03AB           00133               decf          repeatCount,F               ; instead decrement current repeatCount value
0144   1437           00134               bsf           flags, fHoldTimeout         ; set hold timeout flag so state function
                      00135                                                         ; doesn't wait after sequence restarts
0145   0008           00136               return                                    
                      00137 
                      00138 ;--------------------------------------------
                      00139 ; set index to start of sequence, read first entry (repeat count / mirror flag) and
                      00140 ; save it to repeatCount variable
                      00141 ;
0146   2???           00142 _setIndex     call          _setSeqBase   ; initialise index pointer
0147   2???           00143               call          _incTableRd   ; read first entry of sequence
0148   018A           00144         clrf    PCLATH
0149   00AB           00145               movwf         repeatCount   ; save into repeatcCount variable
                      00146               
014A   0008           00147               return
                      00148 
                      00149 ;--------------------------------------------
                      00150 ; _countSeqIn function dynamically locates base address of each sequence
                      00151 ; in the sequence data table.  
                      00152 ; We need to transfer the base address found by _countSeqIn funtion to 
                      00153 ; working base address used by Lookup function
                      00154 
014B   082E           00155 _setSeqBase   movfw         seqIdxHi
014C   00BA           00156               movwf         indexHi
014D   082D           00157               movfw         seqIdxLo
014E   00B9           00158               movwf         indexLo
014F   0008           00159               return
                      00160 
0150   083A           00161 _incTableRd   movfw         indexHi
0151   008A           00162               movwf         PCLATH
MPASM  5.43                  PWMC_MAIN107.ASM   3-28-2012  11:36:08         PAGE 17


LOC  OBJECT CODE     LINE SOURCE TEXT
  VALUE

0152   0839           00163               movfw         indexLo
0153   0AB9           00164               incf          indexLo,F
0154   1903           00165               skpnz
0155   0ABA           00166               incf          indexHi,F
0156   0082           00167               movwf         PCL
                      00168 
                      00169 
                      00170 ;-------------------------------------------------------
                      00171 ; Function searches through data table to either
                      00172 ; a) find number of individual sequences in data 
                      00173 ; b) set index to start address of specific sequence
                      00174 ;
                      00175 ; Since sequence data is user defined we don't know how many there are or where each one
                      00176 ; starts in program memory.  This function will find the total number of sequences or
                      00177 ; the base start address of a specific sequence
                      00178 ;
                      00179 ; To find total entries call with W == 255  ( assume there are no more than 254 sequences)
                      00180 ; To set index to a specific sequence start address, call with W == SeqNo (counting from 0)
                      00181 ; for example, if the number there are 5 sequences then they are numbered 0,1,2,3,4
                      00182 ; 
                      00183 ; There is no validity checking in this function so if it is asked to match a sequence number
                      00184 ; higher than the total sequences available it will return with the index address pointing
                      00185 ; past the end of valid data. (expect the application to crash )
                      00186 ; Do not call with W > total_seqences-1 unless you want to find the total number of sequences
                      00187 ; 
                      00188 
0157   00B0           00189 _countSeqIn   movwf         seqMatch                    ; save sequence match number
0158   2???           00190               call          _countRstIdx                ; reset index to point to sequence data start ad
                            dress
0159   08B0           00191               movf          seqMatch,F                  ; Test for 0. Are we looking for first sequence?
015A   1903           00192               skpnz                                     ; if not skip to search
015B   0008           00193               return                                    ; else return (index initialised to first entry)
015C   00AE           00194               movwf         seqIdxHi
015D   01B1           00195               clrf          seqCount
015E   2???           00196 _countSeqLp   call          _seqTableRd   ; read control field
015F   018A           00197         clrf    PCLATH
0160   3E01           00198               addlw         0x01          ; test for data == .255
0161   1903 2???      00199               bz            _foundEnd
0163   3003           00200               movlw         .3
0164   1903           00201               skpnz
0165   3002           00202 _readNext     movlw         .2
0166   07AD           00203               addwf         seqIdxLo,F
0167   1803           00204               skpnc
0168   0AAE           00205               incf          seqIdxHi,F
                      00206 
0169   2???           00207               call          _seqTableRd
016A   018A           00208         clrf    PCLATH
016B   3E01           00209               addlw         0x01
016C   1D03           00210               skpz          
016D   2???           00211               goto          _readNext
                      00212 
016E   0A31           00213               incf          seqCount,W
016F   00B1           00214               movwf         seqCount
MPASM  5.43                  PWMC_MAIN107.ASM   3-28-2012  11:36:08         PAGE 18


LOC  OBJECT CODE     LINE SOURCE TEXT
  VALUE

0170   0630           00215               xorwf         seqMatch,W
0171   1D03           00216               skpz
0172   2???           00217               goto          _countSeqLp
0173   0008           00218               return
                      00219               
0174   0831           00220 _foundEnd     movfw         seqCount
0175   00AF           00221               movwf         seqTotal
                      00222 
0176   30??           00223 _countRstIdx  movlw         LOW SeqBaseAddr             ; initialise index to table base
0177   00AD           00224               movwf         seqIdxLo
0178   30??           00225               movlw         HIGH SeqBaseAddr
0179   00AE           00226               movwf         seqIdxHi
017A   0008           00227               return
                      00228 
017B   082E           00229 _seqTableRd   movfw         seqIdxHi
017C   008A           00230               movwf         PCLATH
017D   082D           00231               movfw         seqIdxLo
017E   0AAD           00232               incf          seqIdxLo,F
017F   1903           00233               skpnz
0180   0AAE           00234               incf          seqIdxHi,F
0181   0082           00235               movwf         PCL
                      00236 
                      00237 ;-------------------------------------------------------------------------------------------------------
                            -------------
                      00238 ; Random number generator code
                      00239 ; Implementations of the Galois LFSR (Linear Feedback Shift Register)
                      00240 ; 16-bit random number generator (tested)
                      00241 ; The 0xA1 is part of a prime polynom value 0xA1A1 which generates a full LFSR
                      00242 ; Code credited to Mark Jeronimus of Digital Mosular
                      00243 ; http://www.piclist.com/techref/microchip/rand8bit.htm
                      00244 ;
                      00245 
0182   0841           00246 _randNum      movfw         LFSRH         ; test if LFSR is zero
0183   0442           00247               iorwf         LFSRL,W
0184   1903           00248               skpnz                       ; skip next if it isn't
0185   09C2           00249               comf          LFSRL,F       ; restart it if it was
0186   1003           00250               clrc
0187   0DC1           00251               rlf           LFSRH,F
0188   0DC2           00252               rlf           LFSRL,F
0189   1C03           00253               skpc
018A   2???           00254               goto          _randExit
018B   30A1           00255               movlw         0xA1
018C   06C1           00256               xorwf         LFSRH,F
018D   06C2           00257               xorwf         LFSRL,F    
018E   0842           00258 _randExit     movfw         LFSRL       
018F   0008           00259               return
                      00260 
                      00261 ;-------------------------------------------------------------------------------------------------------
                            -------------
                      00262 ; Save and Restore operating mode and active sequence to/from EEPROM
                      00263 ;
                      00264 ; Read two bytes from EEPROM
                      00265 ; EEPROM Addr 0x00 holds saved seqMatch == current selected sequence
MPASM  5.43                  PWMC_MAIN107.ASM   3-28-2012  11:36:08         PAGE 19


LOC  OBJECT CODE     LINE SOURCE TEXT
  VALUE

                      00266 ; EEPROM Addr 0x01 holds saved mode ==  current operating mode
                      00267 ; EEPROM Addr 0x02 holds saved flags ==  for mirror flag bit
                      00268 
0190                  00269 restore.opmode
0190   0103           00270         clrw            ;eeprom address 0
0191   2???           00271         call    eeprom.read
0192   022F           00272         subwf   seqTotal,W
0193   0840           00273         movfw   eesave_W
0194   1C03           00274         skpc
0195   0103           00275         clrw
0196   00B0           00276         movwf   seqMatch
0197   2???           00277         call    _countSeqIn
0198   2???           00278         call    _setIndex
                      00279 
0199   3001           00280         movlw   0x01    ; eeprom address 1
019A   2???           00281         call    eeprom.read
019B   3907           00282         andlw   (1<<modeSeq | 1<<modeRan | 1<<modeMan )
019C   00C0           00283         movwf   eesave_W
019D   00B8           00284         movwf   mode
                      00285 
019E   0103           00286         clrw
                      00287 
019F   0CC0           00288         rrf     eesave_W,F
01A0   1803           00289         skpnc   
01A1   3E01           00290         addlw   .1
                      00291 
01A2   0CC0           00292         rrf     eesave_W,F
01A3   1803           00293         skpnc   
01A4   3E01           00294         addlw   .1
                      00295 
01A5   0CC0           00296         rrf     eesave_W,F
01A6   1803           00297         skpnc   
01A7   3E01           00298         addlw   .1
                      00299 
01A8   3EFF           00300         addlw   -.1
01A9   1903           00301         skpnz
01AA   2???           00302         goto    restore.flags
01AB   3001           00303         movlw   1<<modeSeq
01AC   00B8           00304         movwf   mode
                      00305 
                      00306 
01AD   3002           00307 restore.flags   movlw   0x02
01AE   2???           00308         call    eeprom.read
01AF   39C0           00309         andlw   (1<<fMirrorData | 1<<fMirrorNext)
01B0   3801           00310         iorlw   (1<<fHoldTimeout)
01B1   00B7           00311         movwf   flags
01B2   0008           00312         return
                      00313 
                      00314 
                      00315 ; EEPROM Read Function
01B3                  00316 eeprom.read
01B3   1683 1303      00317         banksel EEADR
01B5   009B           00318         movwf   EEADR
MPASM  5.43                  PWMC_MAIN107.ASM   3-28-2012  11:36:08         PAGE 20


LOC  OBJECT CODE     LINE SOURCE TEXT
  VALUE

01B6   1683 1303      00319         banksel EECON1
                      00320         ifdef   EEPGD
                      00321         bcf     EECON1, EEPGD
                      00322         endif
01B8   141C           00323         bsf     EECON1,RD
                      00324 
01B9   1683 1303      00325         banksel EEDATA
01BB   081A           00326         movfw   EEDATA
01BC   1283 1303      00327         banksel PORTA
01BE   00C0           00328         movwf   eesave_W
01BF   0008           00329         return
                      00330         
                      00331         ;------------------------------------------
01C0   0103           00332 save.opmode     clrw
01C1   2???           00333         call    eeprom.set.addr
01C2   0830           00334         movfw   seqMatch
01C3   2???           00335         call    eeprom.write.data
                      00336 
01C4   3001           00337         movlw   0x01
01C5   2???           00338         call    eeprom.set.addr
01C6   0838           00339         movfw   mode
01C7   2???           00340         call    eeprom.write.data
                      00341 
01C8   3002           00342         movlw   0x02
01C9   2???           00343         call    eeprom.set.addr
01CA   0837           00344         movfw   flags
01CB   2???           00345         call    eeprom.write.data
                      00346 
01CC   1237           00347         bcf     flags, fSaveMode        ; clear flag
                      00348 
01CD   0008           00349         return
                      00350 
                      00351 ; EEPROM Write Functions
01CE                  00352 eeprom.set.addr
01CE   1683 1303      00353         banksel EEADR
01D0   009B           00354         movwf   EEADR
01D1   1283 1303      00355         banksel PORTA
01D3   0008           00356         return
                      00357 
01D4                  00358 eeprom.write.data
01D4   1683 1303      00359         banksel EEDATA
01D6   009A           00360         movwf   EEDATA
01D7   1683 1303      00361         banksel EECON1
                      00362         ifdef   EEPGD
                      00363         bcf     EECON1, EEPGD
                      00364         endif
01D9   151C           00365         bsf     EECON1,WREN
01DA   3055           00366         movlw   0x55
01DB   009D           00367         movwf   EECON2
01DC   30AA           00368         movlw   0xAA
01DD   009D           00369         movwf   EECON2
01DE   149C           00370         bsf     EECON1,WR
01DF   0064           00371         clrwdt
MPASM  5.43                  PWMC_MAIN107.ASM   3-28-2012  11:36:08         PAGE 21


LOC  OBJECT CODE     LINE SOURCE TEXT
  VALUE

01E0   189C           00372         btfsc   EECON1,WR
01E1   2???           00373         goto    $-2
01E2   1283 1303      00374         banksel PORTA
01E4   0008           00375         return
                      00376 
                      00377 ;---------------------------------------------------------
                      00222               #include pwmc_SeqMacro.inc                ; include MACRO definitions for sequence data 
                      00001 ; PWM LED Chaser
                      00002 ; MACRO definitions for creating Sequence Data tables
                      00003 ;
                      00004 ; *****************************************************************
                      00005 ; This code expects you to enter the sequence data correctly.
                      00006 ; If you miss fields, enter incorrect values or generally don't
                      00007 ; get the format correct, the code will crash or behave irraticaly.
                      00008 ; *****************************************************************
                      00009 ;
                      00010 
                      00011               radix decimal
                      00012               ; set number base to decimal so it's easier to work with
                      00013 
                      00014 
                      00015 ; -----------------------------------------------------------------
                      00016 ; Example:
                      00017 ;
                      00018 ;
                      00019 ;              control 0,2                 ; no mirror, repeat twice
                      00020 ;
                      00021 ;              hold 50                     ; hold for 50 x 10mS = 0.5S
                      00022 ;              sdat 0,0,0,0,0,0,0,0        ; all LEDs off
                      00023 ;              hold 50                     ; hold for 50 x 10mS = 0.5S
                      00024 ;              sdat 1,1,1,1,1,1,1,1        ; all LEDs dim brightness
                      00025 ;              hold 75                     ; hold for 75 x 10mS = 0.75S
                      00026 ;              sdat 2,2,2,2,2,2,2,2        ; all LEDs mid brightness
                      00027 ;              hold 75                     ; hold for 75 x 10mS = 0.75S
                      00028 ;              sdat 3,3,3,3,3,3,3,3        ; all LEDs full brightness
                      00029 ;
                      00030 ;              seqend                      ; mark end of this sequence
                      00031 
                      00032 
                      00033 ; Each sequence starts with the control parameter.
                      00034 ;
                      00035 ; This specifies the number of times to repeat the sequence and whether the 
                      00036 ; sequence is suitable for mirroring.
                      00037 ;
                      00038 ;   control  Can_Mirror, Repeat count
                      00039 ;            True  if Can_Mirror = 1
                      00040 ;            False if Can_Mirror = 0
                      00041 ;            Repeat_Count >=1, 31=< 
                      00042 ;
                      00043 ; Repeat count.
                      00044 ; Sequence will repeat this many times before moving to the next sequence
                      00045 ; 
                      00046 ; Mirroring
MPASM  5.43                  PWMC_MAIN107.ASM   3-28-2012  11:36:08         PAGE 22


LOC  OBJECT CODE     LINE SOURCE TEXT
  VALUE

                      00047 ; Asymetric patterns, for example a sequence that moves a dot from left to right are suitable for mirror
                            ing
                      00048 ; since the same data when mirrored creates a different pattern.  This effecitively gives two different 
                      00049 ; sequence patterns without requiring two sets of data.
                      00050 ; Symetrical patterns when mirrored will appear exactly the same, there is no reason to mirror them, but
                      00051 ; it doesn't care if you do.
                      00052 ;
                      00053 control       macro Mmirror, Mtimes
                      00054               if (1>Mtimes) || (Mtimes>31)
                      00055                error "Repeat count in sequence data is out of range. Must be between 1 and 31."    
                      00056               endif
                      00057               retlw  (1&&Mmirror)<<6 | (Mtimes & .31)
                      00058               endm
                      00059 
                      00060 ; Each line of seqence data is preceded by a hold time parameter
                      00061 ; This specifies how long to hold the pattern before moving to the next
                      00062 ; line of data in the sequence. 
                      00063 
                      00064               ; hold hold_value
                      00065               ;    1<= hold_value <= 254
                      00066               ; hold time = hold_value * 10mS
                      00067               ; e.g. hold 15 holds for 150mS
                      00068 
                      00069 hold  macro Mseqhold
                      00070               if (1>Mseqhold) || (Mseqhold>254)
                      00071                error "Hold value in sequence data is out of range. Must be between 1 and 254."    
                      00072               endif
                      00073               retlw  Mseqhold
                      00074               endm
                      00075 
                      00076 ; Sequence Data pattern. Each of the 8 LEDs can be set to one of 4 brightness levels
                      00077 ; 0 = off
                      00078 ; 1 = dim
                      00079 ; 2 = mid
                      00080 ; 3 = full
                      00081 ;
                      00082 ; The pattern is specified as 8 comma seperated fields representing LEDs 7-0
                      00083 ; LED  7  6  5  4  3  2  1  0
                      00084 ; sdat n, n, n, n, n, n, n, n
                      00085 ; e.g. sdat 0, 1, 2, 3, 3, 2, 1, 0
                      00086 
                      00087 
                      00088 sdat    macro Mb7,Mb6,Mb5,Mb4,Mb3,Mb2,Mb1,Mb0
                      00089               retlw  (1&&(Mb7&1))<<7 | (1&&(Mb6&1))<<6 | (1&&(Mb5&1))<<5 | (1&&(Mb4&1))<<4 | (1&&(Mb3&1)
                            )<<3 | (1&&(Mb2&1))<<2 | (1&&(Mb1&1))<<1 | (1&&(Mb0&1))<<0
                      00090               retlw  (1&&(Mb7&2))<<7 | (1&&(Mb6&2))<<6 | (1&&(Mb5&2))<<5 | (1&&(Mb4&2))<<4 | (1&&(Mb3&2)
                            )<<3 | (1&&(Mb2&2))<<2 | (1&&(Mb1&2))<<1 | (1&&(Mb0&2))<<0
                      00091              endm
                      00092 
                      00093 
                      00094 ; The end of a sequence is marked with the seqend macro
                      00095 ; This must always be present, if it's missing the code will crash.
                      00096 seqend  macro
MPASM  5.43                  PWMC_MAIN107.ASM   3-28-2012  11:36:08         PAGE 23


LOC  OBJECT CODE     LINE SOURCE TEXT
  VALUE

                      00097               retlw  .255
                      00098               endm
                      00099               
                      00100 ; Tip:
                      00101 ; If you put two 'seqend' at the end of a sequence it will treat it as the end of
                      00102 ; all sequences.  Any sequence data after it will be ignored by the program. This can
                      00103 ; be handy when testing new sequences. Put the new sequence at the top of the sequence
                      00104 ; data file and add two 'seqend', then it will only run that sequence.
                      00105 ; 
                      00106 
                      00107 
                      00223                                                         ; used for creating sequence data tables
                      00224 
                      00225 ; ------------------------------------------------------------------------------------------------------
                      00226 
                      00227 ; DO NOT CHANGE OR REMOVE this label
01E5                  00228 SeqBaseAddr   ; label marks base address for start of sequence data.  
                      00229 
                      00230               ; Include your sequence data file(s) here
                      00231               
                      00232         #include pwmc_SeqData.inc                 ; file containg sequence data 
                      00001 ; ----------------------------------
                      00002 ; See pwmc_SeqMacro.inc for information on the format of the sequence data
                      00003 ;
                      00004 ; ----------------------------------
                      00005 ; seq 01
                      00006               control 0,4
                          M               if (1>4)      || (4>31)
                          M                error "Repeat count in sequence data is out of range. Must be between 1 and 31."    
                          M               endif
01E5   3404               M               retlw  (1&&0)<<6       | (4      & .31)
                      00007               hold 8
                          M               if (1>8)        || (8>254)
                          M                error "Hold value in sequence data is out of range. Must be between 1 and 254."    
                          M               endif
01E6   3408               M               retlw  8
                      00008               sdat 3,0,0,0,0,0,0,0
01E7   3480               M               retlw  (1&&(3&1))<<7   | (1&&(0&1))<<6   | (1&&(0&1))<<5   | (1&&(0&1))<<4   | (1&&(0&1))<
                            <3   | (1&&(0&1))<<2   | (1&&(0&1))<<1   | (1&&(0&1))<<0
01E8   3480               M               retlw  (1&&(3&2))<<7   | (1&&(0&2))<<6   | (1&&(0&2))<<5   | (1&&(0&2))<<4   | (1&&(0&2))<
                            <3   | (1&&(0&2))<<2   | (1&&(0&2))<<1   | (1&&(0&2))<<0
                      00009               hold 8
                          M               if (1>8)        || (8>254)
                          M                error "Hold value in sequence data is out of range. Must be between 1 and 254."    
                          M               endif
01E9   3408               M               retlw  8
                      00010               sdat 2,3,0,0,0,0,0,0
01EA   3440               M               retlw  (1&&(2&1))<<7   | (1&&(3&1))<<6   | (1&&(0&1))<<5   | (1&&(0&1))<<4   | (1&&(0&1))<
                            <3   | (1&&(0&1))<<2   | (1&&(0&1))<<1   | (1&&(0&1))<<0
01EB   34C0               M               retlw  (1&&(2&2))<<7   | (1&&(3&2))<<6   | (1&&(0&2))<<5   | (1&&(0&2))<<4   | (1&&(0&2))<
                            <3   | (1&&(0&2))<<2   | (1&&(0&2))<<1   | (1&&(0&2))<<0
                      00011               hold 8
                          M               if (1>8)        || (8>254)
MPASM  5.43                  PWMC_MAIN107.ASM   3-28-2012  11:36:08         PAGE 24


LOC  OBJECT CODE     LINE SOURCE TEXT
  VALUE

                          M                error "Hold value in sequence data is out of range. Must be between 1 and 254."    
                          M               endif
01EC   3408               M               retlw  8
                      00012               sdat 1,2,3,0,0,0,0,0
01ED   34A0               M               retlw  (1&&(1&1))<<7   | (1&&(2&1))<<6   | (1&&(3&1))<<5   | (1&&(0&1))<<4   | (1&&(0&1))<
                            <3   | (1&&(0&1))<<2   | (1&&(0&1))<<1   | (1&&(0&1))<<0
01EE   3460               M               retlw  (1&&(1&2))<<7   | (1&&(2&2))<<6   | (1&&(3&2))<<5   | (1&&(0&2))<<4   | (1&&(0&2))<
                            <3   | (1&&(0&2))<<2   | (1&&(0&2))<<1   | (1&&(0&2))<<0
                      00013               hold 8
                          M               if (1>8)        || (8>254)
                          M                error "Hold value in sequence data is out of range. Must be between 1 and 254."    
                          M               endif
01EF   3408               M               retlw  8
                      00014               sdat 1,1,2,3,0,0,0,0
01F0   34D0               M               retlw  (1&&(1&1))<<7   | (1&&(1&1))<<6   | (1&&(2&1))<<5   | (1&&(3&1))<<4   | (1&&(0&1))<
                            <3   | (1&&(0&1))<<2   | (1&&(0&1))<<1   | (1&&(0&1))<<0
01F1   3430               M               retlw  (1&&(1&2))<<7   | (1&&(1&2))<<6   | (1&&(2&2))<<5   | (1&&(3&2))<<4   | (1&&(0&2))<
                            <3   | (1&&(0&2))<<2   | (1&&(0&2))<<1   | (1&&(0&2))<<0
                      00015               hold 8
                          M               if (1>8)        || (8>254)
                          M                error "Hold value in sequence data is out of range. Must be between 1 and 254."    
                          M               endif
01F2   3408               M               retlw  8
                      00016               sdat 0,1,1,2,3,0,0,0
01F3   3468               M               retlw  (1&&(0&1))<<7   | (1&&(1&1))<<6   | (1&&(1&1))<<5   | (1&&(2&1))<<4   | (1&&(3&1))<
                            <3   | (1&&(0&1))<<2   | (1&&(0&1))<<1   | (1&&(0&1))<<0
01F4   3418               M               retlw  (1&&(0&2))<<7   | (1&&(1&2))<<6   | (1&&(1&2))<<5   | (1&&(2&2))<<4   | (1&&(3&2))<
                            <3   | (1&&(0&2))<<2   | (1&&(0&2))<<1   | (1&&(0&2))<<0
                      00017               hold 8
                          M               if (1>8)        || (8>254)
                          M                error "Hold value in sequence data is out of range. Must be between 1 and 254."    
                          M               endif
01F5   3408               M               retlw  8
                      00018               sdat 0,0,1,1,2,3,0,0
01F6   3434               M               retlw  (1&&(0&1))<<7   | (1&&(0&1))<<6   | (1&&(1&1))<<5   | (1&&(1&1))<<4   | (1&&(2&1))<
                            <3   | (1&&(3&1))<<2   | (1&&(0&1))<<1   | (1&&(0&1))<<0
01F7   340C               M               retlw  (1&&(0&2))<<7   | (1&&(0&2))<<6   | (1&&(1&2))<<5   | (1&&(1&2))<<4   | (1&&(2&2))<
                            <3   | (1&&(3&2))<<2   | (1&&(0&2))<<1   | (1&&(0&2))<<0
                      00019               hold 8
                          M               if (1>8)        || (8>254)
                          M                error "Hold value in sequence data is out of range. Must be between 1 and 254."    
                          M               endif
01F8   3408               M               retlw  8
                      00020               sdat 0,0,0,1,1,2,3,0
01F9   341A               M               retlw  (1&&(0&1))<<7   | (1&&(0&1))<<6   | (1&&(0&1))<<5   | (1&&(1&1))<<4   | (1&&(1&1))<
                            <3   | (1&&(2&1))<<2   | (1&&(3&1))<<1   | (1&&(0&1))<<0
01FA   3406               M               retlw  (1&&(0&2))<<7   | (1&&(0&2))<<6   | (1&&(0&2))<<5   | (1&&(1&2))<<4   | (1&&(1&2))<
                            <3   | (1&&(2&2))<<2   | (1&&(3&2))<<1   | (1&&(0&2))<<0
                      00021               hold 8
                          M               if (1>8)        || (8>254)
                          M                error "Hold value in sequence data is out of range. Must be between 1 and 254."    
                          M               endif
01FB   3408               M               retlw  8
MPASM  5.43                  PWMC_MAIN107.ASM   3-28-2012  11:36:08         PAGE 25


LOC  OBJECT CODE     LINE SOURCE TEXT
  VALUE

                      00022               sdat 0,0,0,0,1,1,2,3
01FC   340D               M               retlw  (1&&(0&1))<<7   | (1&&(0&1))<<6   | (1&&(0&1))<<5   | (1&&(0&1))<<4   | (1&&(1&1))<
                            <3   | (1&&(1&1))<<2   | (1&&(2&1))<<1   | (1&&(3&1))<<0
01FD   3403               M               retlw  (1&&(0&2))<<7   | (1&&(0&2))<<6   | (1&&(0&2))<<5   | (1&&(0&2))<<4   | (1&&(1&2))<
                            <3   | (1&&(1&2))<<2   | (1&&(2&2))<<1   | (1&&(3&2))<<0
                      00023               hold 8
                          M               if (1>8)        || (8>254)
                          M                error "Hold value in sequence data is out of range. Must be between 1 and 254."    
                          M               endif
01FE   3408               M               retlw  8
                      00024               sdat 0,0,0,0,0,0,1,3
01FF   3403               M               retlw  (1&&(0&1))<<7   | (1&&(0&1))<<6   | (1&&(0&1))<<5   | (1&&(0&1))<<4   | (1&&(0&1))<
                            <3   | (1&&(0&1))<<2   | (1&&(1&1))<<1   | (1&&(3&1))<<0
0200   3401               M               retlw  (1&&(0&2))<<7   | (1&&(0&2))<<6   | (1&&(0&2))<<5   | (1&&(0&2))<<4   | (1&&(0&2))<
                            <3   | (1&&(0&2))<<2   | (1&&(1&2))<<1   | (1&&(3&2))<<0
                      00025         hold 8
                          M               if (1>8)        || (8>254)
                          M                error "Hold value in sequence data is out of range. Must be between 1 and 254."    
                          M               endif
0201   3408               M               retlw  8
                      00026               sdat 0,0,0,0,0,0,0,3
0202   3401               M               retlw  (1&&(0&1))<<7   | (1&&(0&1))<<6   | (1&&(0&1))<<5   | (1&&(0&1))<<4   | (1&&(0&1))<
                            <3   | (1&&(0&1))<<2   | (1&&(0&1))<<1   | (1&&(3&1))<<0
0203   3401               M               retlw  (1&&(0&2))<<7   | (1&&(0&2))<<6   | (1&&(0&2))<<5   | (1&&(0&2))<<4   | (1&&(0&2))<
                            <3   | (1&&(0&2))<<2   | (1&&(0&2))<<1   | (1&&(3&2))<<0
                      00027               hold 8
                          M               if (1>8)        || (8>254)
                          M                error "Hold value in sequence data is out of range. Must be between 1 and 254."    
                          M               endif
0204   3408               M               retlw  8
                      00028               sdat 0,0,0,0,0,0,3,2
0205   3402               M               retlw  (1&&(0&1))<<7   | (1&&(0&1))<<6   | (1&&(0&1))<<5   | (1&&(0&1))<<4   | (1&&(0&1))<
                            <3   | (1&&(0&1))<<2   | (1&&(3&1))<<1   | (1&&(2&1))<<0
0206   3403               M               retlw  (1&&(0&2))<<7   | (1&&(0&2))<<6   | (1&&(0&2))<<5   | (1&&(0&2))<<4   | (1&&(0&2))<
                            <3   | (1&&(0&2))<<2   | (1&&(3&2))<<1   | (1&&(2&2))<<0
                      00029               hold 8
                          M               if (1>8)        || (8>254)
                          M                error "Hold value in sequence data is out of range. Must be between 1 and 254."    
                          M               endif
0207   3408               M               retlw  8
                      00030               sdat 0,0,0,0,0,3,2,1
0208   3405               M               retlw  (1&&(0&1))<<7   | (1&&(0&1))<<6   | (1&&(0&1))<<5   | (1&&(0&1))<<4   | (1&&(0&1))<
                            <3   | (1&&(3&1))<<2   | (1&&(2&1))<<1   | (1&&(1&1))<<0
0209   3406               M               retlw  (1&&(0&2))<<7   | (1&&(0&2))<<6   | (1&&(0&2))<<5   | (1&&(0&2))<<4   | (1&&(0&2))<
                            <3   | (1&&(3&2))<<2   | (1&&(2&2))<<1   | (1&&(1&2))<<0
                      00031               hold 8
                          M               if (1>8)        || (8>254)
                          M                error "Hold value in sequence data is out of range. Must be between 1 and 254."    
                          M               endif
020A   3408               M               retlw  8
                      00032               sdat 0,0,0,0,3,2,1,1
020B   340B               M               retlw  (1&&(0&1))<<7   | (1&&(0&1))<<6   | (1&&(0&1))<<5   | (1&&(0&1))<<4   | (1&&(3&1))<
                            <3   | (1&&(2&1))<<2   | (1&&(1&1))<<1   | (1&&(1&1))<<0
MPASM  5.43                  PWMC_MAIN107.ASM   3-28-2012  11:36:08         PAGE 26


LOC  OBJECT CODE     LINE SOURCE TEXT
  VALUE

020C   340C               M               retlw  (1&&(0&2))<<7   | (1&&(0&2))<<6   | (1&&(0&2))<<5   | (1&&(0&2))<<4   | (1&&(3&2))<
                            <3   | (1&&(2&2))<<2   | (1&&(1&2))<<1   | (1&&(1&2))<<0
                      00033               hold 8
                          M               if (1>8)        || (8>254)
                          M                error "Hold value in sequence data is out of range. Must be between 1 and 254."    
                          M               endif
020D   3408               M               retlw  8
                      00034               sdat 0,0,0,3,2,1,1,0
020E   3416               M               retlw  (1&&(0&1))<<7   | (1&&(0&1))<<6   | (1&&(0&1))<<5   | (1&&(3&1))<<4   | (1&&(2&1))<
                            <3   | (1&&(1&1))<<2   | (1&&(1&1))<<1   | (1&&(0&1))<<0
020F   3418               M               retlw  (1&&(0&2))<<7   | (1&&(0&2))<<6   | (1&&(0&2))<<5   | (1&&(3&2))<<4   | (1&&(2&2))<
                            <3   | (1&&(1&2))<<2   | (1&&(1&2))<<1   | (1&&(0&2))<<0
                      00035               hold 8
                          M               if (1>8)        || (8>254)
                          M                error "Hold value in sequence data is out of range. Must be between 1 and 254."    
                          M               endif
0210   3408               M               retlw  8
                      00036               sdat 0,0,3,2,1,1,0,0
0211   342C               M               retlw  (1&&(0&1))<<7   | (1&&(0&1))<<6   | (1&&(3&1))<<5   | (1&&(2&1))<<4   | (1&&(1&1))<
                            <3   | (1&&(1&1))<<2   | (1&&(0&1))<<1   | (1&&(0&1))<<0
0212   3430               M               retlw  (1&&(0&2))<<7   | (1&&(0&2))<<6   | (1&&(3&2))<<5   | (1&&(2&2))<<4   | (1&&(1&2))<
                            <3   | (1&&(1&2))<<2   | (1&&(0&2))<<1   | (1&&(0&2))<<0
                      00037               hold 8
                          M               if (1>8)        || (8>254)
                          M                error "Hold value in sequence data is out of range. Must be between 1 and 254."    
                          M               endif
0213   3408               M               retlw  8
                      00038               sdat 0,3,2,1,1,0,0,0
0214   3458               M               retlw  (1&&(0&1))<<7   | (1&&(3&1))<<6   | (1&&(2&1))<<5   | (1&&(1&1))<<4   | (1&&(1&1))<
                            <3   | (1&&(0&1))<<2   | (1&&(0&1))<<1   | (1&&(0&1))<<0
0215   3460               M               retlw  (1&&(0&2))<<7   | (1&&(3&2))<<6   | (1&&(2&2))<<5   | (1&&(1&2))<<4   | (1&&(1&2))<
                            <3   | (1&&(0&2))<<2   | (1&&(0&2))<<1   | (1&&(0&2))<<0
                      00039               hold 8
                          M               if (1>8)        || (8>254)
                          M                error "Hold value in sequence data is out of range. Must be between 1 and 254."    
                          M               endif
0216   3408               M               retlw  8
                      00040               sdat 3,2,1,1,0,0,0,0
0217   34B0               M               retlw  (1&&(3&1))<<7   | (1&&(2&1))<<6   | (1&&(1&1))<<5   | (1&&(1&1))<<4   | (1&&(0&1))<
                            <3   | (1&&(0&1))<<2   | (1&&(0&1))<<1   | (1&&(0&1))<<0
0218   34C0               M               retlw  (1&&(3&2))<<7   | (1&&(2&2))<<6   | (1&&(1&2))<<5   | (1&&(1&2))<<4   | (1&&(0&2))<
                            <3   | (1&&(0&2))<<2   | (1&&(0&2))<<1   | (1&&(0&2))<<0
                      00041               hold 8
                          M               if (1>8)        || (8>254)
                          M                error "Hold value in sequence data is out of range. Must be between 1 and 254."    
                          M               endif
0219   3408               M               retlw  8
                      00042               sdat 3,1,0,0,0,0,0,0
021A   34C0               M               retlw  (1&&(3&1))<<7   | (1&&(1&1))<<6   | (1&&(0&1))<<5   | (1&&(0&1))<<4   | (1&&(0&1))<
                            <3   | (1&&(0&1))<<2   | (1&&(0&1))<<1   | (1&&(0&1))<<0
021B   3480               M               retlw  (1&&(3&2))<<7   | (1&&(1&2))<<6   | (1&&(0&2))<<5   | (1&&(0&2))<<4   | (1&&(0&2))<
                            <3   | (1&&(0&2))<<2   | (1&&(0&2))<<1   | (1&&(0&2))<<0
                      00043 
MPASM  5.43                  PWMC_MAIN107.ASM   3-28-2012  11:36:08         PAGE 27


LOC  OBJECT CODE     LINE SOURCE TEXT
  VALUE

                      00044               
                      00045               seqend
021C   34FF               M               retlw  .255
                      00046 
                      00047 ; ----------------------------------
                      00048 ; seq 02
                      00049 
                      00050               control 0,4
                          M               if (1>4)      || (4>31)
                          M                error "Repeat count in sequence data is out of range. Must be between 1 and 31."    
                          M               endif
021D   3404               M               retlw  (1&&0)<<6       | (4      & .31)
                      00051               hold 11
                          M               if (1>11)       || (11>254)
                          M                error "Hold value in sequence data is out of range. Must be between 1 and 254."    
                          M               endif
021E   340B               M               retlw  11
                      00052               sdat 3,0,0,0,0,0,0,0
021F   3480               M               retlw  (1&&(3&1))<<7   | (1&&(0&1))<<6   | (1&&(0&1))<<5   | (1&&(0&1))<<4   | (1&&(0&1))<
                            <3   | (1&&(0&1))<<2   | (1&&(0&1))<<1   | (1&&(0&1))<<0
0220   3480               M               retlw  (1&&(3&2))<<7   | (1&&(0&2))<<6   | (1&&(0&2))<<5   | (1&&(0&2))<<4   | (1&&(0&2))<
                            <3   | (1&&(0&2))<<2   | (1&&(0&2))<<1   | (1&&(0&2))<<0
                      00053               hold 11
                          M               if (1>11)       || (11>254)
                          M                error "Hold value in sequence data is out of range. Must be between 1 and 254."    
                          M               endif
0221   340B               M               retlw  11
                      00054               sdat 2,3,0,0,0,0,0,0
0222   3440               M               retlw  (1&&(2&1))<<7   | (1&&(3&1))<<6   | (1&&(0&1))<<5   | (1&&(0&1))<<4   | (1&&(0&1))<
                            <3   | (1&&(0&1))<<2   | (1&&(0&1))<<1   | (1&&(0&1))<<0
0223   34C0               M               retlw  (1&&(2&2))<<7   | (1&&(3&2))<<6   | (1&&(0&2))<<5   | (1&&(0&2))<<4   | (1&&(0&2))<
                            <3   | (1&&(0&2))<<2   | (1&&(0&2))<<1   | (1&&(0&2))<<0
                      00055               hold 11
                          M               if (1>11)       || (11>254)
                          M                error "Hold value in sequence data is out of range. Must be between 1 and 254."    
                          M               endif
0224   340B               M               retlw  11
                      00056               sdat 1,2,3,0,0,0,0,0
0225   34A0               M               retlw  (1&&(1&1))<<7   | (1&&(2&1))<<6   | (1&&(3&1))<<5   | (1&&(0&1))<<4   | (1&&(0&1))<
                            <3   | (1&&(0&1))<<2   | (1&&(0&1))<<1   | (1&&(0&1))<<0
0226   3460               M               retlw  (1&&(1&2))<<7   | (1&&(2&2))<<6   | (1&&(3&2))<<5   | (1&&(0&2))<<4   | (1&&(0&2))<
                            <3   | (1&&(0&2))<<2   | (1&&(0&2))<<1   | (1&&(0&2))<<0
                      00057               hold 11
                          M               if (1>11)       || (11>254)
                          M                error "Hold value in sequence data is out of range. Must be between 1 and 254."    
                          M               endif
0227   340B               M               retlw  11
                      00058               sdat 1,1,2,3,0,0,0,0
0228   34D0               M               retlw  (1&&(1&1))<<7   | (1&&(1&1))<<6   | (1&&(2&1))<<5   | (1&&(3&1))<<4   | (1&&(0&1))<
                            <3   | (1&&(0&1))<<2   | (1&&(0&1))<<1   | (1&&(0&1))<<0
0229   3430               M               retlw  (1&&(1&2))<<7   | (1&&(1&2))<<6   | (1&&(2&2))<<5   | (1&&(3&2))<<4   | (1&&(0&2))<
                            <3   | (1&&(0&2))<<2   | (1&&(0&2))<<1   | (1&&(0&2))<<0
                      00059               hold 11
MPASM  5.43                  PWMC_MAIN107.ASM   3-28-2012  11:36:08         PAGE 28


LOC  OBJECT CODE     LINE SOURCE TEXT
  VALUE

                          M               if (1>11)       || (11>254)
                          M                error "Hold value in sequence data is out of range. Must be between 1 and 254."    
                          M               endif
022A   340B               M               retlw  11
                      00060               sdat 0,1,1,2,3,0,0,0
022B   3468               M               retlw  (1&&(0&1))<<7   | (1&&(1&1))<<6   | (1&&(1&1))<<5   | (1&&(2&1))<<4   | (1&&(3&1))<
                            <3   | (1&&(0&1))<<2   | (1&&(0&1))<<1   | (1&&(0&1))<<0
022C   3418               M               retlw  (1&&(0&2))<<7   | (1&&(1&2))<<6   | (1&&(1&2))<<5   | (1&&(2&2))<<4   | (1&&(3&2))<
                            <3   | (1&&(0&2))<<2   | (1&&(0&2))<<1   | (1&&(0&2))<<0
                      00061               hold 11
                          M               if (1>11)       || (11>254)
                          M                error "Hold value in sequence data is out of range. Must be between 1 and 254."    
                          M               endif
022D   340B               M               retlw  11
                      00062               sdat 0,0,1,1,2,3,0,0
022E   3434               M               retlw  (1&&(0&1))<<7   | (1&&(0&1))<<6   | (1&&(1&1))<<5   | (1&&(1&1))<<4   | (1&&(2&1))<
                            <3   | (1&&(3&1))<<2   | (1&&(0&1))<<1   | (1&&(0&1))<<0
022F   340C               M               retlw  (1&&(0&2))<<7   | (1&&(0&2))<<6   | (1&&(1&2))<<5   | (1&&(1&2))<<4   | (1&&(2&2))<
                            <3   | (1&&(3&2))<<2   | (1&&(0&2))<<1   | (1&&(0&2))<<0
                      00063               hold 11
                          M               if (1>11)       || (11>254)
                          M                error "Hold value in sequence data is out of range. Must be between 1 and 254."    
                          M               endif
0230   340B               M               retlw  11
                      00064               sdat 0,0,0,1,1,2,3,0
0231   341A               M               retlw  (1&&(0&1))<<7   | (1&&(0&1))<<6   | (1&&(0&1))<<5   | (1&&(1&1))<<4   | (1&&(1&1))<
                            <3   | (1&&(2&1))<<2   | (1&&(3&1))<<1   | (1&&(0&1))<<0
0232   3406               M               retlw  (1&&(0&2))<<7   | (1&&(0&2))<<6   | (1&&(0&2))<<5   | (1&&(1&2))<<4   | (1&&(1&2))<
                            <3   | (1&&(2&2))<<2   | (1&&(3&2))<<1   | (1&&(0&2))<<0
                      00065               hold 11
                          M               if (1>11)       || (11>254)
                          M                error "Hold value in sequence data is out of range. Must be between 1 and 254."    
                          M               endif
0233   340B               M               retlw  11
                      00066               sdat 0,0,0,0,1,1,2,3
0234   340D               M               retlw  (1&&(0&1))<<7   | (1&&(0&1))<<6   | (1&&(0&1))<<5   | (1&&(0&1))<<4   | (1&&(1&1))<
                            <3   | (1&&(1&1))<<2   | (1&&(2&1))<<1   | (1&&(3&1))<<0
0235   3403               M               retlw  (1&&(0&2))<<7   | (1&&(0&2))<<6   | (1&&(0&2))<<5   | (1&&(0&2))<<4   | (1&&(1&2))<
                            <3   | (1&&(1&2))<<2   | (1&&(2&2))<<1   | (1&&(3&2))<<0
                      00067               hold 11
                          M               if (1>11)       || (11>254)
                          M                error "Hold value in sequence data is out of range. Must be between 1 and 254."    
                          M               endif
0236   340B               M               retlw  11
                      00068               sdat 0,0,0,0,0,0,1,3
0237   3403               M               retlw  (1&&(0&1))<<7   | (1&&(0&1))<<6   | (1&&(0&1))<<5   | (1&&(0&1))<<4   | (1&&(0&1))<
                            <3   | (1&&(0&1))<<2   | (1&&(1&1))<<1   | (1&&(3&1))<<0
0238   3401               M               retlw  (1&&(0&2))<<7   | (1&&(0&2))<<6   | (1&&(0&2))<<5   | (1&&(0&2))<<4   | (1&&(0&2))<
                            <3   | (1&&(0&2))<<2   | (1&&(1&2))<<1   | (1&&(3&2))<<0
                      00069         hold 11
                          M               if (1>11)       || (11>254)
                          M                error "Hold value in sequence data is out of range. Must be between 1 and 254."    
                          M               endif
MPASM  5.43                  PWMC_MAIN107.ASM   3-28-2012  11:36:08         PAGE 29


LOC  OBJECT CODE     LINE SOURCE TEXT
  VALUE

0239   340B               M               retlw  11
                      00070               sdat 0,0,0,0,0,0,0,3
023A   3401               M               retlw  (1&&(0&1))<<7   | (1&&(0&1))<<6   | (1&&(0&1))<<5   | (1&&(0&1))<<4   | (1&&(0&1))<
                            <3   | (1&&(0&1))<<2   | (1&&(0&1))<<1   | (1&&(3&1))<<0
023B   3401               M               retlw  (1&&(0&2))<<7   | (1&&(0&2))<<6   | (1&&(0&2))<<5   | (1&&(0&2))<<4   | (1&&(0&2))<
                            <3   | (1&&(0&2))<<2   | (1&&(0&2))<<1   | (1&&(3&2))<<0
                      00071               hold 11
                          M               if (1>11)       || (11>254)
                          M                error "Hold value in sequence data is out of range. Must be between 1 and 254."    
                          M               endif
023C   340B               M               retlw  11
                      00072               sdat 0,0,0,0,0,0,3,2
023D   3402               M               retlw  (1&&(0&1))<<7   | (1&&(0&1))<<6   | (1&&(0&1))<<5   | (1&&(0&1))<<4   | (1&&(0&1))<
                            <3   | (1&&(0&1))<<2   | (1&&(3&1))<<1   | (1&&(2&1))<<0
023E   3403               M               retlw  (1&&(0&2))<<7   | (1&&(0&2))<<6   | (1&&(0&2))<<5   | (1&&(0&2))<<4   | (1&&(0&2))<
                            <3   | (1&&(0&2))<<2   | (1&&(3&2))<<1   | (1&&(2&2))<<0
                      00073               hold 11
                          M               if (1>11)       || (11>254)
                          M                error "Hold value in sequence data is out of range. Must be between 1 and 254."    
                          M               endif
023F   340B               M               retlw  11
                      00074               sdat 0,0,0,0,0,3,2,1
0240   3405               M               retlw  (1&&(0&1))<<7   | (1&&(0&1))<<6   | (1&&(0&1))<<5   | (1&&(0&1))<<4   | (1&&(0&1))<
                            <3   | (1&&(3&1))<<2   | (1&&(2&1))<<1   | (1&&(1&1))<<0
0241   3406               M               retlw  (1&&(0&2))<<7   | (1&&(0&2))<<6   | (1&&(0&2))<<5   | (1&&(0&2))<<4   | (1&&(0&2))<
                            <3   | (1&&(3&2))<<2   | (1&&(2&2))<<1   | (1&&(1&2))<<0
                      00075               hold 11
                          M               if (1>11)       || (11>254)
                          M                error "Hold value in sequence data is out of range. Must be between 1 and 254."    
                          M               endif
0242   340B               M               retlw  11
                      00076               sdat 0,0,0,0,3,2,1,1
0243   340B               M               retlw  (1&&(0&1))<<7   | (1&&(0&1))<<6   | (1&&(0&1))<<5   | (1&&(0&1))<<4   | (1&&(3&1))<
                            <3   | (1&&(2&1))<<2   | (1&&(1&1))<<1   | (1&&(1&1))<<0
0244   340C               M               retlw  (1&&(0&2))<<7   | (1&&(0&2))<<6   | (1&&(0&2))<<5   | (1&&(0&2))<<4   | (1&&(3&2))<
                            <3   | (1&&(2&2))<<2   | (1&&(1&2))<<1   | (1&&(1&2))<<0
                      00077               hold 11
                          M               if (1>11)       || (11>254)
                          M                error "Hold value in sequence data is out of range. Must be between 1 and 254."    
                          M               endif
0245   340B               M               retlw  11
                      00078               sdat 0,0,0,3,2,1,1,0
0246   3416               M               retlw  (1&&(0&1))<<7   | (1&&(0&1))<<6   | (1&&(0&1))<<5   | (1&&(3&1))<<4   | (1&&(2&1))<
                            <3   | (1&&(1&1))<<2   | (1&&(1&1))<<1   | (1&&(0&1))<<0
0247   3418               M               retlw  (1&&(0&2))<<7   | (1&&(0&2))<<6   | (1&&(0&2))<<5   | (1&&(3&2))<<4   | (1&&(2&2))<
                            <3   | (1&&(1&2))<<2   | (1&&(1&2))<<1   | (1&&(0&2))<<0
                      00079               hold 11
                          M               if (1>11)       || (11>254)
                          M                error "Hold value in sequence data is out of range. Must be between 1 and 254."    
                          M               endif
0248   340B               M               retlw  11
                      00080               sdat 0,0,3,2,1,1,0,0
0249   342C               M               retlw  (1&&(0&1))<<7   | (1&&(0&1))<<6   | (1&&(3&1))<<5   | (1&&(2&1))<<4   | (1&&(1&1))<
MPASM  5.43                  PWMC_MAIN107.ASM   3-28-2012  11:36:08         PAGE 30


LOC  OBJECT CODE     LINE SOURCE TEXT
  VALUE

                            <3   | (1&&(1&1))<<2   | (1&&(0&1))<<1   | (1&&(0&1))<<0
024A   3430               M               retlw  (1&&(0&2))<<7   | (1&&(0&2))<<6   | (1&&(3&2))<<5   | (1&&(2&2))<<4   | (1&&(1&2))<
                            <3   | (1&&(1&2))<<2   | (1&&(0&2))<<1   | (1&&(0&2))<<0
                      00081               hold 11
                          M               if (1>11)       || (11>254)
                          M                error "Hold value in sequence data is out of range. Must be between 1 and 254."    
                          M               endif
024B   340B               M               retlw  11
                      00082               sdat 0,3,2,1,1,0,0,0
024C   3458               M               retlw  (1&&(0&1))<<7   | (1&&(3&1))<<6   | (1&&(2&1))<<5   | (1&&(1&1))<<4   | (1&&(1&1))<
                            <3   | (1&&(0&1))<<2   | (1&&(0&1))<<1   | (1&&(0&1))<<0
024D   3460               M               retlw  (1&&(0&2))<<7   | (1&&(3&2))<<6   | (1&&(2&2))<<5   | (1&&(1&2))<<4   | (1&&(1&2))<
                            <3   | (1&&(0&2))<<2   | (1&&(0&2))<<1   | (1&&(0&2))<<0
                      00083               hold 11
                          M               if (1>11)       || (11>254)
                          M                error "Hold value in sequence data is out of range. Must be between 1 and 254."    
                          M               endif
024E   340B               M               retlw  11
                      00084               sdat 3,2,1,1,0,0,0,0
024F   34B0               M               retlw  (1&&(3&1))<<7   | (1&&(2&1))<<6   | (1&&(1&1))<<5   | (1&&(1&1))<<4   | (1&&(0&1))<
                            <3   | (1&&(0&1))<<2   | (1&&(0&1))<<1   | (1&&(0&1))<<0
0250   34C0               M               retlw  (1&&(3&2))<<7   | (1&&(2&2))<<6   | (1&&(1&2))<<5   | (1&&(1&2))<<4   | (1&&(0&2))<
                            <3   | (1&&(0&2))<<2   | (1&&(0&2))<<1   | (1&&(0&2))<<0
                      00085               hold 11
                          M               if (1>11)       || (11>254)
                          M                error "Hold value in sequence data is out of range. Must be between 1 and 254."    
                          M               endif
0251   340B               M               retlw  11
                      00086               sdat 3,1,0,0,0,0,0,0
0252   34C0               M               retlw  (1&&(3&1))<<7   | (1&&(1&1))<<6   | (1&&(0&1))<<5   | (1&&(0&1))<<4   | (1&&(0&1))<
                            <3   | (1&&(0&1))<<2   | (1&&(0&1))<<1   | (1&&(0&1))<<0
0253   3480               M               retlw  (1&&(3&2))<<7   | (1&&(1&2))<<6   | (1&&(0&2))<<5   | (1&&(0&2))<<4   | (1&&(0&2))<
                            <3   | (1&&(0&2))<<2   | (1&&(0&2))<<1   | (1&&(0&2))<<0
                      00087 
                      00088               
                      00089               seqend
0254   34FF               M               retlw  .255
                      00090 
                      00091 ; ----------------------------------
                      00092 ; seq 03
                      00093 
                      00094               control 0,4
                          M               if (1>4)      || (4>31)
                          M                error "Repeat count in sequence data is out of range. Must be between 1 and 31."    
                          M               endif
0255   3404               M               retlw  (1&&0)<<6       | (4      & .31)
                      00095               hold 45
                          M               if (1>45)       || (45>254)
                          M                error "Hold value in sequence data is out of range. Must be between 1 and 254."    
                          M               endif
0256   342D               M               retlw  45
                      00096               sdat 3,0,0,0,0,0,0,0
0257   3480               M               retlw  (1&&(3&1))<<7   | (1&&(0&1))<<6   | (1&&(0&1))<<5   | (1&&(0&1))<<4   | (1&&(0&1))<
MPASM  5.43                  PWMC_MAIN107.ASM   3-28-2012  11:36:08         PAGE 31


LOC  OBJECT CODE     LINE SOURCE TEXT
  VALUE

                            <3   | (1&&(0&1))<<2   | (1&&(0&1))<<1   | (1&&(0&1))<<0
0258   3480               M               retlw  (1&&(3&2))<<7   | (1&&(0&2))<<6   | (1&&(0&2))<<5   | (1&&(0&2))<<4   | (1&&(0&2))<
                            <3   | (1&&(0&2))<<2   | (1&&(0&2))<<1   | (1&&(0&2))<<0
                      00097               hold 8
                          M               if (1>8)        || (8>254)
                          M                error "Hold value in sequence data is out of range. Must be between 1 and 254."    
                          M               endif
0259   3408               M               retlw  8
                      00098               sdat 2,3,0,0,0,0,0,0
025A   3440               M               retlw  (1&&(2&1))<<7   | (1&&(3&1))<<6   | (1&&(0&1))<<5   | (1&&(0&1))<<4   | (1&&(0&1))<
                            <3   | (1&&(0&1))<<2   | (1&&(0&1))<<1   | (1&&(0&1))<<0
025B   34C0               M               retlw  (1&&(2&2))<<7   | (1&&(3&2))<<6   | (1&&(0&2))<<5   | (1&&(0&2))<<4   | (1&&(0&2))<
                            <3   | (1&&(0&2))<<2   | (1&&(0&2))<<1   | (1&&(0&2))<<0
                      00099               hold 8
                          M               if (1>8)        || (8>254)
                          M                error "Hold value in sequence data is out of range. Must be between 1 and 254."    
                          M               endif
025C   3408               M               retlw  8
                      00100               sdat 1,2,3,0,0,0,0,0
025D   34A0               M               retlw  (1&&(1&1))<<7   | (1&&(2&1))<<6   | (1&&(3&1))<<5   | (1&&(0&1))<<4   | (1&&(0&1))<
                            <3   | (1&&(0&1))<<2   | (1&&(0&1))<<1   | (1&&(0&1))<<0
025E   3460               M               retlw  (1&&(1&2))<<7   | (1&&(2&2))<<6   | (1&&(3&2))<<5   | (1&&(0&2))<<4   | (1&&(0&2))<
                            <3   | (1&&(0&2))<<2   | (1&&(0&2))<<1   | (1&&(0&2))<<0
                      00101               hold 8
                          M               if (1>8)        || (8>254)
                          M                error "Hold value in sequence data is out of range. Must be between 1 and 254."    
                          M               endif
025F   3408               M               retlw  8
                      00102               sdat 1,1,2,3,0,0,0,0
0260   34D0               M               retlw  (1&&(1&1))<<7   | (1&&(1&1))<<6   | (1&&(2&1))<<5   | (1&&(3&1))<<4   | (1&&(0&1))<
                            <3   | (1&&(0&1))<<2   | (1&&(0&1))<<1   | (1&&(0&1))<<0
0261   3430               M               retlw  (1&&(1&2))<<7   | (1&&(1&2))<<6   | (1&&(2&2))<<5   | (1&&(3&2))<<4   | (1&&(0&2))<
                            <3   | (1&&(0&2))<<2   | (1&&(0&2))<<1   | (1&&(0&2))<<0
                      00103               hold 8
                          M               if (1>8)        || (8>254)
                          M                error "Hold value in sequence data is out of range. Must be between 1 and 254."    
                          M               endif
0262   3408               M               retlw  8
                      00104               sdat 0,1,1,2,3,0,0,0
0263   3468               M               retlw  (1&&(0&1))<<7   | (1&&(1&1))<<6   | (1&&(1&1))<<5   | (1&&(2&1))<<4   | (1&&(3&1))<
                            <3   | (1&&(0&1))<<2   | (1&&(0&1))<<1   | (1&&(0&1))<<0
0264   3418               M               retlw  (1&&(0&2))<<7   | (1&&(1&2))<<6   | (1&&(1&2))<<5   | (1&&(2&2))<<4   | (1&&(3&2))<
                            <3   | (1&&(0&2))<<2   | (1&&(0&2))<<1   | (1&&(0&2))<<0
                      00105               hold 8
                          M               if (1>8)        || (8>254)
                          M                error "Hold value in sequence data is out of range. Must be between 1 and 254."    
                          M               endif
0265   3408               M               retlw  8
                      00106               sdat 0,0,1,1,2,3,0,0
0266   3434               M               retlw  (1&&(0&1))<<7   | (1&&(0&1))<<6   | (1&&(1&1))<<5   | (1&&(1&1))<<4   | (1&&(2&1))<
                            <3   | (1&&(3&1))<<2   | (1&&(0&1))<<1   | (1&&(0&1))<<0
0267   340C               M               retlw  (1&&(0&2))<<7   | (1&&(0&2))<<6   | (1&&(1&2))<<5   | (1&&(1&2))<<4   | (1&&(2&2))<
                            <3   | (1&&(3&2))<<2   | (1&&(0&2))<<1   | (1&&(0&2))<<0
MPASM  5.43                  PWMC_MAIN107.ASM   3-28-2012  11:36:08         PAGE 32


LOC  OBJECT CODE     LINE SOURCE TEXT
  VALUE

                      00107               hold 8
                          M               if (1>8)        || (8>254)
                          M                error "Hold value in sequence data is out of range. Must be between 1 and 254."    
                          M               endif
0268   3408               M               retlw  8
                      00108               sdat 0,0,0,1,1,2,3,0
0269   341A               M               retlw  (1&&(0&1))<<7   | (1&&(0&1))<<6   | (1&&(0&1))<<5   | (1&&(1&1))<<4   | (1&&(1&1))<
                            <3   | (1&&(2&1))<<2   | (1&&(3&1))<<1   | (1&&(0&1))<<0
026A   3406               M               retlw  (1&&(0&2))<<7   | (1&&(0&2))<<6   | (1&&(0&2))<<5   | (1&&(1&2))<<4   | (1&&(1&2))<
                            <3   | (1&&(2&2))<<2   | (1&&(3&2))<<1   | (1&&(0&2))<<0
                      00109               hold 8
                          M               if (1>8)        || (8>254)
                          M                error "Hold value in sequence data is out of range. Must be between 1 and 254."    
                          M               endif
026B   3408               M               retlw  8
                      00110               sdat 0,0,0,0,1,1,2,3
026C   340D               M               retlw  (1&&(0&1))<<7   | (1&&(0&1))<<6   | (1&&(0&1))<<5   | (1&&(0&1))<<4   | (1&&(1&1))<
                            <3   | (1&&(1&1))<<2   | (1&&(2&1))<<1   | (1&&(3&1))<<0
026D   3403               M               retlw  (1&&(0&2))<<7   | (1&&(0&2))<<6   | (1&&(0&2))<<5   | (1&&(0&2))<<4   | (1&&(1&2))<
                            <3   | (1&&(1&2))<<2   | (1&&(2&2))<<1   | (1&&(3&2))<<0
                      00111               hold 8
                          M               if (1>8)        || (8>254)
                          M                error "Hold value in sequence data is out of range. Must be between 1 and 254."    
                          M               endif
026E   3408               M               retlw  8
                      00112               sdat 0,0,0,0,0,0,1,3
026F   3403               M               retlw  (1&&(0&1))<<7   | (1&&(0&1))<<6   | (1&&(0&1))<<5   | (1&&(0&1))<<4   | (1&&(0&1))<
                            <3   | (1&&(0&1))<<2   | (1&&(1&1))<<1   | (1&&(3&1))<<0
0270   3401               M               retlw  (1&&(0&2))<<7   | (1&&(0&2))<<6   | (1&&(0&2))<<5   | (1&&(0&2))<<4   | (1&&(0&2))<
                            <3   | (1&&(0&2))<<2   | (1&&(1&2))<<1   | (1&&(3&2))<<0
                      00113         hold 45
                          M               if (1>45)       || (45>254)
                          M                error "Hold value in sequence data is out of range. Must be between 1 and 254."    
                          M               endif
0271   342D               M               retlw  45
                      00114               sdat 0,0,0,0,0,0,0,3
0272   3401               M               retlw  (1&&(0&1))<<7   | (1&&(0&1))<<6   | (1&&(0&1))<<5   | (1&&(0&1))<<4   | (1&&(0&1))<
                            <3   | (1&&(0&1))<<2   | (1&&(0&1))<<1   | (1&&(3&1))<<0
0273   3401               M               retlw  (1&&(0&2))<<7   | (1&&(0&2))<<6   | (1&&(0&2))<<5   | (1&&(0&2))<<4   | (1&&(0&2))<
                            <3   | (1&&(0&2))<<2   | (1&&(0&2))<<1   | (1&&(3&2))<<0
                      00115               hold 8
                          M               if (1>8)        || (8>254)
                          M                error "Hold value in sequence data is out of range. Must be between 1 and 254."    
                          M               endif
0274   3408               M               retlw  8
                      00116               sdat 0,0,0,0,0,0,3,2
0275   3402               M               retlw  (1&&(0&1))<<7   | (1&&(0&1))<<6   | (1&&(0&1))<<5   | (1&&(0&1))<<4   | (1&&(0&1))<
                            <3   | (1&&(0&1))<<2   | (1&&(3&1))<<1   | (1&&(2&1))<<0
0276   3403               M               retlw  (1&&(0&2))<<7   | (1&&(0&2))<<6   | (1&&(0&2))<<5   | (1&&(0&2))<<4   | (1&&(0&2))<
                            <3   | (1&&(0&2))<<2   | (1&&(3&2))<<1   | (1&&(2&2))<<0
                      00117               hold 8
                          M               if (1>8)        || (8>254)
                          M                error "Hold value in sequence data is out of range. Must be between 1 and 254."    
MPASM  5.43                  PWMC_MAIN107.ASM   3-28-2012  11:36:08         PAGE 33


LOC  OBJECT CODE     LINE SOURCE TEXT
  VALUE

                          M               endif
0277   3408               M               retlw  8
                      00118               sdat 0,0,0,0,0,3,2,1
0278   3405               M               retlw  (1&&(0&1))<<7   | (1&&(0&1))<<6   | (1&&(0&1))<<5   | (1&&(0&1))<<4   | (1&&(0&1))<
                            <3   | (1&&(3&1))<<2   | (1&&(2&1))<<1   | (1&&(1&1))<<0
0279   3406               M               retlw  (1&&(0&2))<<7   | (1&&(0&2))<<6   | (1&&(0&2))<<5   | (1&&(0&2))<<4   | (1&&(0&2))<
                            <3   | (1&&(3&2))<<2   | (1&&(2&2))<<1   | (1&&(1&2))<<0
                      00119               hold 8
                          M               if (1>8)        || (8>254)
                          M                error "Hold value in sequence data is out of range. Must be between 1 and 254."    
                          M               endif
027A   3408               M               retlw  8
                      00120               sdat 0,0,0,0,3,2,1,1
027B   340B               M               retlw  (1&&(0&1))<<7   | (1&&(0&1))<<6   | (1&&(0&1))<<5   | (1&&(0&1))<<4   | (1&&(3&1))<
                            <3   | (1&&(2&1))<<2   | (1&&(1&1))<<1   | (1&&(1&1))<<0
027C   340C               M               retlw  (1&&(0&2))<<7   | (1&&(0&2))<<6   | (1&&(0&2))<<5   | (1&&(0&2))<<4   | (1&&(3&2))<
                            <3   | (1&&(2&2))<<2   | (1&&(1&2))<<1   | (1&&(1&2))<<0
                      00121               hold 8
                          M               if (1>8)        || (8>254)
                          M                error "Hold value in sequence data is out of range. Must be between 1 and 254."    
                          M               endif
027D   3408               M               retlw  8
                      00122               sdat 0,0,0,3,2,1,1,0
027E   3416               M               retlw  (1&&(0&1))<<7   | (1&&(0&1))<<6   | (1&&(0&1))<<5   | (1&&(3&1))<<4   | (1&&(2&1))<
                            <3   | (1&&(1&1))<<2   | (1&&(1&1))<<1   | (1&&(0&1))<<0
027F   3418               M               retlw  (1&&(0&2))<<7   | (1&&(0&2))<<6   | (1&&(0&2))<<5   | (1&&(3&2))<<4   | (1&&(2&2))<
                            <3   | (1&&(1&2))<<2   | (1&&(1&2))<<1   | (1&&(0&2))<<0
                      00123               hold 8
                          M               if (1>8)        || (8>254)
                          M                error "Hold value in sequence data is out of range. Must be between 1 and 254."    
                          M               endif
0280   3408               M               retlw  8
                      00124               sdat 0,0,3,2,1,1,0,0
0281   342C               M               retlw  (1&&(0&1))<<7   | (1&&(0&1))<<6   | (1&&(3&1))<<5   | (1&&(2&1))<<4   | (1&&(1&1))<
                            <3   | (1&&(1&1))<<2   | (1&&(0&1))<<1   | (1&&(0&1))<<0
0282   3430               M               retlw  (1&&(0&2))<<7   | (1&&(0&2))<<6   | (1&&(3&2))<<5   | (1&&(2&2))<<4   | (1&&(1&2))<
                            <3   | (1&&(1&2))<<2   | (1&&(0&2))<<1   | (1&&(0&2))<<0
                      00125               hold 8
                          M               if (1>8)        || (8>254)
                          M                error "Hold value in sequence data is out of range. Must be between 1 and 254."    
                          M               endif
0283   3408               M               retlw  8
                      00126               sdat 0,3,2,1,1,0,0,0
0284   3458               M               retlw  (1&&(0&1))<<7   | (1&&(3&1))<<6   | (1&&(2&1))<<5   | (1&&(1&1))<<4   | (1&&(1&1))<
                            <3   | (1&&(0&1))<<2   | (1&&(0&1))<<1   | (1&&(0&1))<<0
0285   3460               M               retlw  (1&&(0&2))<<7   | (1&&(3&2))<<6   | (1&&(2&2))<<5   | (1&&(1&2))<<4   | (1&&(1&2))<
                            <3   | (1&&(0&2))<<2   | (1&&(0&2))<<1   | (1&&(0&2))<<0
                      00127               hold 8
                          M               if (1>8)        || (8>254)
                          M                error "Hold value in sequence data is out of range. Must be between 1 and 254."    
                          M               endif
0286   3408               M               retlw  8
                      00128               sdat 3,2,1,1,0,0,0,0
MPASM  5.43                  PWMC_MAIN107.ASM   3-28-2012  11:36:08         PAGE 34


LOC  OBJECT CODE     LINE SOURCE TEXT
  VALUE

0287   34B0               M               retlw  (1&&(3&1))<<7   | (1&&(2&1))<<6   | (1&&(1&1))<<5   | (1&&(1&1))<<4   | (1&&(0&1))<
                            <3   | (1&&(0&1))<<2   | (1&&(0&1))<<1   | (1&&(0&1))<<0
0288   34C0               M               retlw  (1&&(3&2))<<7   | (1&&(2&2))<<6   | (1&&(1&2))<<5   | (1&&(1&2))<<4   | (1&&(0&2))<
                            <3   | (1&&(0&2))<<2   | (1&&(0&2))<<1   | (1&&(0&2))<<0
                      00129               hold 8
                          M               if (1>8)        || (8>254)
                          M                error "Hold value in sequence data is out of range. Must be between 1 and 254."    
                          M               endif
0289   3408               M               retlw  8
                      00130               sdat 3,1,0,0,0,0,0,0
028A   34C0               M               retlw  (1&&(3&1))<<7   | (1&&(1&1))<<6   | (1&&(0&1))<<5   | (1&&(0&1))<<4   | (1&&(0&1))<
                            <3   | (1&&(0&1))<<2   | (1&&(0&1))<<1   | (1&&(0&1))<<0
028B   3480               M               retlw  (1&&(3&2))<<7   | (1&&(1&2))<<6   | (1&&(0&2))<<5   | (1&&(0&2))<<4   | (1&&(0&2))<
                            <3   | (1&&(0&2))<<2   | (1&&(0&2))<<1   | (1&&(0&2))<<0
                      00131 
                      00132               
                      00133               seqend
028C   34FF               M               retlw  .255
                      00134 
                      00135 ; ----------------------------------
                      00136 ; seq 04
                      00137               control 0,5
                          M               if (1>5)      || (5>31)
                          M                error "Repeat count in sequence data is out of range. Must be between 1 and 31."    
                          M               endif
028D   3405               M               retlw  (1&&0)<<6       | (5      & .31)
                      00138 
                      00139               hold 8
                          M               if (1>8)        || (8>254)
                          M                error "Hold value in sequence data is out of range. Must be between 1 and 254."    
                          M               endif
028E   3408               M               retlw  8
                      00140               sdat 1,0,0,0,0,0,0,1
028F   3481               M               retlw  (1&&(1&1))<<7   | (1&&(0&1))<<6   | (1&&(0&1))<<5   | (1&&(0&1))<<4   | (1&&(0&1))<
                            <3   | (1&&(0&1))<<2   | (1&&(0&1))<<1   | (1&&(1&1))<<0
0290   3400               M               retlw  (1&&(1&2))<<7   | (1&&(0&2))<<6   | (1&&(0&2))<<5   | (1&&(0&2))<<4   | (1&&(0&2))<
                            <3   | (1&&(0&2))<<2   | (1&&(0&2))<<1   | (1&&(1&2))<<0
                      00141               hold 8
                          M               if (1>8)        || (8>254)
                          M                error "Hold value in sequence data is out of range. Must be between 1 and 254."    
                          M               endif
0291   3408               M               retlw  8
                      00142         sdat 0,1,0,0,0,0,1,0
0292   3442               M               retlw  (1&&(0&1))<<7   | (1&&(1&1))<<6   | (1&&(0&1))<<5   | (1&&(0&1))<<4   | (1&&(0&1))<
                            <3   | (1&&(0&1))<<2   | (1&&(1&1))<<1   | (1&&(0&1))<<0
0293   3400               M               retlw  (1&&(0&2))<<7   | (1&&(1&2))<<6   | (1&&(0&2))<<5   | (1&&(0&2))<<4   | (1&&(0&2))<
                            <3   | (1&&(0&2))<<2   | (1&&(1&2))<<1   | (1&&(0&2))<<0
                      00143               hold 8
                          M               if (1>8)        || (8>254)
                          M                error "Hold value in sequence data is out of range. Must be between 1 and 254."    
                          M               endif
0294   3408               M               retlw  8
                      00144         sdat 0,0,1,0,0,1,0,0
MPASM  5.43                  PWMC_MAIN107.ASM   3-28-2012  11:36:08         PAGE 35


LOC  OBJECT CODE     LINE SOURCE TEXT
  VALUE

0295   3424               M               retlw  (1&&(0&1))<<7   | (1&&(0&1))<<6   | (1&&(1&1))<<5   | (1&&(0&1))<<4   | (1&&(0&1))<
                            <3   | (1&&(1&1))<<2   | (1&&(0&1))<<1   | (1&&(0&1))<<0
0296   3400               M               retlw  (1&&(0&2))<<7   | (1&&(0&2))<<6   | (1&&(1&2))<<5   | (1&&(0&2))<<4   | (1&&(0&2))<
                            <3   | (1&&(1&2))<<2   | (1&&(0&2))<<1   | (1&&(0&2))<<0
                      00145               hold 8
                          M               if (1>8)        || (8>254)
                          M                error "Hold value in sequence data is out of range. Must be between 1 and 254."    
                          M               endif
0297   3408               M               retlw  8
                      00146         sdat 0,0,0,1,1,0,0,0
0298   3418               M               retlw  (1&&(0&1))<<7   | (1&&(0&1))<<6   | (1&&(0&1))<<5   | (1&&(1&1))<<4   | (1&&(1&1))<
                            <3   | (1&&(0&1))<<2   | (1&&(0&1))<<1   | (1&&(0&1))<<0
0299   3400               M               retlw  (1&&(0&2))<<7   | (1&&(0&2))<<6   | (1&&(0&2))<<5   | (1&&(1&2))<<4   | (1&&(1&2))<
                            <3   | (1&&(0&2))<<2   | (1&&(0&2))<<1   | (1&&(0&2))<<0
                      00147               hold 8
                          M               if (1>8)        || (8>254)
                          M                error "Hold value in sequence data is out of range. Must be between 1 and 254."    
                          M               endif
029A   3408               M               retlw  8
                      00148         sdat 1,0,0,1,1,0,0,1
029B   3499               M               retlw  (1&&(1&1))<<7   | (1&&(0&1))<<6   | (1&&(0&1))<<5   | (1&&(1&1))<<4   | (1&&(1&1))<
                            <3   | (1&&(0&1))<<2   | (1&&(0&1))<<1   | (1&&(1&1))<<0
029C   3400               M               retlw  (1&&(1&2))<<7   | (1&&(0&2))<<6   | (1&&(0&2))<<5   | (1&&(1&2))<<4   | (1&&(1&2))<
                            <3   | (1&&(0&2))<<2   | (1&&(0&2))<<1   | (1&&(1&2))<<0
                      00149               hold 8
                          M               if (1>8)        || (8>254)
                          M                error "Hold value in sequence data is out of range. Must be between 1 and 254."    
                          M               endif
029D   3408               M               retlw  8
                      00150         sdat 0,1,0,1,1,0,1,0
029E   345A               M               retlw  (1&&(0&1))<<7   | (1&&(1&1))<<6   | (1&&(0&1))<<5   | (1&&(1&1))<<4   | (1&&(1&1))<
                            <3   | (1&&(0&1))<<2   | (1&&(1&1))<<1   | (1&&(0&1))<<0
029F   3400               M               retlw  (1&&(0&2))<<7   | (1&&(1&2))<<6   | (1&&(0&2))<<5   | (1&&(1&2))<<4   | (1&&(1&2))<
                            <3   | (1&&(0&2))<<2   | (1&&(1&2))<<1   | (1&&(0&2))<<0
                      00151               hold 8
                          M               if (1>8)        || (8>254)
                          M                error "Hold value in sequence data is out of range. Must be between 1 and 254."    
                          M               endif
02A0   3408               M               retlw  8
                      00152         sdat 0,0,1,1,1,1,0,0
02A1   343C               M               retlw  (1&&(0&1))<<7   | (1&&(0&1))<<6   | (1&&(1&1))<<5   | (1&&(1&1))<<4   | (1&&(1&1))<
                            <3   | (1&&(1&1))<<2   | (1&&(0&1))<<1   | (1&&(0&1))<<0
02A2   3400               M               retlw  (1&&(0&2))<<7   | (1&&(0&2))<<6   | (1&&(1&2))<<5   | (1&&(1&2))<<4   | (1&&(1&2))<
                            <3   | (1&&(1&2))<<2   | (1&&(0&2))<<1   | (1&&(0&2))<<0
                      00153               hold 8
                          M               if (1>8)        || (8>254)
                          M                error "Hold value in sequence data is out of range. Must be between 1 and 254."    
                          M               endif
02A3   3408               M               retlw  8
                      00154         sdat 0,0,0,2,2,0,0,0
02A4   3400               M               retlw  (1&&(0&1))<<7   | (1&&(0&1))<<6   | (1&&(0&1))<<5   | (1&&(2&1))<<4   | (1&&(2&1))<
                            <3   | (1&&(0&1))<<2   | (1&&(0&1))<<1   | (1&&(0&1))<<0
02A5   3418               M               retlw  (1&&(0&2))<<7   | (1&&(0&2))<<6   | (1&&(0&2))<<5   | (1&&(2&2))<<4   | (1&&(2&2))<
MPASM  5.43                  PWMC_MAIN107.ASM   3-28-2012  11:36:08         PAGE 36


LOC  OBJECT CODE     LINE SOURCE TEXT
  VALUE

                            <3   | (1&&(0&2))<<2   | (1&&(0&2))<<1   | (1&&(0&2))<<0
                      00155               hold 8
                          M               if (1>8)        || (8>254)
                          M                error "Hold value in sequence data is out of range. Must be between 1 and 254."    
                          M               endif
02A6   3408               M               retlw  8
                      00156         sdat 0,0,0,2,2,0,0,0
02A7   3400               M               retlw  (1&&(0&1))<<7   | (1&&(0&1))<<6   | (1&&(0&1))<<5   | (1&&(2&1))<<4   | (1&&(2&1))<
                            <3   | (1&&(0&1))<<2   | (1&&(0&1))<<1   | (1&&(0&1))<<0
02A8   3418               M               retlw  (1&&(0&2))<<7   | (1&&(0&2))<<6   | (1&&(0&2))<<5   | (1&&(2&2))<<4   | (1&&(2&2))<
                            <3   | (1&&(0&2))<<2   | (1&&(0&2))<<1   | (1&&(0&2))<<0
                      00157               hold 8
                          M               if (1>8)        || (8>254)
                          M                error "Hold value in sequence data is out of range. Must be between 1 and 254."    
                          M               endif
02A9   3408               M               retlw  8
                      00158         sdat 1,0,0,2,2,0,0,1
02AA   3481               M               retlw  (1&&(1&1))<<7   | (1&&(0&1))<<6   | (1&&(0&1))<<5   | (1&&(2&1))<<4   | (1&&(2&1))<
                            <3   | (1&&(0&1))<<2   | (1&&(0&1))<<1   | (1&&(1&1))<<0
02AB   3418               M               retlw  (1&&(1&2))<<7   | (1&&(0&2))<<6   | (1&&(0&2))<<5   | (1&&(2&2))<<4   | (1&&(2&2))<
                            <3   | (1&&(0&2))<<2   | (1&&(0&2))<<1   | (1&&(1&2))<<0
                      00159               hold 8
                          M               if (1>8)        || (8>254)
                          M                error "Hold value in sequence data is out of range. Must be between 1 and 254."    
                          M               endif
02AC   3408               M               retlw  8
                      00160         sdat 0,1,0,2,2,0,1,0
02AD   3442               M               retlw  (1&&(0&1))<<7   | (1&&(1&1))<<6   | (1&&(0&1))<<5   | (1&&(2&1))<<4   | (1&&(2&1))<
                            <3   | (1&&(0&1))<<2   | (1&&(1&1))<<1   | (1&&(0&1))<<0
02AE   3418               M               retlw  (1&&(0&2))<<7   | (1&&(1&2))<<6   | (1&&(0&2))<<5   | (1&&(2&2))<<4   | (1&&(2&2))<
                            <3   | (1&&(0&2))<<2   | (1&&(1&2))<<1   | (1&&(0&2))<<0
                      00161               hold 8
                          M               if (1>8)        || (8>254)
                          M                error "Hold value in sequence data is out of range. Must be between 1 and 254."    
                          M               endif
02AF   3408               M               retlw  8
                      00162         sdat 0,0,1,2,2,1,0,0
02B0   3424               M               retlw  (1&&(0&1))<<7   | (1&&(0&1))<<6   | (1&&(1&1))<<5   | (1&&(2&1))<<4   | (1&&(2&1))<
                            <3   | (1&&(1&1))<<2   | (1&&(0&1))<<1   | (1&&(0&1))<<0
02B1   3418               M               retlw  (1&&(0&2))<<7   | (1&&(0&2))<<6   | (1&&(1&2))<<5   | (1&&(2&2))<<4   | (1&&(2&2))<
                            <3   | (1&&(1&2))<<2   | (1&&(0&2))<<1   | (1&&(0&2))<<0
                      00163               hold 8
                          M               if (1>8)        || (8>254)
                          M                error "Hold value in sequence data is out of range. Must be between 1 and 254."    
                          M               endif
02B2   3408               M               retlw  8
                      00164         sdat 0,0,0,3,3,0,0,0
02B3   3418               M               retlw  (1&&(0&1))<<7   | (1&&(0&1))<<6   | (1&&(0&1))<<5   | (1&&(3&1))<<4   | (1&&(3&1))<
                            <3   | (1&&(0&1))<<2   | (1&&(0&1))<<1   | (1&&(0&1))<<0
02B4   3418               M               retlw  (1&&(0&2))<<7   | (1&&(0&2))<<6   | (1&&(0&2))<<5   | (1&&(3&2))<<4   | (1&&(3&2))<
                            <3   | (1&&(0&2))<<2   | (1&&(0&2))<<1   | (1&&(0&2))<<0
                      00165               hold 8
                          M               if (1>8)        || (8>254)
MPASM  5.43                  PWMC_MAIN107.ASM   3-28-2012  11:36:08         PAGE 37


LOC  OBJECT CODE     LINE SOURCE TEXT
  VALUE

                          M                error "Hold value in sequence data is out of range. Must be between 1 and 254."    
                          M               endif
02B5   3408               M               retlw  8
                      00166         sdat 1,0,0,3,3,0,0,1
02B6   3499               M               retlw  (1&&(1&1))<<7   | (1&&(0&1))<<6   | (1&&(0&1))<<5   | (1&&(3&1))<<4   | (1&&(3&1))<
                            <3   | (1&&(0&1))<<2   | (1&&(0&1))<<1   | (1&&(1&1))<<0
02B7   3418               M               retlw  (1&&(1&2))<<7   | (1&&(0&2))<<6   | (1&&(0&2))<<5   | (1&&(3&2))<<4   | (1&&(3&2))<
                            <3   | (1&&(0&2))<<2   | (1&&(0&2))<<1   | (1&&(1&2))<<0
                      00167               hold 8
                          M               if (1>8)        || (8>254)
                          M                error "Hold value in sequence data is out of range. Must be between 1 and 254."    
                          M               endif
02B8   3408               M               retlw  8
                      00168         sdat 0,1,0,3,3,0,1,0
02B9   345A               M               retlw  (1&&(0&1))<<7   | (1&&(1&1))<<6   | (1&&(0&1))<<5   | (1&&(3&1))<<4   | (1&&(3&1))<
                            <3   | (1&&(0&1))<<2   | (1&&(1&1))<<1   | (1&&(0&1))<<0
02BA   3418               M               retlw  (1&&(0&2))<<7   | (1&&(1&2))<<6   | (1&&(0&2))<<5   | (1&&(3&2))<<4   | (1&&(3&2))<
                            <3   | (1&&(0&2))<<2   | (1&&(1&2))<<1   | (1&&(0&2))<<0
                      00169               hold 8
                          M               if (1>8)        || (8>254)
                          M                error "Hold value in sequence data is out of range. Must be between 1 and 254."    
                          M               endif
02BB   3408               M               retlw  8
                      00170         sdat 0,0,1,3,3,1,0,0
02BC   343C               M               retlw  (1&&(0&1))<<7   | (1&&(0&1))<<6   | (1&&(1&1))<<5   | (1&&(3&1))<<4   | (1&&(3&1))<
                            <3   | (1&&(1&1))<<2   | (1&&(0&1))<<1   | (1&&(0&1))<<0
02BD   3418               M               retlw  (1&&(0&2))<<7   | (1&&(0&2))<<6   | (1&&(1&2))<<5   | (1&&(3&2))<<4   | (1&&(3&2))<
                            <3   | (1&&(1&2))<<2   | (1&&(0&2))<<1   | (1&&(0&2))<<0
                      00171               hold 8
                          M               if (1>8)        || (8>254)
                          M                error "Hold value in sequence data is out of range. Must be between 1 and 254."    
                          M               endif
02BE   3408               M               retlw  8
                      00172         sdat 0,0,0,3,3,0,0,0
02BF   3418               M               retlw  (1&&(0&1))<<7   | (1&&(0&1))<<6   | (1&&(0&1))<<5   | (1&&(3&1))<<4   | (1&&(3&1))<
                            <3   | (1&&(0&1))<<2   | (1&&(0&1))<<1   | (1&&(0&1))<<0
02C0   3418               M               retlw  (1&&(0&2))<<7   | (1&&(0&2))<<6   | (1&&(0&2))<<5   | (1&&(3&2))<<4   | (1&&(3&2))<
                            <3   | (1&&(0&2))<<2   | (1&&(0&2))<<1   | (1&&(0&2))<<0
                      00173 
                      00174               hold 8
                          M               if (1>8)        || (8>254)
                          M                error "Hold value in sequence data is out of range. Must be between 1 and 254."    
                          M               endif
02C1   3408               M               retlw  8
                      00175         sdat 0,0,3,3,3,3,0,0
02C2   343C               M               retlw  (1&&(0&1))<<7   | (1&&(0&1))<<6   | (1&&(3&1))<<5   | (1&&(3&1))<<4   | (1&&(3&1))<
                            <3   | (1&&(3&1))<<2   | (1&&(0&1))<<1   | (1&&(0&1))<<0
02C3   343C               M               retlw  (1&&(0&2))<<7   | (1&&(0&2))<<6   | (1&&(3&2))<<5   | (1&&(3&2))<<4   | (1&&(3&2))<
                            <3   | (1&&(3&2))<<2   | (1&&(0&2))<<1   | (1&&(0&2))<<0
                      00176               hold 7
                          M               if (1>7)        || (7>254)
                          M                error "Hold value in sequence data is out of range. Must be between 1 and 254."    
                          M               endif
MPASM  5.43                  PWMC_MAIN107.ASM   3-28-2012  11:36:08         PAGE 38


LOC  OBJECT CODE     LINE SOURCE TEXT
  VALUE

02C4   3407               M               retlw  7
                      00177         sdat 0,3,3,3,3,3,3,0
02C5   347E               M               retlw  (1&&(0&1))<<7   | (1&&(3&1))<<6   | (1&&(3&1))<<5   | (1&&(3&1))<<4   | (1&&(3&1))<
                            <3   | (1&&(3&1))<<2   | (1&&(3&1))<<1   | (1&&(0&1))<<0
02C6   347E               M               retlw  (1&&(0&2))<<7   | (1&&(3&2))<<6   | (1&&(3&2))<<5   | (1&&(3&2))<<4   | (1&&(3&2))<
                            <3   | (1&&(3&2))<<2   | (1&&(3&2))<<1   | (1&&(0&2))<<0
                      00178               hold 6
                          M               if (1>6)        || (6>254)
                          M                error "Hold value in sequence data is out of range. Must be between 1 and 254."    
                          M               endif
02C7   3406               M               retlw  6
                      00179         sdat 3,3,3,3,3,3,3,3
02C8   34FF               M               retlw  (1&&(3&1))<<7   | (1&&(3&1))<<6   | (1&&(3&1))<<5   | (1&&(3&1))<<4   | (1&&(3&1))<
                            <3   | (1&&(3&1))<<2   | (1&&(3&1))<<1   | (1&&(3&1))<<0
02C9   34FF               M               retlw  (1&&(3&2))<<7   | (1&&(3&2))<<6   | (1&&(3&2))<<5   | (1&&(3&2))<<4   | (1&&(3&2))<
                            <3   | (1&&(3&2))<<2   | (1&&(3&2))<<1   | (1&&(3&2))<<0
                      00180               hold 8
                          M               if (1>8)        || (8>254)
                          M                error "Hold value in sequence data is out of range. Must be between 1 and 254."    
                          M               endif
02CA   3408               M               retlw  8
                      00181         sdat 3,3,3,2,2,3,3,3
02CB   34E7               M               retlw  (1&&(3&1))<<7   | (1&&(3&1))<<6   | (1&&(3&1))<<5   | (1&&(2&1))<<4   | (1&&(2&1))<
                            <3   | (1&&(3&1))<<2   | (1&&(3&1))<<1   | (1&&(3&1))<<0
02CC   34FF               M               retlw  (1&&(3&2))<<7   | (1&&(3&2))<<6   | (1&&(3&2))<<5   | (1&&(2&2))<<4   | (1&&(2&2))<
                            <3   | (1&&(3&2))<<2   | (1&&(3&2))<<1   | (1&&(3&2))<<0
                      00182               hold 10
                          M               if (1>10)       || (10>254)
                          M                error "Hold value in sequence data is out of range. Must be between 1 and 254."    
                          M               endif
02CD   340A               M               retlw  10
                      00183         sdat 3,3,2,1,1,2,3,3
02CE   34DB               M               retlw  (1&&(3&1))<<7   | (1&&(3&1))<<6   | (1&&(2&1))<<5   | (1&&(1&1))<<4   | (1&&(1&1))<
                            <3   | (1&&(2&1))<<2   | (1&&(3&1))<<1   | (1&&(3&1))<<0
02CF   34E7               M               retlw  (1&&(3&2))<<7   | (1&&(3&2))<<6   | (1&&(2&2))<<5   | (1&&(1&2))<<4   | (1&&(1&2))<
                            <3   | (1&&(2&2))<<2   | (1&&(3&2))<<1   | (1&&(3&2))<<0
                      00184               hold 10
                          M               if (1>10)       || (10>254)
                          M                error "Hold value in sequence data is out of range. Must be between 1 and 254."    
                          M               endif
02D0   340A               M               retlw  10
                      00185         sdat 3,2,1,0,0,1,2,3
02D1   34A5               M               retlw  (1&&(3&1))<<7   | (1&&(2&1))<<6   | (1&&(1&1))<<5   | (1&&(0&1))<<4   | (1&&(0&1))<
                            <3   | (1&&(1&1))<<2   | (1&&(2&1))<<1   | (1&&(3&1))<<0
02D2   34C3               M               retlw  (1&&(3&2))<<7   | (1&&(2&2))<<6   | (1&&(1&2))<<5   | (1&&(0&2))<<4   | (1&&(0&2))<
                            <3   | (1&&(1&2))<<2   | (1&&(2&2))<<1   | (1&&(3&2))<<0
                      00186               hold 10
                          M               if (1>10)       || (10>254)
                          M                error "Hold value in sequence data is out of range. Must be between 1 and 254."    
                          M               endif
02D3   340A               M               retlw  10
                      00187         sdat 2,1,0,0,0,0,1,2
02D4   3442               M               retlw  (1&&(2&1))<<7   | (1&&(1&1))<<6   | (1&&(0&1))<<5   | (1&&(0&1))<<4   | (1&&(0&1))<
MPASM  5.43                  PWMC_MAIN107.ASM   3-28-2012  11:36:08         PAGE 39


LOC  OBJECT CODE     LINE SOURCE TEXT
  VALUE

                            <3   | (1&&(0&1))<<2   | (1&&(1&1))<<1   | (1&&(2&1))<<0
02D5   3481               M               retlw  (1&&(2&2))<<7   | (1&&(1&2))<<6   | (1&&(0&2))<<5   | (1&&(0&2))<<4   | (1&&(0&2))<
                            <3   | (1&&(0&2))<<2   | (1&&(1&2))<<1   | (1&&(2&2))<<0
                      00188               hold 12
                          M               if (1>12)       || (12>254)
                          M                error "Hold value in sequence data is out of range. Must be between 1 and 254."    
                          M               endif
02D6   340C               M               retlw  12
                      00189         sdat 1,0,0,0,0,0,0,1
02D7   3481               M               retlw  (1&&(1&1))<<7   | (1&&(0&1))<<6   | (1&&(0&1))<<5   | (1&&(0&1))<<4   | (1&&(0&1))<
                            <3   | (1&&(0&1))<<2   | (1&&(0&1))<<1   | (1&&(1&1))<<0
02D8   3400               M               retlw  (1&&(1&2))<<7   | (1&&(0&2))<<6   | (1&&(0&2))<<5   | (1&&(0&2))<<4   | (1&&(0&2))<
                            <3   | (1&&(0&2))<<2   | (1&&(0&2))<<1   | (1&&(1&2))<<0
                      00190         seqend
02D9   34FF               M               retlw  .255
                      00191 
                      00192 ; ----------------------------------
                      00193 ; seq 05
                      00194               control 1,8
                          M               if (1>8)      || (8>31)
                          M                error "Repeat count in sequence data is out of range. Must be between 1 and 31."    
                          M               endif
02DA   3448               M               retlw  (1&&1)<<6       | (8      & .31)
                      00195 
                      00196               hold 5
                          M               if (1>5)        || (5>254)
                          M                error "Hold value in sequence data is out of range. Must be between 1 and 254."    
                          M               endif
02DB   3405               M               retlw  5
                      00197               sdat 1,3,1,0,0,0,0,0
02DC   34E0               M               retlw  (1&&(1&1))<<7   | (1&&(3&1))<<6   | (1&&(1&1))<<5   | (1&&(0&1))<<4   | (1&&(0&1))<
                            <3   | (1&&(0&1))<<2   | (1&&(0&1))<<1   | (1&&(0&1))<<0
02DD   3440               M               retlw  (1&&(1&2))<<7   | (1&&(3&2))<<6   | (1&&(1&2))<<5   | (1&&(0&2))<<4   | (1&&(0&2))<
                            <3   | (1&&(0&2))<<2   | (1&&(0&2))<<1   | (1&&(0&2))<<0
                      00198               hold 5
                          M               if (1>5)        || (5>254)
                          M                error "Hold value in sequence data is out of range. Must be between 1 and 254."    
                          M               endif
02DE   3405               M               retlw  5
                      00199               sdat 0,1,3,1,0,0,0,0
02DF   3470               M               retlw  (1&&(0&1))<<7   | (1&&(1&1))<<6   | (1&&(3&1))<<5   | (1&&(1&1))<<4   | (1&&(0&1))<
                            <3   | (1&&(0&1))<<2   | (1&&(0&1))<<1   | (1&&(0&1))<<0
02E0   3420               M               retlw  (1&&(0&2))<<7   | (1&&(1&2))<<6   | (1&&(3&2))<<5   | (1&&(1&2))<<4   | (1&&(0&2))<
                            <3   | (1&&(0&2))<<2   | (1&&(0&2))<<1   | (1&&(0&2))<<0
                      00200               hold 5
                          M               if (1>5)        || (5>254)
                          M                error "Hold value in sequence data is out of range. Must be between 1 and 254."    
                          M               endif
02E1   3405               M               retlw  5
                      00201               sdat 0,0,1,3,1,0,0,0
02E2   3438               M               retlw  (1&&(0&1))<<7   | (1&&(0&1))<<6   | (1&&(1&1))<<5   | (1&&(3&1))<<4   | (1&&(1&1))<
                            <3   | (1&&(0&1))<<2   | (1&&(0&1))<<1   | (1&&(0&1))<<0
02E3   3410               M               retlw  (1&&(0&2))<<7   | (1&&(0&2))<<6   | (1&&(1&2))<<5   | (1&&(3&2))<<4   | (1&&(1&2))<
MPASM  5.43                  PWMC_MAIN107.ASM   3-28-2012  11:36:08         PAGE 40


LOC  OBJECT CODE     LINE SOURCE TEXT
  VALUE

                            <3   | (1&&(0&2))<<2   | (1&&(0&2))<<1   | (1&&(0&2))<<0
                      00202               hold 5
                          M               if (1>5)        || (5>254)
                          M                error "Hold value in sequence data is out of range. Must be between 1 and 254."    
                          M               endif
02E4   3405               M               retlw  5
                      00203               sdat 0,0,0,1,3,1,0,0
02E5   341C               M               retlw  (1&&(0&1))<<7   | (1&&(0&1))<<6   | (1&&(0&1))<<5   | (1&&(1&1))<<4   | (1&&(3&1))<
                            <3   | (1&&(1&1))<<2   | (1&&(0&1))<<1   | (1&&(0&1))<<0
02E6   3408               M               retlw  (1&&(0&2))<<7   | (1&&(0&2))<<6   | (1&&(0&2))<<5   | (1&&(1&2))<<4   | (1&&(3&2))<
                            <3   | (1&&(1&2))<<2   | (1&&(0&2))<<1   | (1&&(0&2))<<0
                      00204               hold 5
                          M               if (1>5)        || (5>254)
                          M                error "Hold value in sequence data is out of range. Must be between 1 and 254."    
                          M               endif
02E7   3405               M               retlw  5
                      00205               sdat 0,0,0,0,1,3,1,0
02E8   340E               M               retlw  (1&&(0&1))<<7   | (1&&(0&1))<<6   | (1&&(0&1))<<5   | (1&&(0&1))<<4   | (1&&(1&1))<
                            <3   | (1&&(3&1))<<2   | (1&&(1&1))<<1   | (1&&(0&1))<<0
02E9   3404               M               retlw  (1&&(0&2))<<7   | (1&&(0&2))<<6   | (1&&(0&2))<<5   | (1&&(0&2))<<4   | (1&&(1&2))<
                            <3   | (1&&(3&2))<<2   | (1&&(1&2))<<1   | (1&&(0&2))<<0
                      00206               hold 5
                          M               if (1>5)        || (5>254)
                          M                error "Hold value in sequence data is out of range. Must be between 1 and 254."    
                          M               endif
02EA   3405               M               retlw  5
                      00207               sdat 0,0,0,0,0,1,3,1
02EB   3407               M               retlw  (1&&(0&1))<<7   | (1&&(0&1))<<6   | (1&&(0&1))<<5   | (1&&(0&1))<<4   | (1&&(0&1))<
                            <3   | (1&&(1&1))<<2   | (1&&(3&1))<<1   | (1&&(1&1))<<0
02EC   3402               M               retlw  (1&&(0&2))<<7   | (1&&(0&2))<<6   | (1&&(0&2))<<5   | (1&&(0&2))<<4   | (1&&(0&2))<
                            <3   | (1&&(1&2))<<2   | (1&&(3&2))<<1   | (1&&(1&2))<<0
                      00208               hold 5
                          M               if (1>5)        || (5>254)
                          M                error "Hold value in sequence data is out of range. Must be between 1 and 254."    
                          M               endif
02ED   3405               M               retlw  5
                      00209               sdat 1,0,0,0,0,0,1,3
02EE   3483               M               retlw  (1&&(1&1))<<7   | (1&&(0&1))<<6   | (1&&(0&1))<<5   | (1&&(0&1))<<4   | (1&&(0&1))<
                            <3   | (1&&(0&1))<<2   | (1&&(1&1))<<1   | (1&&(3&1))<<0
02EF   3401               M               retlw  (1&&(1&2))<<7   | (1&&(0&2))<<6   | (1&&(0&2))<<5   | (1&&(0&2))<<4   | (1&&(0&2))<
                            <3   | (1&&(0&2))<<2   | (1&&(1&2))<<1   | (1&&(3&2))<<0
                      00210               hold 5
                          M               if (1>5)        || (5>254)
                          M                error "Hold value in sequence data is out of range. Must be between 1 and 254."    
                          M               endif
02F0   3405               M               retlw  5
                      00211               sdat 1,3,0,0,0,0,0,1
02F1   34C1               M               retlw  (1&&(1&1))<<7   | (1&&(3&1))<<6   | (1&&(0&1))<<5   | (1&&(0&1))<<4   | (1&&(0&1))<
                            <3   | (1&&(0&1))<<2   | (1&&(0&1))<<1   | (1&&(1&1))<<0
02F2   3440               M               retlw  (1&&(1&2))<<7   | (1&&(3&2))<<6   | (1&&(0&2))<<5   | (1&&(0&2))<<4   | (1&&(0&2))<
                            <3   | (1&&(0&2))<<2   | (1&&(0&2))<<1   | (1&&(1&2))<<0
                      00212               seqend
02F3   34FF               M               retlw  .255
MPASM  5.43                  PWMC_MAIN107.ASM   3-28-2012  11:36:08         PAGE 41


LOC  OBJECT CODE     LINE SOURCE TEXT
  VALUE

                      00213 
                      00214 
                      00215 ; ----------------------------------
                      00216 ; seq 06
                      00217               control 1,8
                          M               if (1>8)      || (8>31)
                          M                error "Repeat count in sequence data is out of range. Must be between 1 and 31."    
                          M               endif
02F4   3448               M               retlw  (1&&1)<<6       | (8      & .31)
                      00218 
                      00219               hold 3
                          M               if (1>3)        || (3>254)
                          M                error "Hold value in sequence data is out of range. Must be between 1 and 254."    
                          M               endif
02F5   3403               M               retlw  3
                      00220               sdat 1,3,1,0,0,0,0,0
02F6   34E0               M               retlw  (1&&(1&1))<<7   | (1&&(3&1))<<6   | (1&&(1&1))<<5   | (1&&(0&1))<<4   | (1&&(0&1))<
                            <3   | (1&&(0&1))<<2   | (1&&(0&1))<<1   | (1&&(0&1))<<0
02F7   3440               M               retlw  (1&&(1&2))<<7   | (1&&(3&2))<<6   | (1&&(1&2))<<5   | (1&&(0&2))<<4   | (1&&(0&2))<
                            <3   | (1&&(0&2))<<2   | (1&&(0&2))<<1   | (1&&(0&2))<<0
                      00221               hold 3
                          M               if (1>3)        || (3>254)
                          M                error "Hold value in sequence data is out of range. Must be between 1 and 254."    
                          M               endif
02F8   3403               M               retlw  3
                      00222               sdat 0,1,3,1,0,0,0,0
02F9   3470               M               retlw  (1&&(0&1))<<7   | (1&&(1&1))<<6   | (1&&(3&1))<<5   | (1&&(1&1))<<4   | (1&&(0&1))<
                            <3   | (1&&(0&1))<<2   | (1&&(0&1))<<1   | (1&&(0&1))<<0
02FA   3420               M               retlw  (1&&(0&2))<<7   | (1&&(1&2))<<6   | (1&&(3&2))<<5   | (1&&(1&2))<<4   | (1&&(0&2))<
                            <3   | (1&&(0&2))<<2   | (1&&(0&2))<<1   | (1&&(0&2))<<0
                      00223               hold 3
                          M               if (1>3)        || (3>254)
                          M                error "Hold value in sequence data is out of range. Must be between 1 and 254."    
                          M               endif
02FB   3403               M               retlw  3
                      00224               sdat 0,0,1,3,1,0,0,0
02FC   3438               M               retlw  (1&&(0&1))<<7   | (1&&(0&1))<<6   | (1&&(1&1))<<5   | (1&&(3&1))<<4   | (1&&(1&1))<
                            <3   | (1&&(0&1))<<2   | (1&&(0&1))<<1   | (1&&(0&1))<<0
02FD   3410               M               retlw  (1&&(0&2))<<7   | (1&&(0&2))<<6   | (1&&(1&2))<<5   | (1&&(3&2))<<4   | (1&&(1&2))<
                            <3   | (1&&(0&2))<<2   | (1&&(0&2))<<1   | (1&&(0&2))<<0
                      00225               hold 3
                          M               if (1>3)        || (3>254)
                          M                error "Hold value in sequence data is out of range. Must be between 1 and 254."    
                          M               endif
02FE   3403               M               retlw  3
                      00226               sdat 0,0,0,1,3,1,0,0
02FF   341C               M               retlw  (1&&(0&1))<<7   | (1&&(0&1))<<6   | (1&&(0&1))<<5   | (1&&(1&1))<<4   | (1&&(3&1))<
                            <3   | (1&&(1&1))<<2   | (1&&(0&1))<<1   | (1&&(0&1))<<0
0300   3408               M               retlw  (1&&(0&2))<<7   | (1&&(0&2))<<6   | (1&&(0&2))<<5   | (1&&(1&2))<<4   | (1&&(3&2))<
                            <3   | (1&&(1&2))<<2   | (1&&(0&2))<<1   | (1&&(0&2))<<0
                      00227               hold 3
                          M               if (1>3)        || (3>254)
                          M                error "Hold value in sequence data is out of range. Must be between 1 and 254."    
MPASM  5.43                  PWMC_MAIN107.ASM   3-28-2012  11:36:08         PAGE 42


LOC  OBJECT CODE     LINE SOURCE TEXT
  VALUE

                          M               endif
0301   3403               M               retlw  3
                      00228               sdat 0,0,0,0,1,3,1,0
0302   340E               M               retlw  (1&&(0&1))<<7   | (1&&(0&1))<<6   | (1&&(0&1))<<5   | (1&&(0&1))<<4   | (1&&(1&1))<
                            <3   | (1&&(3&1))<<2   | (1&&(1&1))<<1   | (1&&(0&1))<<0
0303   3404               M               retlw  (1&&(0&2))<<7   | (1&&(0&2))<<6   | (1&&(0&2))<<5   | (1&&(0&2))<<4   | (1&&(1&2))<
                            <3   | (1&&(3&2))<<2   | (1&&(1&2))<<1   | (1&&(0&2))<<0
                      00229               hold 3
                          M               if (1>3)        || (3>254)
                          M                error "Hold value in sequence data is out of range. Must be between 1 and 254."    
                          M               endif
0304   3403               M               retlw  3
                      00230               sdat 0,0,0,0,0,1,3,1
0305   3407               M               retlw  (1&&(0&1))<<7   | (1&&(0&1))<<6   | (1&&(0&1))<<5   | (1&&(0&1))<<4   | (1&&(0&1))<
                            <3   | (1&&(1&1))<<2   | (1&&(3&1))<<1   | (1&&(1&1))<<0
0306   3402               M               retlw  (1&&(0&2))<<7   | (1&&(0&2))<<6   | (1&&(0&2))<<5   | (1&&(0&2))<<4   | (1&&(0&2))<
                            <3   | (1&&(1&2))<<2   | (1&&(3&2))<<1   | (1&&(1&2))<<0
                      00231               hold 3
                          M               if (1>3)        || (3>254)
                          M                error "Hold value in sequence data is out of range. Must be between 1 and 254."    
                          M               endif
0307   3403               M               retlw  3
                      00232               sdat 1,0,0,0,0,0,1,3
0308   3483               M               retlw  (1&&(1&1))<<7   | (1&&(0&1))<<6   | (1&&(0&1))<<5   | (1&&(0&1))<<4   | (1&&(0&1))<
                            <3   | (1&&(0&1))<<2   | (1&&(1&1))<<1   | (1&&(3&1))<<0
0309   3401               M               retlw  (1&&(1&2))<<7   | (1&&(0&2))<<6   | (1&&(0&2))<<5   | (1&&(0&2))<<4   | (1&&(0&2))<
                            <3   | (1&&(0&2))<<2   | (1&&(1&2))<<1   | (1&&(3&2))<<0
                      00233               hold 3
                          M               if (1>3)        || (3>254)
                          M                error "Hold value in sequence data is out of range. Must be between 1 and 254."    
                          M               endif
030A   3403               M               retlw  3
                      00234               sdat 1,3,0,0,0,0,0,1
030B   34C1               M               retlw  (1&&(1&1))<<7   | (1&&(3&1))<<6   | (1&&(0&1))<<5   | (1&&(0&1))<<4   | (1&&(0&1))<
                            <3   | (1&&(0&1))<<2   | (1&&(0&1))<<1   | (1&&(1&1))<<0
030C   3440               M               retlw  (1&&(1&2))<<7   | (1&&(3&2))<<6   | (1&&(0&2))<<5   | (1&&(0&2))<<4   | (1&&(0&2))<
                            <3   | (1&&(0&2))<<2   | (1&&(0&2))<<1   | (1&&(1&2))<<0
                      00235               seqend
030D   34FF               M               retlw  .255
                      00236 
                      00237 
                      00238 ; ----------------------------------
                      00239 ; seq 07
                      00240               control 1,8
                          M               if (1>8)      || (8>31)
                          M                error "Repeat count in sequence data is out of range. Must be between 1 and 31."    
                          M               endif
030E   3448               M               retlw  (1&&1)<<6       | (8      & .31)
                      00241 
                      00242               hold 2
                          M               if (1>2)        || (2>254)
                          M                error "Hold value in sequence data is out of range. Must be between 1 and 254."    
                          M               endif
MPASM  5.43                  PWMC_MAIN107.ASM   3-28-2012  11:36:08         PAGE 43


LOC  OBJECT CODE     LINE SOURCE TEXT
  VALUE

030F   3402               M               retlw  2
                      00243               sdat 3,0,0,0,0,0,0,0
0310   3480               M               retlw  (1&&(3&1))<<7   | (1&&(0&1))<<6   | (1&&(0&1))<<5   | (1&&(0&1))<<4   | (1&&(0&1))<
                            <3   | (1&&(0&1))<<2   | (1&&(0&1))<<1   | (1&&(0&1))<<0
0311   3480               M               retlw  (1&&(3&2))<<7   | (1&&(0&2))<<6   | (1&&(0&2))<<5   | (1&&(0&2))<<4   | (1&&(0&2))<
                            <3   | (1&&(0&2))<<2   | (1&&(0&2))<<1   | (1&&(0&2))<<0
                      00244               hold 2
                          M               if (1>2)        || (2>254)
                          M                error "Hold value in sequence data is out of range. Must be between 1 and 254."    
                          M               endif
0312   3402               M               retlw  2
                      00245               sdat 0,3,0,0,0,0,0,0
0313   3440               M               retlw  (1&&(0&1))<<7   | (1&&(3&1))<<6   | (1&&(0&1))<<5   | (1&&(0&1))<<4   | (1&&(0&1))<
                            <3   | (1&&(0&1))<<2   | (1&&(0&1))<<1   | (1&&(0&1))<<0
0314   3440               M               retlw  (1&&(0&2))<<7   | (1&&(3&2))<<6   | (1&&(0&2))<<5   | (1&&(0&2))<<4   | (1&&(0&2))<
                            <3   | (1&&(0&2))<<2   | (1&&(0&2))<<1   | (1&&(0&2))<<0
                      00246               hold 2
                          M               if (1>2)        || (2>254)
                          M                error "Hold value in sequence data is out of range. Must be between 1 and 254."    
                          M               endif
0315   3402               M               retlw  2
                      00247               sdat 0,0,3,0,0,0,0,0
0316   3420               M               retlw  (1&&(0&1))<<7   | (1&&(0&1))<<6   | (1&&(3&1))<<5   | (1&&(0&1))<<4   | (1&&(0&1))<
                            <3   | (1&&(0&1))<<2   | (1&&(0&1))<<1   | (1&&(0&1))<<0
0317   3420               M               retlw  (1&&(0&2))<<7   | (1&&(0&2))<<6   | (1&&(3&2))<<5   | (1&&(0&2))<<4   | (1&&(0&2))<
                            <3   | (1&&(0&2))<<2   | (1&&(0&2))<<1   | (1&&(0&2))<<0
                      00248               hold 2
                          M               if (1>2)        || (2>254)
                          M                error "Hold value in sequence data is out of range. Must be between 1 and 254."    
                          M               endif
0318   3402               M               retlw  2
                      00249               sdat 0,0,0,3,0,0,0,0
0319   3410               M               retlw  (1&&(0&1))<<7   | (1&&(0&1))<<6   | (1&&(0&1))<<5   | (1&&(3&1))<<4   | (1&&(0&1))<
                            <3   | (1&&(0&1))<<2   | (1&&(0&1))<<1   | (1&&(0&1))<<0
031A   3410               M               retlw  (1&&(0&2))<<7   | (1&&(0&2))<<6   | (1&&(0&2))<<5   | (1&&(3&2))<<4   | (1&&(0&2))<
                            <3   | (1&&(0&2))<<2   | (1&&(0&2))<<1   | (1&&(0&2))<<0
                      00250               hold 2
                          M               if (1>2)        || (2>254)
                          M                error "Hold value in sequence data is out of range. Must be between 1 and 254."    
                          M               endif
031B   3402               M               retlw  2
                      00251               sdat 0,0,0,0,3,0,0,0
031C   3408               M               retlw  (1&&(0&1))<<7   | (1&&(0&1))<<6   | (1&&(0&1))<<5   | (1&&(0&1))<<4   | (1&&(3&1))<
                            <3   | (1&&(0&1))<<2   | (1&&(0&1))<<1   | (1&&(0&1))<<0
031D   3408               M               retlw  (1&&(0&2))<<7   | (1&&(0&2))<<6   | (1&&(0&2))<<5   | (1&&(0&2))<<4   | (1&&(3&2))<
                            <3   | (1&&(0&2))<<2   | (1&&(0&2))<<1   | (1&&(0&2))<<0
                      00252               hold 2
                          M               if (1>2)        || (2>254)
                          M                error "Hold value in sequence data is out of range. Must be between 1 and 254."    
                          M               endif
031E   3402               M               retlw  2
                      00253               sdat 0,0,0,0,0,3,0,0
031F   3404               M               retlw  (1&&(0&1))<<7   | (1&&(0&1))<<6   | (1&&(0&1))<<5   | (1&&(0&1))<<4   | (1&&(0&1))<
MPASM  5.43                  PWMC_MAIN107.ASM   3-28-2012  11:36:08         PAGE 44


LOC  OBJECT CODE     LINE SOURCE TEXT
  VALUE

                            <3   | (1&&(3&1))<<2   | (1&&(0&1))<<1   | (1&&(0&1))<<0
0320   3404               M               retlw  (1&&(0&2))<<7   | (1&&(0&2))<<6   | (1&&(0&2))<<5   | (1&&(0&2))<<4   | (1&&(0&2))<
                            <3   | (1&&(3&2))<<2   | (1&&(0&2))<<1   | (1&&(0&2))<<0
                      00254               hold 2
                          M               if (1>2)        || (2>254)
                          M                error "Hold value in sequence data is out of range. Must be between 1 and 254."    
                          M               endif
0321   3402               M               retlw  2
                      00255               sdat 0,0,0,0,0,0,3,0
0322   3402               M               retlw  (1&&(0&1))<<7   | (1&&(0&1))<<6   | (1&&(0&1))<<5   | (1&&(0&1))<<4   | (1&&(0&1))<
                            <3   | (1&&(0&1))<<2   | (1&&(3&1))<<1   | (1&&(0&1))<<0
0323   3402               M               retlw  (1&&(0&2))<<7   | (1&&(0&2))<<6   | (1&&(0&2))<<5   | (1&&(0&2))<<4   | (1&&(0&2))<
                            <3   | (1&&(0&2))<<2   | (1&&(3&2))<<1   | (1&&(0&2))<<0
                      00256               hold 2
                          M               if (1>2)        || (2>254)
                          M                error "Hold value in sequence data is out of range. Must be between 1 and 254."    
                          M               endif
0324   3402               M               retlw  2
                      00257               sdat 0,0,0,0,0,0,0,3
0325   3401               M               retlw  (1&&(0&1))<<7   | (1&&(0&1))<<6   | (1&&(0&1))<<5   | (1&&(0&1))<<4   | (1&&(0&1))<
                            <3   | (1&&(0&1))<<2   | (1&&(0&1))<<1   | (1&&(3&1))<<0
0326   3401               M               retlw  (1&&(0&2))<<7   | (1&&(0&2))<<6   | (1&&(0&2))<<5   | (1&&(0&2))<<4   | (1&&(0&2))<
                            <3   | (1&&(0&2))<<2   | (1&&(0&2))<<1   | (1&&(3&2))<<0
                      00258 
                      00259               hold 2
                          M               if (1>2)        || (2>254)
                          M                error "Hold value in sequence data is out of range. Must be between 1 and 254."    
                          M               endif
0327   3402               M               retlw  2
                      00260               sdat 3,0,0,0,0,0,0,0
0328   3480               M               retlw  (1&&(3&1))<<7   | (1&&(0&1))<<6   | (1&&(0&1))<<5   | (1&&(0&1))<<4   | (1&&(0&1))<
                            <3   | (1&&(0&1))<<2   | (1&&(0&1))<<1   | (1&&(0&1))<<0
0329   3480               M               retlw  (1&&(3&2))<<7   | (1&&(0&2))<<6   | (1&&(0&2))<<5   | (1&&(0&2))<<4   | (1&&(0&2))<
                            <3   | (1&&(0&2))<<2   | (1&&(0&2))<<1   | (1&&(0&2))<<0
                      00261               hold 2
                          M               if (1>2)        || (2>254)
                          M                error "Hold value in sequence data is out of range. Must be between 1 and 254."    
                          M               endif
032A   3402               M               retlw  2
                      00262               sdat 2,3,0,0,0,0,0,0
032B   3440               M               retlw  (1&&(2&1))<<7   | (1&&(3&1))<<6   | (1&&(0&1))<<5   | (1&&(0&1))<<4   | (1&&(0&1))<
                            <3   | (1&&(0&1))<<2   | (1&&(0&1))<<1   | (1&&(0&1))<<0
032C   34C0               M               retlw  (1&&(2&2))<<7   | (1&&(3&2))<<6   | (1&&(0&2))<<5   | (1&&(0&2))<<4   | (1&&(0&2))<
                            <3   | (1&&(0&2))<<2   | (1&&(0&2))<<1   | (1&&(0&2))<<0
                      00263               hold 2
                          M               if (1>2)        || (2>254)
                          M                error "Hold value in sequence data is out of range. Must be between 1 and 254."    
                          M               endif
032D   3402               M               retlw  2
                      00264               sdat 1,2,3,0,0,0,0,0
032E   34A0               M               retlw  (1&&(1&1))<<7   | (1&&(2&1))<<6   | (1&&(3&1))<<5   | (1&&(0&1))<<4   | (1&&(0&1))<
                            <3   | (1&&(0&1))<<2   | (1&&(0&1))<<1   | (1&&(0&1))<<0
032F   3460               M               retlw  (1&&(1&2))<<7   | (1&&(2&2))<<6   | (1&&(3&2))<<5   | (1&&(0&2))<<4   | (1&&(0&2))<
MPASM  5.43                  PWMC_MAIN107.ASM   3-28-2012  11:36:08         PAGE 45


LOC  OBJECT CODE     LINE SOURCE TEXT
  VALUE

                            <3   | (1&&(0&2))<<2   | (1&&(0&2))<<1   | (1&&(0&2))<<0
                      00265               hold 2
                          M               if (1>2)        || (2>254)
                          M                error "Hold value in sequence data is out of range. Must be between 1 and 254."    
                          M               endif
0330   3402               M               retlw  2
                      00266               sdat 0,1,2,3,0,0,0,0
0331   3450               M               retlw  (1&&(0&1))<<7   | (1&&(1&1))<<6   | (1&&(2&1))<<5   | (1&&(3&1))<<4   | (1&&(0&1))<
                            <3   | (1&&(0&1))<<2   | (1&&(0&1))<<1   | (1&&(0&1))<<0
0332   3430               M               retlw  (1&&(0&2))<<7   | (1&&(1&2))<<6   | (1&&(2&2))<<5   | (1&&(3&2))<<4   | (1&&(0&2))<
                            <3   | (1&&(0&2))<<2   | (1&&(0&2))<<1   | (1&&(0&2))<<0
                      00267               hold 5
                          M               if (1>5)        || (5>254)
                          M                error "Hold value in sequence data is out of range. Must be between 1 and 254."    
                          M               endif
0333   3405               M               retlw  5
                      00268               sdat 0,0,1,2,3,0,0,0
0334   3428               M               retlw  (1&&(0&1))<<7   | (1&&(0&1))<<6   | (1&&(1&1))<<5   | (1&&(2&1))<<4   | (1&&(3&1))<
                            <3   | (1&&(0&1))<<2   | (1&&(0&1))<<1   | (1&&(0&1))<<0
0335   3418               M               retlw  (1&&(0&2))<<7   | (1&&(0&2))<<6   | (1&&(1&2))<<5   | (1&&(2&2))<<4   | (1&&(3&2))<
                            <3   | (1&&(0&2))<<2   | (1&&(0&2))<<1   | (1&&(0&2))<<0
                      00269               hold 7
                          M               if (1>7)        || (7>254)
                          M                error "Hold value in sequence data is out of range. Must be between 1 and 254."    
                          M               endif
0336   3407               M               retlw  7
                      00270               sdat 0,0,0,1,2,3,0,0
0337   3414               M               retlw  (1&&(0&1))<<7   | (1&&(0&1))<<6   | (1&&(0&1))<<5   | (1&&(1&1))<<4   | (1&&(2&1))<
                            <3   | (1&&(3&1))<<2   | (1&&(0&1))<<1   | (1&&(0&1))<<0
0338   340C               M               retlw  (1&&(0&2))<<7   | (1&&(0&2))<<6   | (1&&(0&2))<<5   | (1&&(1&2))<<4   | (1&&(2&2))<
                            <3   | (1&&(3&2))<<2   | (1&&(0&2))<<1   | (1&&(0&2))<<0
                      00271               hold 9
                          M               if (1>9)        || (9>254)
                          M                error "Hold value in sequence data is out of range. Must be between 1 and 254."    
                          M               endif
0339   3409               M               retlw  9
                      00272               sdat 0,0,0,0,1,2,3,0
033A   340A               M               retlw  (1&&(0&1))<<7   | (1&&(0&1))<<6   | (1&&(0&1))<<5   | (1&&(0&1))<<4   | (1&&(1&1))<
                            <3   | (1&&(2&1))<<2   | (1&&(3&1))<<1   | (1&&(0&1))<<0
033B   3406               M               retlw  (1&&(0&2))<<7   | (1&&(0&2))<<6   | (1&&(0&2))<<5   | (1&&(0&2))<<4   | (1&&(1&2))<
                            <3   | (1&&(2&2))<<2   | (1&&(3&2))<<1   | (1&&(0&2))<<0
                      00273               hold 11
                          M               if (1>11)       || (11>254)
                          M                error "Hold value in sequence data is out of range. Must be between 1 and 254."    
                          M               endif
033C   340B               M               retlw  11
                      00274               sdat 0,0,0,0,0,1,2,3
033D   3405               M               retlw  (1&&(0&1))<<7   | (1&&(0&1))<<6   | (1&&(0&1))<<5   | (1&&(0&1))<<4   | (1&&(0&1))<
                            <3   | (1&&(1&1))<<2   | (1&&(2&1))<<1   | (1&&(3&1))<<0
033E   3403               M               retlw  (1&&(0&2))<<7   | (1&&(0&2))<<6   | (1&&(0&2))<<5   | (1&&(0&2))<<4   | (1&&(0&2))<
                            <3   | (1&&(1&2))<<2   | (1&&(2&2))<<1   | (1&&(3&2))<<0
                      00275               hold 12
                          M               if (1>12)       || (12>254)
MPASM  5.43                  PWMC_MAIN107.ASM   3-28-2012  11:36:08         PAGE 46


LOC  OBJECT CODE     LINE SOURCE TEXT
  VALUE

                          M                error "Hold value in sequence data is out of range. Must be between 1 and 254."    
                          M               endif
033F   340C               M               retlw  12
                      00276               sdat 0,0,0,0,0,0,1,2
0340   3402               M               retlw  (1&&(0&1))<<7   | (1&&(0&1))<<6   | (1&&(0&1))<<5   | (1&&(0&1))<<4   | (1&&(0&1))<
                            <3   | (1&&(0&1))<<2   | (1&&(1&1))<<1   | (1&&(2&1))<<0
0341   3401               M               retlw  (1&&(0&2))<<7   | (1&&(0&2))<<6   | (1&&(0&2))<<5   | (1&&(0&2))<<4   | (1&&(0&2))<
                            <3   | (1&&(0&2))<<2   | (1&&(1&2))<<1   | (1&&(2&2))<<0
                      00277               hold 14
                          M               if (1>14)       || (14>254)
                          M                error "Hold value in sequence data is out of range. Must be between 1 and 254."    
                          M               endif
0342   340E               M               retlw  14
                      00278               sdat 0,0,0,0,0,0,0,1
0343   3401               M               retlw  (1&&(0&1))<<7   | (1&&(0&1))<<6   | (1&&(0&1))<<5   | (1&&(0&1))<<4   | (1&&(0&1))<
                            <3   | (1&&(0&1))<<2   | (1&&(0&1))<<1   | (1&&(1&1))<<0
0344   3400               M               retlw  (1&&(0&2))<<7   | (1&&(0&2))<<6   | (1&&(0&2))<<5   | (1&&(0&2))<<4   | (1&&(0&2))<
                            <3   | (1&&(0&2))<<2   | (1&&(0&2))<<1   | (1&&(1&2))<<0
                      00279 
                      00280               seqend
0345   34FF               M               retlw  .255
                      00281 
                      00282 ; ----------------------------------
                      00283 ; seq 08
                      00284               control 1,3
                          M               if (1>3)      || (3>31)
                          M                error "Repeat count in sequence data is out of range. Must be between 1 and 31."    
                          M               endif
0346   3443               M               retlw  (1&&1)<<6       | (3      & .31)
                      00285 
                      00286               hold 1
                          M               if (1>1)        || (1>254)
                          M                error "Hold value in sequence data is out of range. Must be between 1 and 254."    
                          M               endif
0347   3401               M               retlw  1
                      00287               sdat 3,0,0,0,0,0,0,0
0348   3480               M               retlw  (1&&(3&1))<<7   | (1&&(0&1))<<6   | (1&&(0&1))<<5   | (1&&(0&1))<<4   | (1&&(0&1))<
                            <3   | (1&&(0&1))<<2   | (1&&(0&1))<<1   | (1&&(0&1))<<0
0349   3480               M               retlw  (1&&(3&2))<<7   | (1&&(0&2))<<6   | (1&&(0&2))<<5   | (1&&(0&2))<<4   | (1&&(0&2))<
                            <3   | (1&&(0&2))<<2   | (1&&(0&2))<<1   | (1&&(0&2))<<0
                      00288               hold 1
                          M               if (1>1)        || (1>254)
                          M                error "Hold value in sequence data is out of range. Must be between 1 and 254."    
                          M               endif
034A   3401               M               retlw  1
                      00289               sdat 0,3,0,0,0,0,0,0
034B   3440               M               retlw  (1&&(0&1))<<7   | (1&&(3&1))<<6   | (1&&(0&1))<<5   | (1&&(0&1))<<4   | (1&&(0&1))<
                            <3   | (1&&(0&1))<<2   | (1&&(0&1))<<1   | (1&&(0&1))<<0
034C   3440               M               retlw  (1&&(0&2))<<7   | (1&&(3&2))<<6   | (1&&(0&2))<<5   | (1&&(0&2))<<4   | (1&&(0&2))<
                            <3   | (1&&(0&2))<<2   | (1&&(0&2))<<1   | (1&&(0&2))<<0
                      00290               hold 1
                          M               if (1>1)        || (1>254)
                          M                error "Hold value in sequence data is out of range. Must be between 1 and 254."    
MPASM  5.43                  PWMC_MAIN107.ASM   3-28-2012  11:36:08         PAGE 47


LOC  OBJECT CODE     LINE SOURCE TEXT
  VALUE

                          M               endif
034D   3401               M               retlw  1
                      00291               sdat 0,0,3,0,0,0,0,0
034E   3420               M               retlw  (1&&(0&1))<<7   | (1&&(0&1))<<6   | (1&&(3&1))<<5   | (1&&(0&1))<<4   | (1&&(0&1))<
                            <3   | (1&&(0&1))<<2   | (1&&(0&1))<<1   | (1&&(0&1))<<0
034F   3420               M               retlw  (1&&(0&2))<<7   | (1&&(0&2))<<6   | (1&&(3&2))<<5   | (1&&(0&2))<<4   | (1&&(0&2))<
                            <3   | (1&&(0&2))<<2   | (1&&(0&2))<<1   | (1&&(0&2))<<0
                      00292               hold 1
                          M               if (1>1)        || (1>254)
                          M                error "Hold value in sequence data is out of range. Must be between 1 and 254."    
                          M               endif
0350   3401               M               retlw  1
                      00293               sdat 0,0,0,3,0,0,0,0
0351   3410               M               retlw  (1&&(0&1))<<7   | (1&&(0&1))<<6   | (1&&(0&1))<<5   | (1&&(3&1))<<4   | (1&&(0&1))<
                            <3   | (1&&(0&1))<<2   | (1&&(0&1))<<1   | (1&&(0&1))<<0
0352   3410               M               retlw  (1&&(0&2))<<7   | (1&&(0&2))<<6   | (1&&(0&2))<<5   | (1&&(3&2))<<4   | (1&&(0&2))<
                            <3   | (1&&(0&2))<<2   | (1&&(0&2))<<1   | (1&&(0&2))<<0
                      00294               hold 1
                          M               if (1>1)        || (1>254)
                          M                error "Hold value in sequence data is out of range. Must be between 1 and 254."    
                          M               endif
0353   3401               M               retlw  1
                      00295               sdat 0,0,0,0,3,0,0,0
0354   3408               M               retlw  (1&&(0&1))<<7   | (1&&(0&1))<<6   | (1&&(0&1))<<5   | (1&&(0&1))<<4   | (1&&(3&1))<
                            <3   | (1&&(0&1))<<2   | (1&&(0&1))<<1   | (1&&(0&1))<<0
0355   3408               M               retlw  (1&&(0&2))<<7   | (1&&(0&2))<<6   | (1&&(0&2))<<5   | (1&&(0&2))<<4   | (1&&(3&2))<
                            <3   | (1&&(0&2))<<2   | (1&&(0&2))<<1   | (1&&(0&2))<<0
                      00296               hold 1
                          M               if (1>1)        || (1>254)
                          M                error "Hold value in sequence data is out of range. Must be between 1 and 254."    
                          M               endif
0356   3401               M               retlw  1
                      00297               sdat 0,0,0,0,0,3,0,0
0357   3404               M               retlw  (1&&(0&1))<<7   | (1&&(0&1))<<6   | (1&&(0&1))<<5   | (1&&(0&1))<<4   | (1&&(0&1))<
                            <3   | (1&&(3&1))<<2   | (1&&(0&1))<<1   | (1&&(0&1))<<0
0358   3404               M               retlw  (1&&(0&2))<<7   | (1&&(0&2))<<6   | (1&&(0&2))<<5   | (1&&(0&2))<<4   | (1&&(0&2))<
                            <3   | (1&&(3&2))<<2   | (1&&(0&2))<<1   | (1&&(0&2))<<0
                      00298               hold 1
                          M               if (1>1)        || (1>254)
                          M                error "Hold value in sequence data is out of range. Must be between 1 and 254."    
                          M               endif
0359   3401               M               retlw  1
                      00299               sdat 0,0,0,0,0,0,3,0
035A   3402               M               retlw  (1&&(0&1))<<7   | (1&&(0&1))<<6   | (1&&(0&1))<<5   | (1&&(0&1))<<4   | (1&&(0&1))<
                            <3   | (1&&(0&1))<<2   | (1&&(3&1))<<1   | (1&&(0&1))<<0
035B   3402               M               retlw  (1&&(0&2))<<7   | (1&&(0&2))<<6   | (1&&(0&2))<<5   | (1&&(0&2))<<4   | (1&&(0&2))<
                            <3   | (1&&(0&2))<<2   | (1&&(3&2))<<1   | (1&&(0&2))<<0
                      00300               hold 1
                          M               if (1>1)        || (1>254)
                          M                error "Hold value in sequence data is out of range. Must be between 1 and 254."    
                          M               endif
035C   3401               M               retlw  1
                      00301               sdat 0,0,0,0,0,0,0,3
MPASM  5.43                  PWMC_MAIN107.ASM   3-28-2012  11:36:08         PAGE 48


LOC  OBJECT CODE     LINE SOURCE TEXT
  VALUE

035D   3401               M               retlw  (1&&(0&1))<<7   | (1&&(0&1))<<6   | (1&&(0&1))<<5   | (1&&(0&1))<<4   | (1&&(0&1))<
                            <3   | (1&&(0&1))<<2   | (1&&(0&1))<<1   | (1&&(3&1))<<0
035E   3401               M               retlw  (1&&(0&2))<<7   | (1&&(0&2))<<6   | (1&&(0&2))<<5   | (1&&(0&2))<<4   | (1&&(0&2))<
                            <3   | (1&&(0&2))<<2   | (1&&(0&2))<<1   | (1&&(3&2))<<0
                      00302 
                      00303               hold 3
                          M               if (1>3)        || (3>254)
                          M                error "Hold value in sequence data is out of range. Must be between 1 and 254."    
                          M               endif
035F   3403               M               retlw  3
                      00304               sdat 0,0,0,0,0,0,3,2
0360   3402               M               retlw  (1&&(0&1))<<7   | (1&&(0&1))<<6   | (1&&(0&1))<<5   | (1&&(0&1))<<4   | (1&&(0&1))<
                            <3   | (1&&(0&1))<<2   | (1&&(3&1))<<1   | (1&&(2&1))<<0
0361   3403               M               retlw  (1&&(0&2))<<7   | (1&&(0&2))<<6   | (1&&(0&2))<<5   | (1&&(0&2))<<4   | (1&&(0&2))<
                            <3   | (1&&(0&2))<<2   | (1&&(3&2))<<1   | (1&&(2&2))<<0
                      00305               hold 4
                          M               if (1>4)        || (4>254)
                          M                error "Hold value in sequence data is out of range. Must be between 1 and 254."    
                          M               endif
0362   3404               M               retlw  4
                      00306               sdat 0,0,0,0,0,3,2,1
0363   3405               M               retlw  (1&&(0&1))<<7   | (1&&(0&1))<<6   | (1&&(0&1))<<5   | (1&&(0&1))<<4   | (1&&(0&1))<
                            <3   | (1&&(3&1))<<2   | (1&&(2&1))<<1   | (1&&(1&1))<<0
0364   3406               M               retlw  (1&&(0&2))<<7   | (1&&(0&2))<<6   | (1&&(0&2))<<5   | (1&&(0&2))<<4   | (1&&(0&2))<
                            <3   | (1&&(3&2))<<2   | (1&&(2&2))<<1   | (1&&(1&2))<<0
                      00307               hold 5
                          M               if (1>5)        || (5>254)
                          M                error "Hold value in sequence data is out of range. Must be between 1 and 254."    
                          M               endif
0365   3405               M               retlw  5
                      00308               sdat 0,0,0,0,3,2,1,1
0366   340B               M               retlw  (1&&(0&1))<<7   | (1&&(0&1))<<6   | (1&&(0&1))<<5   | (1&&(0&1))<<4   | (1&&(3&1))<
                            <3   | (1&&(2&1))<<2   | (1&&(1&1))<<1   | (1&&(1&1))<<0
0367   340C               M               retlw  (1&&(0&2))<<7   | (1&&(0&2))<<6   | (1&&(0&2))<<5   | (1&&(0&2))<<4   | (1&&(3&2))<
                            <3   | (1&&(2&2))<<2   | (1&&(1&2))<<1   | (1&&(1&2))<<0
                      00309               hold 6
                          M               if (1>6)        || (6>254)
                          M                error "Hold value in sequence data is out of range. Must be between 1 and 254."    
                          M               endif
0368   3406               M               retlw  6
                      00310               sdat 0,0,0,3,2,1,1,1
0369   3417               M               retlw  (1&&(0&1))<<7   | (1&&(0&1))<<6   | (1&&(0&1))<<5   | (1&&(3&1))<<4   | (1&&(2&1))<
                            <3   | (1&&(1&1))<<2   | (1&&(1&1))<<1   | (1&&(1&1))<<0
036A   3418               M               retlw  (1&&(0&2))<<7   | (1&&(0&2))<<6   | (1&&(0&2))<<5   | (1&&(3&2))<<4   | (1&&(2&2))<
                            <3   | (1&&(1&2))<<2   | (1&&(1&2))<<1   | (1&&(1&2))<<0
                      00311               hold 7
                          M               if (1>7)        || (7>254)
                          M                error "Hold value in sequence data is out of range. Must be between 1 and 254."    
                          M               endif
036B   3407               M               retlw  7
                      00312               sdat 0,0,3,2,1,1,1,0
036C   342E               M               retlw  (1&&(0&1))<<7   | (1&&(0&1))<<6   | (1&&(3&1))<<5   | (1&&(2&1))<<4   | (1&&(1&1))<
                            <3   | (1&&(1&1))<<2   | (1&&(1&1))<<1   | (1&&(0&1))<<0
MPASM  5.43                  PWMC_MAIN107.ASM   3-28-2012  11:36:08         PAGE 49


LOC  OBJECT CODE     LINE SOURCE TEXT
  VALUE

036D   3430               M               retlw  (1&&(0&2))<<7   | (1&&(0&2))<<6   | (1&&(3&2))<<5   | (1&&(2&2))<<4   | (1&&(1&2))<
                            <3   | (1&&(1&2))<<2   | (1&&(1&2))<<1   | (1&&(0&2))<<0
                      00313               hold 8
                          M               if (1>8)        || (8>254)
                          M                error "Hold value in sequence data is out of range. Must be between 1 and 254."    
                          M               endif
036E   3408               M               retlw  8
                      00314               sdat 0,3,2,1,1,1,0,0
036F   345C               M               retlw  (1&&(0&1))<<7   | (1&&(3&1))<<6   | (1&&(2&1))<<5   | (1&&(1&1))<<4   | (1&&(1&1))<
                            <3   | (1&&(1&1))<<2   | (1&&(0&1))<<1   | (1&&(0&1))<<0
0370   3460               M               retlw  (1&&(0&2))<<7   | (1&&(3&2))<<6   | (1&&(2&2))<<5   | (1&&(1&2))<<4   | (1&&(1&2))<
                            <3   | (1&&(1&2))<<2   | (1&&(0&2))<<1   | (1&&(0&2))<<0
                      00315               hold 9
                          M               if (1>9)        || (9>254)
                          M                error "Hold value in sequence data is out of range. Must be between 1 and 254."    
                          M               endif
0371   3409               M               retlw  9
                      00316               sdat 3,2,1,1,1,0,0,0
0372   34B8               M               retlw  (1&&(3&1))<<7   | (1&&(2&1))<<6   | (1&&(1&1))<<5   | (1&&(1&1))<<4   | (1&&(1&1))<
                            <3   | (1&&(0&1))<<2   | (1&&(0&1))<<1   | (1&&(0&1))<<0
0373   34C0               M               retlw  (1&&(3&2))<<7   | (1&&(2&2))<<6   | (1&&(1&2))<<5   | (1&&(1&2))<<4   | (1&&(1&2))<
                            <3   | (1&&(0&2))<<2   | (1&&(0&2))<<1   | (1&&(0&2))<<0
                      00317               hold 10
                          M               if (1>10)       || (10>254)
                          M                error "Hold value in sequence data is out of range. Must be between 1 and 254."    
                          M               endif
0374   340A               M               retlw  10
                      00318               sdat 2,1,1,0,0,0,0,0
0375   3460               M               retlw  (1&&(2&1))<<7   | (1&&(1&1))<<6   | (1&&(1&1))<<5   | (1&&(0&1))<<4   | (1&&(0&1))<
                            <3   | (1&&(0&1))<<2   | (1&&(0&1))<<1   | (1&&(0&1))<<0
0376   3480               M               retlw  (1&&(2&2))<<7   | (1&&(1&2))<<6   | (1&&(1&2))<<5   | (1&&(0&2))<<4   | (1&&(0&2))<
                            <3   | (1&&(0&2))<<2   | (1&&(0&2))<<1   | (1&&(0&2))<<0
                      00319               hold 11
                          M               if (1>11)       || (11>254)
                          M                error "Hold value in sequence data is out of range. Must be between 1 and 254."    
                          M               endif
0377   340B               M               retlw  11
                      00320               sdat 1,0,0,0,0,0,0,0
0378   3480               M               retlw  (1&&(1&1))<<7   | (1&&(0&1))<<6   | (1&&(0&1))<<5   | (1&&(0&1))<<4   | (1&&(0&1))<
                            <3   | (1&&(0&1))<<2   | (1&&(0&1))<<1   | (1&&(0&1))<<0
0379   3400               M               retlw  (1&&(1&2))<<7   | (1&&(0&2))<<6   | (1&&(0&2))<<5   | (1&&(0&2))<<4   | (1&&(0&2))<
                            <3   | (1&&(0&2))<<2   | (1&&(0&2))<<1   | (1&&(0&2))<<0
                      00321               hold 12
                          M               if (1>12)       || (12>254)
                          M                error "Hold value in sequence data is out of range. Must be between 1 and 254."    
                          M               endif
037A   340C               M               retlw  12
                      00322               sdat 0,0,0,0,0,0,0,0
037B   3400               M               retlw  (1&&(0&1))<<7   | (1&&(0&1))<<6   | (1&&(0&1))<<5   | (1&&(0&1))<<4   | (1&&(0&1))<
                            <3   | (1&&(0&1))<<2   | (1&&(0&1))<<1   | (1&&(0&1))<<0
037C   3400               M               retlw  (1&&(0&2))<<7   | (1&&(0&2))<<6   | (1&&(0&2))<<5   | (1&&(0&2))<<4   | (1&&(0&2))<
                            <3   | (1&&(0&2))<<2   | (1&&(0&2))<<1   | (1&&(0&2))<<0
                      00323 
MPASM  5.43                  PWMC_MAIN107.ASM   3-28-2012  11:36:08         PAGE 50


LOC  OBJECT CODE     LINE SOURCE TEXT
  VALUE

                      00324               seqend
037D   34FF               M               retlw  .255
                      00325 
                      00326 ; ----------------------------------
                      00327 ; seq 09
                      00328               control 1,8
                          M               if (1>8)      || (8>31)
                          M                error "Repeat count in sequence data is out of range. Must be between 1 and 31."    
                          M               endif
037E   3448               M               retlw  (1&&1)<<6       | (8      & .31)
                      00329 
                      00330               hold 8
                          M               if (1>8)        || (8>254)
                          M                error "Hold value in sequence data is out of range. Must be between 1 and 254."    
                          M               endif
037F   3408               M               retlw  8
                      00331               sdat 3,0,0,0,0,0,1,2
0380   3482               M               retlw  (1&&(3&1))<<7   | (1&&(0&1))<<6   | (1&&(0&1))<<5   | (1&&(0&1))<<4   | (1&&(0&1))<
                            <3   | (1&&(0&1))<<2   | (1&&(1&1))<<1   | (1&&(2&1))<<0
0381   3481               M               retlw  (1&&(3&2))<<7   | (1&&(0&2))<<6   | (1&&(0&2))<<5   | (1&&(0&2))<<4   | (1&&(0&2))<
                            <3   | (1&&(0&2))<<2   | (1&&(1&2))<<1   | (1&&(2&2))<<0
                      00332               hold 8
                          M               if (1>8)        || (8>254)
                          M                error "Hold value in sequence data is out of range. Must be between 1 and 254."    
                          M               endif
0382   3408               M               retlw  8
                      00333               sdat 2,3,0,0,0,0,0,1
0383   3441               M               retlw  (1&&(2&1))<<7   | (1&&(3&1))<<6   | (1&&(0&1))<<5   | (1&&(0&1))<<4   | (1&&(0&1))<
                            <3   | (1&&(0&1))<<2   | (1&&(0&1))<<1   | (1&&(1&1))<<0
0384   34C0               M               retlw  (1&&(2&2))<<7   | (1&&(3&2))<<6   | (1&&(0&2))<<5   | (1&&(0&2))<<4   | (1&&(0&2))<
                            <3   | (1&&(0&2))<<2   | (1&&(0&2))<<1   | (1&&(1&2))<<0
                      00334               hold 8
                          M               if (1>8)        || (8>254)
                          M                error "Hold value in sequence data is out of range. Must be between 1 and 254."    
                          M               endif
0385   3408               M               retlw  8
                      00335               sdat 1,2,3,0,0,0,0,0
0386   34A0               M               retlw  (1&&(1&1))<<7   | (1&&(2&1))<<6   | (1&&(3&1))<<5   | (1&&(0&1))<<4   | (1&&(0&1))<
                            <3   | (1&&(0&1))<<2   | (1&&(0&1))<<1   | (1&&(0&1))<<0
0387   3460               M               retlw  (1&&(1&2))<<7   | (1&&(2&2))<<6   | (1&&(3&2))<<5   | (1&&(0&2))<<4   | (1&&(0&2))<
                            <3   | (1&&(0&2))<<2   | (1&&(0&2))<<1   | (1&&(0&2))<<0
                      00336               hold 8
                          M               if (1>8)        || (8>254)
                          M                error "Hold value in sequence data is out of range. Must be between 1 and 254."    
                          M               endif
0388   3408               M               retlw  8
                      00337               sdat 0,1,2,3,0,0,0,0
0389   3450               M               retlw  (1&&(0&1))<<7   | (1&&(1&1))<<6   | (1&&(2&1))<<5   | (1&&(3&1))<<4   | (1&&(0&1))<
                            <3   | (1&&(0&1))<<2   | (1&&(0&1))<<1   | (1&&(0&1))<<0
038A   3430               M               retlw  (1&&(0&2))<<7   | (1&&(1&2))<<6   | (1&&(2&2))<<5   | (1&&(3&2))<<4   | (1&&(0&2))<
                            <3   | (1&&(0&2))<<2   | (1&&(0&2))<<1   | (1&&(0&2))<<0
                      00338               hold 8
                          M               if (1>8)        || (8>254)
MPASM  5.43                  PWMC_MAIN107.ASM   3-28-2012  11:36:08         PAGE 51


LOC  OBJECT CODE     LINE SOURCE TEXT
  VALUE

                          M                error "Hold value in sequence data is out of range. Must be between 1 and 254."    
                          M               endif
038B   3408               M               retlw  8
                      00339               sdat 0,0,1,2,3,0,0,0
038C   3428               M               retlw  (1&&(0&1))<<7   | (1&&(0&1))<<6   | (1&&(1&1))<<5   | (1&&(2&1))<<4   | (1&&(3&1))<
                            <3   | (1&&(0&1))<<2   | (1&&(0&1))<<1   | (1&&(0&1))<<0
038D   3418               M               retlw  (1&&(0&2))<<7   | (1&&(0&2))<<6   | (1&&(1&2))<<5   | (1&&(2&2))<<4   | (1&&(3&2))<
                            <3   | (1&&(0&2))<<2   | (1&&(0&2))<<1   | (1&&(0&2))<<0
                      00340               hold 8
                          M               if (1>8)        || (8>254)
                          M                error "Hold value in sequence data is out of range. Must be between 1 and 254."    
                          M               endif
038E   3408               M               retlw  8
                      00341               sdat 0,0,0,1,2,3,0,0
038F   3414               M               retlw  (1&&(0&1))<<7   | (1&&(0&1))<<6   | (1&&(0&1))<<5   | (1&&(1&1))<<4   | (1&&(2&1))<
                            <3   | (1&&(3&1))<<2   | (1&&(0&1))<<1   | (1&&(0&1))<<0
0390   340C               M               retlw  (1&&(0&2))<<7   | (1&&(0&2))<<6   | (1&&(0&2))<<5   | (1&&(1&2))<<4   | (1&&(2&2))<
                            <3   | (1&&(3&2))<<2   | (1&&(0&2))<<1   | (1&&(0&2))<<0
                      00342               hold 8
                          M               if (1>8)        || (8>254)
                          M                error "Hold value in sequence data is out of range. Must be between 1 and 254."    
                          M               endif
0391   3408               M               retlw  8
                      00343               sdat 0,0,0,0,1,2,3,0
0392   340A               M               retlw  (1&&(0&1))<<7   | (1&&(0&1))<<6   | (1&&(0&1))<<5   | (1&&(0&1))<<4   | (1&&(1&1))<
                            <3   | (1&&(2&1))<<2   | (1&&(3&1))<<1   | (1&&(0&1))<<0
0393   3406               M               retlw  (1&&(0&2))<<7   | (1&&(0&2))<<6   | (1&&(0&2))<<5   | (1&&(0&2))<<4   | (1&&(1&2))<
                            <3   | (1&&(2&2))<<2   | (1&&(3&2))<<1   | (1&&(0&2))<<0
                      00344               hold 8
                          M               if (1>8)        || (8>254)
                          M                error "Hold value in sequence data is out of range. Must be between 1 and 254."    
                          M               endif
0394   3408               M               retlw  8
                      00345               sdat 0,0,0,0,0,1,2,3
0395   3405               M               retlw  (1&&(0&1))<<7   | (1&&(0&1))<<6   | (1&&(0&1))<<5   | (1&&(0&1))<<4   | (1&&(0&1))<
                            <3   | (1&&(1&1))<<2   | (1&&(2&1))<<1   | (1&&(3&1))<<0
0396   3403               M               retlw  (1&&(0&2))<<7   | (1&&(0&2))<<6   | (1&&(0&2))<<5   | (1&&(0&2))<<4   | (1&&(0&2))<
                            <3   | (1&&(1&2))<<2   | (1&&(2&2))<<1   | (1&&(3&2))<<0
                      00346 
                      00347               seqend
0397   34FF               M               retlw  .255
                      00348 
                      00349 
                      00350 ; ----------------------------------
                      00351 ; seq 10
                      00352               control 0,10
                          M               if (1>10)     || (10>31)
                          M                error "Repeat count in sequence data is out of range. Must be between 1 and 31."    
                          M               endif
0398   340A               M               retlw  (1&&0)<<6       | (10     & .31)
                      00353 
                      00354               hold 8
                          M               if (1>8)        || (8>254)
MPASM  5.43                  PWMC_MAIN107.ASM   3-28-2012  11:36:08         PAGE 52


LOC  OBJECT CODE     LINE SOURCE TEXT
  VALUE

                          M                error "Hold value in sequence data is out of range. Must be between 1 and 254."    
                          M               endif
0399   3408               M               retlw  8
                      00355               sdat 0,1,1,0,0,1,1,0
039A   3466               M               retlw  (1&&(0&1))<<7   | (1&&(1&1))<<6   | (1&&(1&1))<<5   | (1&&(0&1))<<4   | (1&&(0&1))<
                            <3   | (1&&(1&1))<<2   | (1&&(1&1))<<1   | (1&&(0&1))<<0
039B   3400               M               retlw  (1&&(0&2))<<7   | (1&&(1&2))<<6   | (1&&(1&2))<<5   | (1&&(0&2))<<4   | (1&&(0&2))<
                            <3   | (1&&(1&2))<<2   | (1&&(1&2))<<1   | (1&&(0&2))<<0
                      00356               hold 8
                          M               if (1>8)        || (8>254)
                          M                error "Hold value in sequence data is out of range. Must be between 1 and 254."    
                          M               endif
039C   3408               M               retlw  8
                      00357               sdat 1,2,2,1,1,2,2,1
039D   3499               M               retlw  (1&&(1&1))<<7   | (1&&(2&1))<<6   | (1&&(2&1))<<5   | (1&&(1&1))<<4   | (1&&(1&1))<
                            <3   | (1&&(2&1))<<2   | (1&&(2&1))<<1   | (1&&(1&1))<<0
039E   3466               M               retlw  (1&&(1&2))<<7   | (1&&(2&2))<<6   | (1&&(2&2))<<5   | (1&&(1&2))<<4   | (1&&(1&2))<
                            <3   | (1&&(2&2))<<2   | (1&&(2&2))<<1   | (1&&(1&2))<<0
                      00358               hold 8
                          M               if (1>8)        || (8>254)
                          M                error "Hold value in sequence data is out of range. Must be between 1 and 254."    
                          M               endif
039F   3408               M               retlw  8
                      00359               sdat 2,3,3,2,2,3,3,2
03A0   3466               M               retlw  (1&&(2&1))<<7   | (1&&(3&1))<<6   | (1&&(3&1))<<5   | (1&&(2&1))<<4   | (1&&(2&1))<
                            <3   | (1&&(3&1))<<2   | (1&&(3&1))<<1   | (1&&(2&1))<<0
03A1   34FF               M               retlw  (1&&(2&2))<<7   | (1&&(3&2))<<6   | (1&&(3&2))<<5   | (1&&(2&2))<<4   | (1&&(2&2))<
                            <3   | (1&&(3&2))<<2   | (1&&(3&2))<<1   | (1&&(2&2))<<0
                      00360               hold 8
                          M               if (1>8)        || (8>254)
                          M                error "Hold value in sequence data is out of range. Must be between 1 and 254."    
                          M               endif
03A2   3408               M               retlw  8
                      00361               sdat 3,2,2,3,3,2,2,3
03A3   3499               M               retlw  (1&&(3&1))<<7   | (1&&(2&1))<<6   | (1&&(2&1))<<5   | (1&&(3&1))<<4   | (1&&(3&1))<
                            <3   | (1&&(2&1))<<2   | (1&&(2&1))<<1   | (1&&(3&1))<<0
03A4   34FF               M               retlw  (1&&(3&2))<<7   | (1&&(2&2))<<6   | (1&&(2&2))<<5   | (1&&(3&2))<<4   | (1&&(3&2))<
                            <3   | (1&&(2&2))<<2   | (1&&(2&2))<<1   | (1&&(3&2))<<0
                      00362               hold 8
                          M               if (1>8)        || (8>254)
                          M                error "Hold value in sequence data is out of range. Must be between 1 and 254."    
                          M               endif
03A5   3408               M               retlw  8
                      00363               sdat 2,1,1,2,2,1,1,2
03A6   3466               M               retlw  (1&&(2&1))<<7   | (1&&(1&1))<<6   | (1&&(1&1))<<5   | (1&&(2&1))<<4   | (1&&(2&1))<
                            <3   | (1&&(1&1))<<2   | (1&&(1&1))<<1   | (1&&(2&1))<<0
03A7   3499               M               retlw  (1&&(2&2))<<7   | (1&&(1&2))<<6   | (1&&(1&2))<<5   | (1&&(2&2))<<4   | (1&&(2&2))<
                            <3   | (1&&(1&2))<<2   | (1&&(1&2))<<1   | (1&&(2&2))<<0
                      00364               hold 8
                          M               if (1>8)        || (8>254)
                          M                error "Hold value in sequence data is out of range. Must be between 1 and 254."    
                          M               endif
03A8   3408               M               retlw  8
MPASM  5.43                  PWMC_MAIN107.ASM   3-28-2012  11:36:08         PAGE 53


LOC  OBJECT CODE     LINE SOURCE TEXT
  VALUE

                      00365               sdat 1,0,0,1,1,0,0,1
03A9   3499               M               retlw  (1&&(1&1))<<7   | (1&&(0&1))<<6   | (1&&(0&1))<<5   | (1&&(1&1))<<4   | (1&&(1&1))<
                            <3   | (1&&(0&1))<<2   | (1&&(0&1))<<1   | (1&&(1&1))<<0
03AA   3400               M               retlw  (1&&(1&2))<<7   | (1&&(0&2))<<6   | (1&&(0&2))<<5   | (1&&(1&2))<<4   | (1&&(1&2))<
                            <3   | (1&&(0&2))<<2   | (1&&(0&2))<<1   | (1&&(1&2))<<0
                      00366               
                      00367               seqend
03AB   34FF               M               retlw  .255
                      00368               
                      00369 
                      00370 ; ----------------------------------
                      00371 ; seq 11
                      00372               control 0,14
                          M               if (1>14)     || (14>31)
                          M                error "Repeat count in sequence data is out of range. Must be between 1 and 31."    
                          M               endif
03AC   340E               M               retlw  (1&&0)<<6       | (14     & .31)
                      00373 
                      00374               hold 7
                          M               if (1>7)        || (7>254)
                          M                error "Hold value in sequence data is out of range. Must be between 1 and 254."    
                          M               endif
03AD   3407               M               retlw  7
                      00375               sdat 1,0,0,0,0,0,0,1
03AE   3481               M               retlw  (1&&(1&1))<<7   | (1&&(0&1))<<6   | (1&&(0&1))<<5   | (1&&(0&1))<<4   | (1&&(0&1))<
                            <3   | (1&&(0&1))<<2   | (1&&(0&1))<<1   | (1&&(1&1))<<0
03AF   3400               M               retlw  (1&&(1&2))<<7   | (1&&(0&2))<<6   | (1&&(0&2))<<5   | (1&&(0&2))<<4   | (1&&(0&2))<
                            <3   | (1&&(0&2))<<2   | (1&&(0&2))<<1   | (1&&(1&2))<<0
                      00376               hold 7
                          M               if (1>7)        || (7>254)
                          M                error "Hold value in sequence data is out of range. Must be between 1 and 254."    
                          M               endif
03B0   3407               M               retlw  7
                      00377               sdat 2,1,0,0,0,0,2,1
03B1   3441               M               retlw  (1&&(2&1))<<7   | (1&&(1&1))<<6   | (1&&(0&1))<<5   | (1&&(0&1))<<4   | (1&&(0&1))<
                            <3   | (1&&(0&1))<<2   | (1&&(2&1))<<1   | (1&&(1&1))<<0
03B2   3482               M               retlw  (1&&(2&2))<<7   | (1&&(1&2))<<6   | (1&&(0&2))<<5   | (1&&(0&2))<<4   | (1&&(0&2))<
                            <3   | (1&&(0&2))<<2   | (1&&(2&2))<<1   | (1&&(1&2))<<0
                      00378               hold 7
                          M               if (1>7)        || (7>254)
                          M                error "Hold value in sequence data is out of range. Must be between 1 and 254."    
                          M               endif
03B3   3407               M               retlw  7
                      00379               sdat 3,2,1,0,0,1,2,3
03B4   34A5               M               retlw  (1&&(3&1))<<7   | (1&&(2&1))<<6   | (1&&(1&1))<<5   | (1&&(0&1))<<4   | (1&&(0&1))<
                            <3   | (1&&(1&1))<<2   | (1&&(2&1))<<1   | (1&&(3&1))<<0
03B5   34C3               M               retlw  (1&&(3&2))<<7   | (1&&(2&2))<<6   | (1&&(1&2))<<5   | (1&&(0&2))<<4   | (1&&(0&2))<
                            <3   | (1&&(1&2))<<2   | (1&&(2&2))<<1   | (1&&(3&2))<<0
                      00380               hold 7
                          M               if (1>7)        || (7>254)
                          M                error "Hold value in sequence data is out of range. Must be between 1 and 254."    
                          M               endif
03B6   3407               M               retlw  7
MPASM  5.43                  PWMC_MAIN107.ASM   3-28-2012  11:36:08         PAGE 54


LOC  OBJECT CODE     LINE SOURCE TEXT
  VALUE

                      00381               sdat 2,3,2,1,1,2,3,2
03B7   345A               M               retlw  (1&&(2&1))<<7   | (1&&(3&1))<<6   | (1&&(2&1))<<5   | (1&&(1&1))<<4   | (1&&(1&1))<
                            <3   | (1&&(2&1))<<2   | (1&&(3&1))<<1   | (1&&(2&1))<<0
03B8   34E7               M               retlw  (1&&(2&2))<<7   | (1&&(3&2))<<6   | (1&&(2&2))<<5   | (1&&(1&2))<<4   | (1&&(1&2))<
                            <3   | (1&&(2&2))<<2   | (1&&(3&2))<<1   | (1&&(2&2))<<0
                      00382               hold 7
                          M               if (1>7)        || (7>254)
                          M                error "Hold value in sequence data is out of range. Must be between 1 and 254."    
                          M               endif
03B9   3407               M               retlw  7
                      00383               sdat 1,2,3,2,2,3,2,1
03BA   34A5               M               retlw  (1&&(1&1))<<7   | (1&&(2&1))<<6   | (1&&(3&1))<<5   | (1&&(2&1))<<4   | (1&&(2&1))<
                            <3   | (1&&(3&1))<<2   | (1&&(2&1))<<1   | (1&&(1&1))<<0
03BB   347E               M               retlw  (1&&(1&2))<<7   | (1&&(2&2))<<6   | (1&&(3&2))<<5   | (1&&(2&2))<<4   | (1&&(2&2))<
                            <3   | (1&&(3&2))<<2   | (1&&(2&2))<<1   | (1&&(1&2))<<0
                      00384               hold 7
                          M               if (1>7)        || (7>254)
                          M                error "Hold value in sequence data is out of range. Must be between 1 and 254."    
                          M               endif
03BC   3407               M               retlw  7
                      00385               sdat 0,1,2,3,3,2,1,0
03BD   345A               M               retlw  (1&&(0&1))<<7   | (1&&(1&1))<<6   | (1&&(2&1))<<5   | (1&&(3&1))<<4   | (1&&(3&1))<
                            <3   | (1&&(2&1))<<2   | (1&&(1&1))<<1   | (1&&(0&1))<<0
03BE   343C               M               retlw  (1&&(0&2))<<7   | (1&&(1&2))<<6   | (1&&(2&2))<<5   | (1&&(3&2))<<4   | (1&&(3&2))<
                            <3   | (1&&(2&2))<<2   | (1&&(1&2))<<1   | (1&&(0&2))<<0
                      00386               hold 7
                          M               if (1>7)        || (7>254)
                          M                error "Hold value in sequence data is out of range. Must be between 1 and 254."    
                          M               endif
03BF   3407               M               retlw  7
                      00387               sdat 0,0,1,2,2,1,0,0
03C0   3424               M               retlw  (1&&(0&1))<<7   | (1&&(0&1))<<6   | (1&&(1&1))<<5   | (1&&(2&1))<<4   | (1&&(2&1))<
                            <3   | (1&&(1&1))<<2   | (1&&(0&1))<<1   | (1&&(0&1))<<0
03C1   3418               M               retlw  (1&&(0&2))<<7   | (1&&(0&2))<<6   | (1&&(1&2))<<5   | (1&&(2&2))<<4   | (1&&(2&2))<
                            <3   | (1&&(1&2))<<2   | (1&&(0&2))<<1   | (1&&(0&2))<<0
                      00388               hold 7
                          M               if (1>7)        || (7>254)
                          M                error "Hold value in sequence data is out of range. Must be between 1 and 254."    
                          M               endif
03C2   3407               M               retlw  7
                      00389               sdat 0,0,0,1,1,0,0,0
03C3   3418               M               retlw  (1&&(0&1))<<7   | (1&&(0&1))<<6   | (1&&(0&1))<<5   | (1&&(1&1))<<4   | (1&&(1&1))<
                            <3   | (1&&(0&1))<<2   | (1&&(0&1))<<1   | (1&&(0&1))<<0
03C4   3400               M               retlw  (1&&(0&2))<<7   | (1&&(0&2))<<6   | (1&&(0&2))<<5   | (1&&(1&2))<<4   | (1&&(1&2))<
                            <3   | (1&&(0&2))<<2   | (1&&(0&2))<<1   | (1&&(0&2))<<0
                      00390               hold 7
                          M               if (1>7)        || (7>254)
                          M                error "Hold value in sequence data is out of range. Must be between 1 and 254."    
                          M               endif
03C5   3407               M               retlw  7
                      00391               sdat 0,0,0,0,0,0,0,0
03C6   3400               M               retlw  (1&&(0&1))<<7   | (1&&(0&1))<<6   | (1&&(0&1))<<5   | (1&&(0&1))<<4   | (1&&(0&1))<
                            <3   | (1&&(0&1))<<2   | (1&&(0&1))<<1   | (1&&(0&1))<<0
MPASM  5.43                  PWMC_MAIN107.ASM   3-28-2012  11:36:08         PAGE 55


LOC  OBJECT CODE     LINE SOURCE TEXT
  VALUE

03C7   3400               M               retlw  (1&&(0&2))<<7   | (1&&(0&2))<<6   | (1&&(0&2))<<5   | (1&&(0&2))<<4   | (1&&(0&2))<
                            <3   | (1&&(0&2))<<2   | (1&&(0&2))<<1   | (1&&(0&2))<<0
                      00392               
                      00393 
                      00394               seqend
03C8   34FF               M               retlw  .255
                      00395 ; ----------------------------------
                      00396 ; seq 12
                      00397 
                      00398               control 0,10
                          M               if (1>10)     || (10>31)
                          M                error "Repeat count in sequence data is out of range. Must be between 1 and 31."    
                          M               endif
03C9   340A               M               retlw  (1&&0)<<6       | (10     & .31)
                      00399 
                      00400               hold 8
                          M               if (1>8)        || (8>254)
                          M                error "Hold value in sequence data is out of range. Must be between 1 and 254."    
                          M               endif
03CA   3408               M               retlw  8
                      00401               sdat 2,2,0,0,2,2,0,0
03CB   3400               M               retlw  (1&&(2&1))<<7   | (1&&(2&1))<<6   | (1&&(0&1))<<5   | (1&&(0&1))<<4   | (1&&(2&1))<
                            <3   | (1&&(2&1))<<2   | (1&&(0&1))<<1   | (1&&(0&1))<<0
03CC   34CC               M               retlw  (1&&(2&2))<<7   | (1&&(2&2))<<6   | (1&&(0&2))<<5   | (1&&(0&2))<<4   | (1&&(2&2))<
                            <3   | (1&&(2&2))<<2   | (1&&(0&2))<<1   | (1&&(0&2))<<0
                      00402               hold 8
                          M               if (1>8)        || (8>254)
                          M                error "Hold value in sequence data is out of range. Must be between 1 and 254."    
                          M               endif
03CD   3408               M               retlw  8
                      00403               sdat 0,2,2,0,0,2,2,0
03CE   3400               M               retlw  (1&&(0&1))<<7   | (1&&(2&1))<<6   | (1&&(2&1))<<5   | (1&&(0&1))<<4   | (1&&(0&1))<
                            <3   | (1&&(2&1))<<2   | (1&&(2&1))<<1   | (1&&(0&1))<<0
03CF   3466               M               retlw  (1&&(0&2))<<7   | (1&&(2&2))<<6   | (1&&(2&2))<<5   | (1&&(0&2))<<4   | (1&&(0&2))<
                            <3   | (1&&(2&2))<<2   | (1&&(2&2))<<1   | (1&&(0&2))<<0
                      00404               hold 8
                          M               if (1>8)        || (8>254)
                          M                error "Hold value in sequence data is out of range. Must be between 1 and 254."    
                          M               endif
03D0   3408               M               retlw  8
                      00405               sdat 0,0,2,2,0,0,2,2
03D1   3400               M               retlw  (1&&(0&1))<<7   | (1&&(0&1))<<6   | (1&&(2&1))<<5   | (1&&(2&1))<<4   | (1&&(0&1))<
                            <3   | (1&&(0&1))<<2   | (1&&(2&1))<<1   | (1&&(2&1))<<0
03D2   3433               M               retlw  (1&&(0&2))<<7   | (1&&(0&2))<<6   | (1&&(2&2))<<5   | (1&&(2&2))<<4   | (1&&(0&2))<
                            <3   | (1&&(0&2))<<2   | (1&&(2&2))<<1   | (1&&(2&2))<<0
                      00406               hold 8
                          M               if (1>8)        || (8>254)
                          M                error "Hold value in sequence data is out of range. Must be between 1 and 254."    
                          M               endif
03D3   3408               M               retlw  8
                      00407               sdat 2,0,0,2,2,0,0,2
03D4   3400               M               retlw  (1&&(2&1))<<7   | (1&&(0&1))<<6   | (1&&(0&1))<<5   | (1&&(2&1))<<4   | (1&&(2&1))<
                            <3   | (1&&(0&1))<<2   | (1&&(0&1))<<1   | (1&&(2&1))<<0
MPASM  5.43                  PWMC_MAIN107.ASM   3-28-2012  11:36:08         PAGE 56


LOC  OBJECT CODE     LINE SOURCE TEXT
  VALUE

03D5   3499               M               retlw  (1&&(2&2))<<7   | (1&&(0&2))<<6   | (1&&(0&2))<<5   | (1&&(2&2))<<4   | (1&&(2&2))<
                            <3   | (1&&(0&2))<<2   | (1&&(0&2))<<1   | (1&&(2&2))<<0
                      00408 
                      00409               seqend
03D6   34FF               M               retlw  .255
                      00410 ; ----------------------------------
                      00411 ; seq 13
                      00412 
                      00413               control 1,4
                          M               if (1>4)      || (4>31)
                          M                error "Repeat count in sequence data is out of range. Must be between 1 and 31."    
                          M               endif
03D7   3444               M               retlw  (1&&1)<<6       | (4      & .31)
                      00414               hold 100
                          M               if (1>100)      || (100>254)
                          M                error "Hold value in sequence data is out of range. Must be between 1 and 254."    
                          M               endif
03D8   3464               M               retlw  100
                      00415               sdat 1,1,1,1,1,1,1,1
03D9   34FF               M               retlw  (1&&(1&1))<<7   | (1&&(1&1))<<6   | (1&&(1&1))<<5   | (1&&(1&1))<<4   | (1&&(1&1))<
                            <3   | (1&&(1&1))<<2   | (1&&(1&1))<<1   | (1&&(1&1))<<0
03DA   3400               M               retlw  (1&&(1&2))<<7   | (1&&(1&2))<<6   | (1&&(1&2))<<5   | (1&&(1&2))<<4   | (1&&(1&2))<
                            <3   | (1&&(1&2))<<2   | (1&&(1&2))<<1   | (1&&(1&2))<<0
                      00416               hold 20
                          M               if (1>20)       || (20>254)
                          M                error "Hold value in sequence data is out of range. Must be between 1 and 254."    
                          M               endif
03DB   3414               M               retlw  20
                      00417               sdat 2,1,1,1,1,1,1,1
03DC   347F               M               retlw  (1&&(2&1))<<7   | (1&&(1&1))<<6   | (1&&(1&1))<<5   | (1&&(1&1))<<4   | (1&&(1&1))<
                            <3   | (1&&(1&1))<<2   | (1&&(1&1))<<1   | (1&&(1&1))<<0
03DD   3480               M               retlw  (1&&(2&2))<<7   | (1&&(1&2))<<6   | (1&&(1&2))<<5   | (1&&(1&2))<<4   | (1&&(1&2))<
                            <3   | (1&&(1&2))<<2   | (1&&(1&2))<<1   | (1&&(1&2))<<0
                      00418               hold 20
                          M               if (1>20)       || (20>254)
                          M                error "Hold value in sequence data is out of range. Must be between 1 and 254."    
                          M               endif
03DE   3414               M               retlw  20
                      00419               sdat 3,1,1,1,1,1,1,1
03DF   34FF               M               retlw  (1&&(3&1))<<7   | (1&&(1&1))<<6   | (1&&(1&1))<<5   | (1&&(1&1))<<4   | (1&&(1&1))<
                            <3   | (1&&(1&1))<<2   | (1&&(1&1))<<1   | (1&&(1&1))<<0
03E0   3480               M               retlw  (1&&(3&2))<<7   | (1&&(1&2))<<6   | (1&&(1&2))<<5   | (1&&(1&2))<<4   | (1&&(1&2))<
                            <3   | (1&&(1&2))<<2   | (1&&(1&2))<<1   | (1&&(1&2))<<0
                      00420               hold 2
                          M               if (1>2)        || (2>254)
                          M                error "Hold value in sequence data is out of range. Must be between 1 and 254."    
                          M               endif
03E1   3402               M               retlw  2
                      00421               sdat 1,3,1,1,1,1,1,1
03E2   34FF               M               retlw  (1&&(1&1))<<7   | (1&&(3&1))<<6   | (1&&(1&1))<<5   | (1&&(1&1))<<4   | (1&&(1&1))<
                            <3   | (1&&(1&1))<<2   | (1&&(1&1))<<1   | (1&&(1&1))<<0
03E3   3440               M               retlw  (1&&(1&2))<<7   | (1&&(3&2))<<6   | (1&&(1&2))<<5   | (1&&(1&2))<<4   | (1&&(1&2))<
                            <3   | (1&&(1&2))<<2   | (1&&(1&2))<<1   | (1&&(1&2))<<0
MPASM  5.43                  PWMC_MAIN107.ASM   3-28-2012  11:36:08         PAGE 57


LOC  OBJECT CODE     LINE SOURCE TEXT
  VALUE

                      00422               hold 2
                          M               if (1>2)        || (2>254)
                          M                error "Hold value in sequence data is out of range. Must be between 1 and 254."    
                          M               endif
03E4   3402               M               retlw  2
                      00423               sdat 1,1,3,1,1,1,1,1
03E5   34FF               M               retlw  (1&&(1&1))<<7   | (1&&(1&1))<<6   | (1&&(3&1))<<5   | (1&&(1&1))<<4   | (1&&(1&1))<
                            <3   | (1&&(1&1))<<2   | (1&&(1&1))<<1   | (1&&(1&1))<<0
03E6   3420               M               retlw  (1&&(1&2))<<7   | (1&&(1&2))<<6   | (1&&(3&2))<<5   | (1&&(1&2))<<4   | (1&&(1&2))<
                            <3   | (1&&(1&2))<<2   | (1&&(1&2))<<1   | (1&&(1&2))<<0
                      00424               hold 2
                          M               if (1>2)        || (2>254)
                          M                error "Hold value in sequence data is out of range. Must be between 1 and 254."    
                          M               endif
03E7   3402               M               retlw  2
                      00425               sdat 1,1,1,3,1,1,1,1
03E8   34FF               M               retlw  (1&&(1&1))<<7   | (1&&(1&1))<<6   | (1&&(1&1))<<5   | (1&&(3&1))<<4   | (1&&(1&1))<
                            <3   | (1&&(1&1))<<2   | (1&&(1&1))<<1   | (1&&(1&1))<<0
03E9   3410               M               retlw  (1&&(1&2))<<7   | (1&&(1&2))<<6   | (1&&(1&2))<<5   | (1&&(3&2))<<4   | (1&&(1&2))<
                            <3   | (1&&(1&2))<<2   | (1&&(1&2))<<1   | (1&&(1&2))<<0
                      00426               hold 2
                          M               if (1>2)        || (2>254)
                          M                error "Hold value in sequence data is out of range. Must be between 1 and 254."    
                          M               endif
03EA   3402               M               retlw  2
                      00427               sdat 1,1,1,1,3,1,1,1
03EB   34FF               M               retlw  (1&&(1&1))<<7   | (1&&(1&1))<<6   | (1&&(1&1))<<5   | (1&&(1&1))<<4   | (1&&(3&1))<
                            <3   | (1&&(1&1))<<2   | (1&&(1&1))<<1   | (1&&(1&1))<<0
03EC   3408               M               retlw  (1&&(1&2))<<7   | (1&&(1&2))<<6   | (1&&(1&2))<<5   | (1&&(1&2))<<4   | (1&&(3&2))<
                            <3   | (1&&(1&2))<<2   | (1&&(1&2))<<1   | (1&&(1&2))<<0
                      00428               hold 2
                          M               if (1>2)        || (2>254)
                          M                error "Hold value in sequence data is out of range. Must be between 1 and 254."    
                          M               endif
03ED   3402               M               retlw  2
                      00429               sdat 1,1,1,1,1,3,1,1
03EE   34FF               M               retlw  (1&&(1&1))<<7   | (1&&(1&1))<<6   | (1&&(1&1))<<5   | (1&&(1&1))<<4   | (1&&(1&1))<
                            <3   | (1&&(3&1))<<2   | (1&&(1&1))<<1   | (1&&(1&1))<<0
03EF   3404               M               retlw  (1&&(1&2))<<7   | (1&&(1&2))<<6   | (1&&(1&2))<<5   | (1&&(1&2))<<4   | (1&&(1&2))<
                            <3   | (1&&(3&2))<<2   | (1&&(1&2))<<1   | (1&&(1&2))<<0
                      00430               hold 2
                          M               if (1>2)        || (2>254)
                          M                error "Hold value in sequence data is out of range. Must be between 1 and 254."    
                          M               endif
03F0   3402               M               retlw  2
                      00431               sdat 1,1,1,1,1,1,3,1
03F1   34FF               M               retlw  (1&&(1&1))<<7   | (1&&(1&1))<<6   | (1&&(1&1))<<5   | (1&&(1&1))<<4   | (1&&(1&1))<
                            <3   | (1&&(1&1))<<2   | (1&&(3&1))<<1   | (1&&(1&1))<<0
03F2   3402               M               retlw  (1&&(1&2))<<7   | (1&&(1&2))<<6   | (1&&(1&2))<<5   | (1&&(1&2))<<4   | (1&&(1&2))<
                            <3   | (1&&(1&2))<<2   | (1&&(3&2))<<1   | (1&&(1&2))<<0
                      00432               hold 2
                          M               if (1>2)        || (2>254)
                          M                error "Hold value in sequence data is out of range. Must be between 1 and 254."    
MPASM  5.43                  PWMC_MAIN107.ASM   3-28-2012  11:36:08         PAGE 58


LOC  OBJECT CODE     LINE SOURCE TEXT
  VALUE

                          M               endif
03F3   3402               M               retlw  2
                      00433               sdat 1,1,1,1,1,1,1,3
03F4   34FF               M               retlw  (1&&(1&1))<<7   | (1&&(1&1))<<6   | (1&&(1&1))<<5   | (1&&(1&1))<<4   | (1&&(1&1))<
                            <3   | (1&&(1&1))<<2   | (1&&(1&1))<<1   | (1&&(3&1))<<0
03F5   3401               M               retlw  (1&&(1&2))<<7   | (1&&(1&2))<<6   | (1&&(1&2))<<5   | (1&&(1&2))<<4   | (1&&(1&2))<
                            <3   | (1&&(1&2))<<2   | (1&&(1&2))<<1   | (1&&(3&2))<<0
                      00434 
                      00435               hold 2
                          M               if (1>2)        || (2>254)
                          M                error "Hold value in sequence data is out of range. Must be between 1 and 254."    
                          M               endif
03F6   3402               M               retlw  2
                      00436               sdat 1,1,1,1,1,1,1,1
03F7   34FF               M               retlw  (1&&(1&1))<<7   | (1&&(1&1))<<6   | (1&&(1&1))<<5   | (1&&(1&1))<<4   | (1&&(1&1))<
                            <3   | (1&&(1&1))<<2   | (1&&(1&1))<<1   | (1&&(1&1))<<0
03F8   3400               M               retlw  (1&&(1&2))<<7   | (1&&(1&2))<<6   | (1&&(1&2))<<5   | (1&&(1&2))<<4   | (1&&(1&2))<
                            <3   | (1&&(1&2))<<2   | (1&&(1&2))<<1   | (1&&(1&2))<<0
                      00437               hold 2
                          M               if (1>2)        || (2>254)
                          M                error "Hold value in sequence data is out of range. Must be between 1 and 254."    
                          M               endif
03F9   3402               M               retlw  2
                      00438               sdat 3,1,1,1,1,1,1,1
03FA   34FF               M               retlw  (1&&(3&1))<<7   | (1&&(1&1))<<6   | (1&&(1&1))<<5   | (1&&(1&1))<<4   | (1&&(1&1))<
                            <3   | (1&&(1&1))<<2   | (1&&(1&1))<<1   | (1&&(1&1))<<0
03FB   3480               M               retlw  (1&&(3&2))<<7   | (1&&(1&2))<<6   | (1&&(1&2))<<5   | (1&&(1&2))<<4   | (1&&(1&2))<
                            <3   | (1&&(1&2))<<2   | (1&&(1&2))<<1   | (1&&(1&2))<<0
                      00439               hold 2
                          M               if (1>2)        || (2>254)
                          M                error "Hold value in sequence data is out of range. Must be between 1 and 254."    
                          M               endif
03FC   3402               M               retlw  2
                      00440               sdat 1,3,1,1,1,1,1,1
03FD   34FF               M               retlw  (1&&(1&1))<<7   | (1&&(3&1))<<6   | (1&&(1&1))<<5   | (1&&(1&1))<<4   | (1&&(1&1))<
                            <3   | (1&&(1&1))<<2   | (1&&(1&1))<<1   | (1&&(1&1))<<0
03FE   3440               M               retlw  (1&&(1&2))<<7   | (1&&(3&2))<<6   | (1&&(1&2))<<5   | (1&&(1&2))<<4   | (1&&(1&2))<
                            <3   | (1&&(1&2))<<2   | (1&&(1&2))<<1   | (1&&(1&2))<<0
                      00441               hold 2
                          M               if (1>2)        || (2>254)
                          M                error "Hold value in sequence data is out of range. Must be between 1 and 254."    
                          M               endif
03FF   3402               M               retlw  2
                      00442               sdat 1,1,3,1,1,1,1,1
0400   34FF               M               retlw  (1&&(1&1))<<7   | (1&&(1&1))<<6   | (1&&(3&1))<<5   | (1&&(1&1))<<4   | (1&&(1&1))<
                            <3   | (1&&(1&1))<<2   | (1&&(1&1))<<1   | (1&&(1&1))<<0
0401   3420               M               retlw  (1&&(1&2))<<7   | (1&&(1&2))<<6   | (1&&(3&2))<<5   | (1&&(1&2))<<4   | (1&&(1&2))<
                            <3   | (1&&(1&2))<<2   | (1&&(1&2))<<1   | (1&&(1&2))<<0
                      00443               hold 2
                          M               if (1>2)        || (2>254)
                          M                error "Hold value in sequence data is out of range. Must be between 1 and 254."    
                          M               endif
0402   3402               M               retlw  2
MPASM  5.43                  PWMC_MAIN107.ASM   3-28-2012  11:36:08         PAGE 59


LOC  OBJECT CODE     LINE SOURCE TEXT
  VALUE

                      00444               sdat 1,1,1,3,1,1,1,1
0403   34FF               M               retlw  (1&&(1&1))<<7   | (1&&(1&1))<<6   | (1&&(1&1))<<5   | (1&&(3&1))<<4   | (1&&(1&1))<
                            <3   | (1&&(1&1))<<2   | (1&&(1&1))<<1   | (1&&(1&1))<<0
0404   3410               M               retlw  (1&&(1&2))<<7   | (1&&(1&2))<<6   | (1&&(1&2))<<5   | (1&&(3&2))<<4   | (1&&(1&2))<
                            <3   | (1&&(1&2))<<2   | (1&&(1&2))<<1   | (1&&(1&2))<<0
                      00445               hold 2
                          M               if (1>2)        || (2>254)
                          M                error "Hold value in sequence data is out of range. Must be between 1 and 254."    
                          M               endif
0405   3402               M               retlw  2
                      00446               sdat 1,1,1,1,3,1,1,1
0406   34FF               M               retlw  (1&&(1&1))<<7   | (1&&(1&1))<<6   | (1&&(1&1))<<5   | (1&&(1&1))<<4   | (1&&(3&1))<
                            <3   | (1&&(1&1))<<2   | (1&&(1&1))<<1   | (1&&(1&1))<<0
0407   3408               M               retlw  (1&&(1&2))<<7   | (1&&(1&2))<<6   | (1&&(1&2))<<5   | (1&&(1&2))<<4   | (1&&(3&2))<
                            <3   | (1&&(1&2))<<2   | (1&&(1&2))<<1   | (1&&(1&2))<<0
                      00447               hold 2
                          M               if (1>2)        || (2>254)
                          M                error "Hold value in sequence data is out of range. Must be between 1 and 254."    
                          M               endif
0408   3402               M               retlw  2
                      00448               sdat 1,1,1,1,1,3,1,1
0409   34FF               M               retlw  (1&&(1&1))<<7   | (1&&(1&1))<<6   | (1&&(1&1))<<5   | (1&&(1&1))<<4   | (1&&(1&1))<
                            <3   | (1&&(3&1))<<2   | (1&&(1&1))<<1   | (1&&(1&1))<<0
040A   3404               M               retlw  (1&&(1&2))<<7   | (1&&(1&2))<<6   | (1&&(1&2))<<5   | (1&&(1&2))<<4   | (1&&(1&2))<
                            <3   | (1&&(3&2))<<2   | (1&&(1&2))<<1   | (1&&(1&2))<<0
                      00449               hold 2
                          M               if (1>2)        || (2>254)
                          M                error "Hold value in sequence data is out of range. Must be between 1 and 254."    
                          M               endif
040B   3402               M               retlw  2
                      00450               sdat 1,1,1,1,1,1,3,1
040C   34FF               M               retlw  (1&&(1&1))<<7   | (1&&(1&1))<<6   | (1&&(1&1))<<5   | (1&&(1&1))<<4   | (1&&(1&1))<
                            <3   | (1&&(1&1))<<2   | (1&&(3&1))<<1   | (1&&(1&1))<<0
040D   3402               M               retlw  (1&&(1&2))<<7   | (1&&(1&2))<<6   | (1&&(1&2))<<5   | (1&&(1&2))<<4   | (1&&(1&2))<
                            <3   | (1&&(1&2))<<2   | (1&&(3&2))<<1   | (1&&(1&2))<<0
                      00451               hold 2
                          M               if (1>2)        || (2>254)
                          M                error "Hold value in sequence data is out of range. Must be between 1 and 254."    
                          M               endif
040E   3402               M               retlw  2
                      00452               sdat 1,1,1,1,1,1,1,3
040F   34FF               M               retlw  (1&&(1&1))<<7   | (1&&(1&1))<<6   | (1&&(1&1))<<5   | (1&&(1&1))<<4   | (1&&(1&1))<
                            <3   | (1&&(1&1))<<2   | (1&&(1&1))<<1   | (1&&(3&1))<<0
0410   3401               M               retlw  (1&&(1&2))<<7   | (1&&(1&2))<<6   | (1&&(1&2))<<5   | (1&&(1&2))<<4   | (1&&(1&2))<
                            <3   | (1&&(1&2))<<2   | (1&&(1&2))<<1   | (1&&(3&2))<<0
                      00453 
                      00454               seqend
0411   34FF               M               retlw  .255
                      00455 ; ----------------------------------
                      00456 ; seq 14
                      00457               control 0,4
                          M               if (1>4)      || (4>31)
                          M                error "Repeat count in sequence data is out of range. Must be between 1 and 31."    
MPASM  5.43                  PWMC_MAIN107.ASM   3-28-2012  11:36:08         PAGE 60


LOC  OBJECT CODE     LINE SOURCE TEXT
  VALUE

                          M               endif
0412   3404               M               retlw  (1&&0)<<6       | (4      & .31)
                      00458               hold 7
                          M               if (1>7)        || (7>254)
                          M                error "Hold value in sequence data is out of range. Must be between 1 and 254."    
                          M               endif
0413   3407               M               retlw  7
                      00459               sdat 1,1,2,3,3,2,1,1
0414   34DB               M               retlw  (1&&(1&1))<<7   | (1&&(1&1))<<6   | (1&&(2&1))<<5   | (1&&(3&1))<<4   | (1&&(3&1))<
                            <3   | (1&&(2&1))<<2   | (1&&(1&1))<<1   | (1&&(1&1))<<0
0415   343C               M               retlw  (1&&(1&2))<<7   | (1&&(1&2))<<6   | (1&&(2&2))<<5   | (1&&(3&2))<<4   | (1&&(3&2))<
                            <3   | (1&&(2&2))<<2   | (1&&(1&2))<<1   | (1&&(1&2))<<0
                      00460               hold 7
                          M               if (1>7)        || (7>254)
                          M                error "Hold value in sequence data is out of range. Must be between 1 and 254."    
                          M               endif
0416   3407               M               retlw  7
                      00461               sdat 1,2,3,3,2,1,1,1
0417   34B7               M               retlw  (1&&(1&1))<<7   | (1&&(2&1))<<6   | (1&&(3&1))<<5   | (1&&(3&1))<<4   | (1&&(2&1))<
                            <3   | (1&&(1&1))<<2   | (1&&(1&1))<<1   | (1&&(1&1))<<0
0418   3478               M               retlw  (1&&(1&2))<<7   | (1&&(2&2))<<6   | (1&&(3&2))<<5   | (1&&(3&2))<<4   | (1&&(2&2))<
                            <3   | (1&&(1&2))<<2   | (1&&(1&2))<<1   | (1&&(1&2))<<0
                      00462               hold 7
                          M               if (1>7)        || (7>254)
                          M                error "Hold value in sequence data is out of range. Must be between 1 and 254."    
                          M               endif
0419   3407               M               retlw  7
                      00463               sdat 2,3,3,2,1,1,1,1
041A   346F               M               retlw  (1&&(2&1))<<7   | (1&&(3&1))<<6   | (1&&(3&1))<<5   | (1&&(2&1))<<4   | (1&&(1&1))<
                            <3   | (1&&(1&1))<<2   | (1&&(1&1))<<1   | (1&&(1&1))<<0
041B   34F0               M               retlw  (1&&(2&2))<<7   | (1&&(3&2))<<6   | (1&&(3&2))<<5   | (1&&(2&2))<<4   | (1&&(1&2))<
                            <3   | (1&&(1&2))<<2   | (1&&(1&2))<<1   | (1&&(1&2))<<0
                      00464               hold 7
                          M               if (1>7)        || (7>254)
                          M                error "Hold value in sequence data is out of range. Must be between 1 and 254."    
                          M               endif
041C   3407               M               retlw  7
                      00465               sdat 1,3,2,1,1,1,1,1
041D   34DF               M               retlw  (1&&(1&1))<<7   | (1&&(3&1))<<6   | (1&&(2&1))<<5   | (1&&(1&1))<<4   | (1&&(1&1))<
                            <3   | (1&&(1&1))<<2   | (1&&(1&1))<<1   | (1&&(1&1))<<0
041E   3460               M               retlw  (1&&(1&2))<<7   | (1&&(3&2))<<6   | (1&&(2&2))<<5   | (1&&(1&2))<<4   | (1&&(1&2))<
                            <3   | (1&&(1&2))<<2   | (1&&(1&2))<<1   | (1&&(1&2))<<0
                      00466               hold 7
                          M               if (1>7)        || (7>254)
                          M                error "Hold value in sequence data is out of range. Must be between 1 and 254."    
                          M               endif
041F   3407               M               retlw  7
                      00467               sdat 2,3,3,2,1,1,1,1
0420   346F               M               retlw  (1&&(2&1))<<7   | (1&&(3&1))<<6   | (1&&(3&1))<<5   | (1&&(2&1))<<4   | (1&&(1&1))<
                            <3   | (1&&(1&1))<<2   | (1&&(1&1))<<1   | (1&&(1&1))<<0
0421   34F0               M               retlw  (1&&(2&2))<<7   | (1&&(3&2))<<6   | (1&&(3&2))<<5   | (1&&(2&2))<<4   | (1&&(1&2))<
                            <3   | (1&&(1&2))<<2   | (1&&(1&2))<<1   | (1&&(1&2))<<0
                      00468               hold 7
MPASM  5.43                  PWMC_MAIN107.ASM   3-28-2012  11:36:08         PAGE 61


LOC  OBJECT CODE     LINE SOURCE TEXT
  VALUE

                          M               if (1>7)        || (7>254)
                          M                error "Hold value in sequence data is out of range. Must be between 1 and 254."    
                          M               endif
0422   3407               M               retlw  7
                      00469               sdat 1,2,3,3,2,1,1,1
0423   34B7               M               retlw  (1&&(1&1))<<7   | (1&&(2&1))<<6   | (1&&(3&1))<<5   | (1&&(3&1))<<4   | (1&&(2&1))<
                            <3   | (1&&(1&1))<<2   | (1&&(1&1))<<1   | (1&&(1&1))<<0
0424   3478               M               retlw  (1&&(1&2))<<7   | (1&&(2&2))<<6   | (1&&(3&2))<<5   | (1&&(3&2))<<4   | (1&&(2&2))<
                            <3   | (1&&(1&2))<<2   | (1&&(1&2))<<1   | (1&&(1&2))<<0
                      00470               hold 7
                          M               if (1>7)        || (7>254)
                          M                error "Hold value in sequence data is out of range. Must be between 1 and 254."    
                          M               endif
0425   3407               M               retlw  7
                      00471               sdat 1,1,1,2,3,3,2,1
0426   34ED               M               retlw  (1&&(1&1))<<7   | (1&&(1&1))<<6   | (1&&(1&1))<<5   | (1&&(2&1))<<4   | (1&&(3&1))<
                            <3   | (1&&(3&1))<<2   | (1&&(2&1))<<1   | (1&&(1&1))<<0
0427   341E               M               retlw  (1&&(1&2))<<7   | (1&&(1&2))<<6   | (1&&(1&2))<<5   | (1&&(2&2))<<4   | (1&&(3&2))<
                            <3   | (1&&(3&2))<<2   | (1&&(2&2))<<1   | (1&&(1&2))<<0
                      00472               hold 7
                          M               if (1>7)        || (7>254)
                          M                error "Hold value in sequence data is out of range. Must be between 1 and 254."    
                          M               endif
0428   3407               M               retlw  7
                      00473               sdat 1,1,1,1,2,3,3,2
0429   34F6               M               retlw  (1&&(1&1))<<7   | (1&&(1&1))<<6   | (1&&(1&1))<<5   | (1&&(1&1))<<4   | (1&&(2&1))<
                            <3   | (1&&(3&1))<<2   | (1&&(3&1))<<1   | (1&&(2&1))<<0
042A   340F               M               retlw  (1&&(1&2))<<7   | (1&&(1&2))<<6   | (1&&(1&2))<<5   | (1&&(1&2))<<4   | (1&&(2&2))<
                            <3   | (1&&(3&2))<<2   | (1&&(3&2))<<1   | (1&&(2&2))<<0
                      00474               hold 7
                          M               if (1>7)        || (7>254)
                          M                error "Hold value in sequence data is out of range. Must be between 1 and 254."    
                          M               endif
042B   3407               M               retlw  7
                      00475               sdat 1,1,1,1,1,2,3,3
042C   34FB               M               retlw  (1&&(1&1))<<7   | (1&&(1&1))<<6   | (1&&(1&1))<<5   | (1&&(1&1))<<4   | (1&&(1&1))<
                            <3   | (1&&(2&1))<<2   | (1&&(3&1))<<1   | (1&&(3&1))<<0
042D   3407               M               retlw  (1&&(1&2))<<7   | (1&&(1&2))<<6   | (1&&(1&2))<<5   | (1&&(1&2))<<4   | (1&&(1&2))<
                            <3   | (1&&(2&2))<<2   | (1&&(3&2))<<1   | (1&&(3&2))<<0
                      00476               hold 7
                          M               if (1>7)        || (7>254)
                          M                error "Hold value in sequence data is out of range. Must be between 1 and 254."    
                          M               endif
042E   3407               M               retlw  7
                      00477               sdat 1,1,1,1,2,3,3,2
042F   34F6               M               retlw  (1&&(1&1))<<7   | (1&&(1&1))<<6   | (1&&(1&1))<<5   | (1&&(1&1))<<4   | (1&&(2&1))<
                            <3   | (1&&(3&1))<<2   | (1&&(3&1))<<1   | (1&&(2&1))<<0
0430   340F               M               retlw  (1&&(1&2))<<7   | (1&&(1&2))<<6   | (1&&(1&2))<<5   | (1&&(1&2))<<4   | (1&&(2&2))<
                            <3   | (1&&(3&2))<<2   | (1&&(3&2))<<1   | (1&&(2&2))<<0
                      00478               hold 7
                          M               if (1>7)        || (7>254)
                          M                error "Hold value in sequence data is out of range. Must be between 1 and 254."    
                          M               endif
MPASM  5.43                  PWMC_MAIN107.ASM   3-28-2012  11:36:08         PAGE 62


LOC  OBJECT CODE     LINE SOURCE TEXT
  VALUE

0431   3407               M               retlw  7
                      00479               sdat 1,1,1,2,3,3,2,1
0432   34ED               M               retlw  (1&&(1&1))<<7   | (1&&(1&1))<<6   | (1&&(1&1))<<5   | (1&&(2&1))<<4   | (1&&(3&1))<
                            <3   | (1&&(3&1))<<2   | (1&&(2&1))<<1   | (1&&(1&1))<<0
0433   341E               M               retlw  (1&&(1&2))<<7   | (1&&(1&2))<<6   | (1&&(1&2))<<5   | (1&&(2&2))<<4   | (1&&(3&2))<
                            <3   | (1&&(3&2))<<2   | (1&&(2&2))<<1   | (1&&(1&2))<<0
                      00480 
                      00481               seqend
0434   34FF               M               retlw  .255
                      00482 ; ----------------------------------
                      00483 ; seq 15
                      00484 
                      00485               control 0,4
                          M               if (1>4)      || (4>31)
                          M                error "Repeat count in sequence data is out of range. Must be between 1 and 31."    
                          M               endif
0435   3404               M               retlw  (1&&0)<<6       | (4      & .31)
                      00486               hold 7
                          M               if (1>7)        || (7>254)
                          M                error "Hold value in sequence data is out of range. Must be between 1 and 254."    
                          M               endif
0436   3407               M               retlw  7
                      00487               sdat 3,1,1,1,1,1,1,1
0437   34FF               M               retlw  (1&&(3&1))<<7   | (1&&(1&1))<<6   | (1&&(1&1))<<5   | (1&&(1&1))<<4   | (1&&(1&1))<
                            <3   | (1&&(1&1))<<2   | (1&&(1&1))<<1   | (1&&(1&1))<<0
0438   3480               M               retlw  (1&&(3&2))<<7   | (1&&(1&2))<<6   | (1&&(1&2))<<5   | (1&&(1&2))<<4   | (1&&(1&2))<
                            <3   | (1&&(1&2))<<2   | (1&&(1&2))<<1   | (1&&(1&2))<<0
                      00488               hold 7
                          M               if (1>7)        || (7>254)
                          M                error "Hold value in sequence data is out of range. Must be between 1 and 254."    
                          M               endif
0439   3407               M               retlw  7
                      00489               sdat 2,3,1,1,1,1,1,1
043A   347F               M               retlw  (1&&(2&1))<<7   | (1&&(3&1))<<6   | (1&&(1&1))<<5   | (1&&(1&1))<<4   | (1&&(1&1))<
                            <3   | (1&&(1&1))<<2   | (1&&(1&1))<<1   | (1&&(1&1))<<0
043B   34C0               M               retlw  (1&&(2&2))<<7   | (1&&(3&2))<<6   | (1&&(1&2))<<5   | (1&&(1&2))<<4   | (1&&(1&2))<
                            <3   | (1&&(1&2))<<2   | (1&&(1&2))<<1   | (1&&(1&2))<<0
                      00490               hold 7
                          M               if (1>7)        || (7>254)
                          M                error "Hold value in sequence data is out of range. Must be between 1 and 254."    
                          M               endif
043C   3407               M               retlw  7
                      00491               sdat 1,2,3,1,1,1,1,1
043D   34BF               M               retlw  (1&&(1&1))<<7   | (1&&(2&1))<<6   | (1&&(3&1))<<5   | (1&&(1&1))<<4   | (1&&(1&1))<
                            <3   | (1&&(1&1))<<2   | (1&&(1&1))<<1   | (1&&(1&1))<<0
043E   3460               M               retlw  (1&&(1&2))<<7   | (1&&(2&2))<<6   | (1&&(3&2))<<5   | (1&&(1&2))<<4   | (1&&(1&2))<
                            <3   | (1&&(1&2))<<2   | (1&&(1&2))<<1   | (1&&(1&2))<<0
                      00492               hold 7
                          M               if (1>7)        || (7>254)
                          M                error "Hold value in sequence data is out of range. Must be between 1 and 254."    
                          M               endif
043F   3407               M               retlw  7
                      00493               sdat 1,1,2,3,1,1,1,1
MPASM  5.43                  PWMC_MAIN107.ASM   3-28-2012  11:36:08         PAGE 63


LOC  OBJECT CODE     LINE SOURCE TEXT
  VALUE

0440   34DF               M               retlw  (1&&(1&1))<<7   | (1&&(1&1))<<6   | (1&&(2&1))<<5   | (1&&(3&1))<<4   | (1&&(1&1))<
                            <3   | (1&&(1&1))<<2   | (1&&(1&1))<<1   | (1&&(1&1))<<0
0441   3430               M               retlw  (1&&(1&2))<<7   | (1&&(1&2))<<6   | (1&&(2&2))<<5   | (1&&(3&2))<<4   | (1&&(1&2))<
                            <3   | (1&&(1&2))<<2   | (1&&(1&2))<<1   | (1&&(1&2))<<0
                      00494               hold 7
                          M               if (1>7)        || (7>254)
                          M                error "Hold value in sequence data is out of range. Must be between 1 and 254."    
                          M               endif
0442   3407               M               retlw  7
                      00495               sdat 1,1,1,2,3,1,1,1
0443   34EF               M               retlw  (1&&(1&1))<<7   | (1&&(1&1))<<6   | (1&&(1&1))<<5   | (1&&(2&1))<<4   | (1&&(3&1))<
                            <3   | (1&&(1&1))<<2   | (1&&(1&1))<<1   | (1&&(1&1))<<0
0444   3418               M               retlw  (1&&(1&2))<<7   | (1&&(1&2))<<6   | (1&&(1&2))<<5   | (1&&(2&2))<<4   | (1&&(3&2))<
                            <3   | (1&&(1&2))<<2   | (1&&(1&2))<<1   | (1&&(1&2))<<0
                      00496               hold 7
                          M               if (1>7)        || (7>254)
                          M                error "Hold value in sequence data is out of range. Must be between 1 and 254."    
                          M               endif
0445   3407               M               retlw  7
                      00497               sdat 1,1,1,1,2,3,1,1
0446   34F7               M               retlw  (1&&(1&1))<<7   | (1&&(1&1))<<6   | (1&&(1&1))<<5   | (1&&(1&1))<<4   | (1&&(2&1))<
                            <3   | (1&&(3&1))<<2   | (1&&(1&1))<<1   | (1&&(1&1))<<0
0447   340C               M               retlw  (1&&(1&2))<<7   | (1&&(1&2))<<6   | (1&&(1&2))<<5   | (1&&(1&2))<<4   | (1&&(2&2))<
                            <3   | (1&&(3&2))<<2   | (1&&(1&2))<<1   | (1&&(1&2))<<0
                      00498               hold 7
                          M               if (1>7)        || (7>254)
                          M                error "Hold value in sequence data is out of range. Must be between 1 and 254."    
                          M               endif
0448   3407               M               retlw  7
                      00499               sdat 1,1,1,1,1,2,3,1
0449   34FB               M               retlw  (1&&(1&1))<<7   | (1&&(1&1))<<6   | (1&&(1&1))<<5   | (1&&(1&1))<<4   | (1&&(1&1))<
                            <3   | (1&&(2&1))<<2   | (1&&(3&1))<<1   | (1&&(1&1))<<0
044A   3406               M               retlw  (1&&(1&2))<<7   | (1&&(1&2))<<6   | (1&&(1&2))<<5   | (1&&(1&2))<<4   | (1&&(1&2))<
                            <3   | (1&&(2&2))<<2   | (1&&(3&2))<<1   | (1&&(1&2))<<0
                      00500               hold 7
                          M               if (1>7)        || (7>254)
                          M                error "Hold value in sequence data is out of range. Must be between 1 and 254."    
                          M               endif
044B   3407               M               retlw  7
                      00501               sdat 1,1,1,1,1,1,2,3
044C   34FD               M               retlw  (1&&(1&1))<<7   | (1&&(1&1))<<6   | (1&&(1&1))<<5   | (1&&(1&1))<<4   | (1&&(1&1))<
                            <3   | (1&&(1&1))<<2   | (1&&(2&1))<<1   | (1&&(3&1))<<0
044D   3403               M               retlw  (1&&(1&2))<<7   | (1&&(1&2))<<6   | (1&&(1&2))<<5   | (1&&(1&2))<<4   | (1&&(1&2))<
                            <3   | (1&&(1&2))<<2   | (1&&(2&2))<<1   | (1&&(3&2))<<0
                      00502               hold 7
                          M               if (1>7)        || (7>254)
                          M                error "Hold value in sequence data is out of range. Must be between 1 and 254."    
                          M               endif
044E   3407               M               retlw  7
                      00503               sdat 1,1,1,1,1,1,1,3
044F   34FF               M               retlw  (1&&(1&1))<<7   | (1&&(1&1))<<6   | (1&&(1&1))<<5   | (1&&(1&1))<<4   | (1&&(1&1))<
                            <3   | (1&&(1&1))<<2   | (1&&(1&1))<<1   | (1&&(3&1))<<0
0450   3401               M               retlw  (1&&(1&2))<<7   | (1&&(1&2))<<6   | (1&&(1&2))<<5   | (1&&(1&2))<<4   | (1&&(1&2))<
MPASM  5.43                  PWMC_MAIN107.ASM   3-28-2012  11:36:08         PAGE 64


LOC  OBJECT CODE     LINE SOURCE TEXT
  VALUE

                            <3   | (1&&(1&2))<<2   | (1&&(1&2))<<1   | (1&&(3&2))<<0
                      00504               hold 7
                          M               if (1>7)        || (7>254)
                          M                error "Hold value in sequence data is out of range. Must be between 1 and 254."    
                          M               endif
0451   3407               M               retlw  7
                      00505               sdat 1,1,1,1,1,1,3,2
0452   34FE               M               retlw  (1&&(1&1))<<7   | (1&&(1&1))<<6   | (1&&(1&1))<<5   | (1&&(1&1))<<4   | (1&&(1&1))<
                            <3   | (1&&(1&1))<<2   | (1&&(3&1))<<1   | (1&&(2&1))<<0
0453   3403               M               retlw  (1&&(1&2))<<7   | (1&&(1&2))<<6   | (1&&(1&2))<<5   | (1&&(1&2))<<4   | (1&&(1&2))<
                            <3   | (1&&(1&2))<<2   | (1&&(3&2))<<1   | (1&&(2&2))<<0
                      00506               hold 7
                          M               if (1>7)        || (7>254)
                          M                error "Hold value in sequence data is out of range. Must be between 1 and 254."    
                          M               endif
0454   3407               M               retlw  7
                      00507               sdat 1,1,1,1,1,3,2,1
0455   34FD               M               retlw  (1&&(1&1))<<7   | (1&&(1&1))<<6   | (1&&(1&1))<<5   | (1&&(1&1))<<4   | (1&&(1&1))<
                            <3   | (1&&(3&1))<<2   | (1&&(2&1))<<1   | (1&&(1&1))<<0
0456   3406               M               retlw  (1&&(1&2))<<7   | (1&&(1&2))<<6   | (1&&(1&2))<<5   | (1&&(1&2))<<4   | (1&&(1&2))<
                            <3   | (1&&(3&2))<<2   | (1&&(2&2))<<1   | (1&&(1&2))<<0
                      00508               hold 7
                          M               if (1>7)        || (7>254)
                          M                error "Hold value in sequence data is out of range. Must be between 1 and 254."    
                          M               endif
0457   3407               M               retlw  7
                      00509               sdat 1,1,1,1,3,2,1,1
0458   34FB               M               retlw  (1&&(1&1))<<7   | (1&&(1&1))<<6   | (1&&(1&1))<<5   | (1&&(1&1))<<4   | (1&&(3&1))<
                            <3   | (1&&(2&1))<<2   | (1&&(1&1))<<1   | (1&&(1&1))<<0
0459   340C               M               retlw  (1&&(1&2))<<7   | (1&&(1&2))<<6   | (1&&(1&2))<<5   | (1&&(1&2))<<4   | (1&&(3&2))<
                            <3   | (1&&(2&2))<<2   | (1&&(1&2))<<1   | (1&&(1&2))<<0
                      00510               hold 7
                          M               if (1>7)        || (7>254)
                          M                error "Hold value in sequence data is out of range. Must be between 1 and 254."    
                          M               endif
045A   3407               M               retlw  7
                      00511               sdat 1,1,1,3,2,1,1,1
045B   34F7               M               retlw  (1&&(1&1))<<7   | (1&&(1&1))<<6   | (1&&(1&1))<<5   | (1&&(3&1))<<4   | (1&&(2&1))<
                            <3   | (1&&(1&1))<<2   | (1&&(1&1))<<1   | (1&&(1&1))<<0
045C   3418               M               retlw  (1&&(1&2))<<7   | (1&&(1&2))<<6   | (1&&(1&2))<<5   | (1&&(3&2))<<4   | (1&&(2&2))<
                            <3   | (1&&(1&2))<<2   | (1&&(1&2))<<1   | (1&&(1&2))<<0
                      00512               hold 7
                          M               if (1>7)        || (7>254)
                          M                error "Hold value in sequence data is out of range. Must be between 1 and 254."    
                          M               endif
045D   3407               M               retlw  7
                      00513               sdat 1,1,3,2,1,1,1,1
045E   34EF               M               retlw  (1&&(1&1))<<7   | (1&&(1&1))<<6   | (1&&(3&1))<<5   | (1&&(2&1))<<4   | (1&&(1&1))<
                            <3   | (1&&(1&1))<<2   | (1&&(1&1))<<1   | (1&&(1&1))<<0
045F   3430               M               retlw  (1&&(1&2))<<7   | (1&&(1&2))<<6   | (1&&(3&2))<<5   | (1&&(2&2))<<4   | (1&&(1&2))<
                            <3   | (1&&(1&2))<<2   | (1&&(1&2))<<1   | (1&&(1&2))<<0
                      00514               hold 7
                          M               if (1>7)        || (7>254)
MPASM  5.43                  PWMC_MAIN107.ASM   3-28-2012  11:36:08         PAGE 65


LOC  OBJECT CODE     LINE SOURCE TEXT
  VALUE

                          M                error "Hold value in sequence data is out of range. Must be between 1 and 254."    
                          M               endif
0460   3407               M               retlw  7
                      00515               sdat 1,3,2,1,1,1,1,1
0461   34DF               M               retlw  (1&&(1&1))<<7   | (1&&(3&1))<<6   | (1&&(2&1))<<5   | (1&&(1&1))<<4   | (1&&(1&1))<
                            <3   | (1&&(1&1))<<2   | (1&&(1&1))<<1   | (1&&(1&1))<<0
0462   3460               M               retlw  (1&&(1&2))<<7   | (1&&(3&2))<<6   | (1&&(2&2))<<5   | (1&&(1&2))<<4   | (1&&(1&2))<
                            <3   | (1&&(1&2))<<2   | (1&&(1&2))<<1   | (1&&(1&2))<<0
                      00516               hold 7
                          M               if (1>7)        || (7>254)
                          M                error "Hold value in sequence data is out of range. Must be between 1 and 254."    
                          M               endif
0463   3407               M               retlw  7
                      00517               sdat 3,2,1,1,1,1,1,1
0464   34BF               M               retlw  (1&&(3&1))<<7   | (1&&(2&1))<<6   | (1&&(1&1))<<5   | (1&&(1&1))<<4   | (1&&(1&1))<
                            <3   | (1&&(1&1))<<2   | (1&&(1&1))<<1   | (1&&(1&1))<<0
0465   34C0               M               retlw  (1&&(3&2))<<7   | (1&&(2&2))<<6   | (1&&(1&2))<<5   | (1&&(1&2))<<4   | (1&&(1&2))<
                            <3   | (1&&(1&2))<<2   | (1&&(1&2))<<1   | (1&&(1&2))<<0
                      00518               
                      00519               seqend
0466   34FF               M               retlw  .255
                      00520 
                      00521 ; ----------------------------------
                      00522 ; seq 16
                      00523               control 0,6
                          M               if (1>6)      || (6>31)
                          M                error "Repeat count in sequence data is out of range. Must be between 1 and 31."    
                          M               endif
0467   3406               M               retlw  (1&&0)<<6       | (6      & .31)
                      00524               hold 7
                          M               if (1>7)        || (7>254)
                          M                error "Hold value in sequence data is out of range. Must be between 1 and 254."    
                          M               endif
0468   3407               M               retlw  7
                      00525               sdat 1,0,0,0,0,0,0,1
0469   3481               M               retlw  (1&&(1&1))<<7   | (1&&(0&1))<<6   | (1&&(0&1))<<5   | (1&&(0&1))<<4   | (1&&(0&1))<
                            <3   | (1&&(0&1))<<2   | (1&&(0&1))<<1   | (1&&(1&1))<<0
046A   3400               M               retlw  (1&&(1&2))<<7   | (1&&(0&2))<<6   | (1&&(0&2))<<5   | (1&&(0&2))<<4   | (1&&(0&2))<
                            <3   | (1&&(0&2))<<2   | (1&&(0&2))<<1   | (1&&(1&2))<<0
                      00526               hold 7
                          M               if (1>7)        || (7>254)
                          M                error "Hold value in sequence data is out of range. Must be between 1 and 254."    
                          M               endif
046B   3407               M               retlw  7
                      00527               sdat 0,1,0,0,0,0,1,0
046C   3442               M               retlw  (1&&(0&1))<<7   | (1&&(1&1))<<6   | (1&&(0&1))<<5   | (1&&(0&1))<<4   | (1&&(0&1))<
                            <3   | (1&&(0&1))<<2   | (1&&(1&1))<<1   | (1&&(0&1))<<0
046D   3400               M               retlw  (1&&(0&2))<<7   | (1&&(1&2))<<6   | (1&&(0&2))<<5   | (1&&(0&2))<<4   | (1&&(0&2))<
                            <3   | (1&&(0&2))<<2   | (1&&(1&2))<<1   | (1&&(0&2))<<0
                      00528               hold 7
                          M               if (1>7)        || (7>254)
                          M                error "Hold value in sequence data is out of range. Must be between 1 and 254."    
                          M               endif
MPASM  5.43                  PWMC_MAIN107.ASM   3-28-2012  11:36:08         PAGE 66


LOC  OBJECT CODE     LINE SOURCE TEXT
  VALUE

046E   3407               M               retlw  7
                      00529               sdat 0,0,1,0,0,1,0,0
046F   3424               M               retlw  (1&&(0&1))<<7   | (1&&(0&1))<<6   | (1&&(1&1))<<5   | (1&&(0&1))<<4   | (1&&(0&1))<
                            <3   | (1&&(1&1))<<2   | (1&&(0&1))<<1   | (1&&(0&1))<<0
0470   3400               M               retlw  (1&&(0&2))<<7   | (1&&(0&2))<<6   | (1&&(1&2))<<5   | (1&&(0&2))<<4   | (1&&(0&2))<
                            <3   | (1&&(1&2))<<2   | (1&&(0&2))<<1   | (1&&(0&2))<<0
                      00530               hold 7
                          M               if (1>7)        || (7>254)
                          M                error "Hold value in sequence data is out of range. Must be between 1 and 254."    
                          M               endif
0471   3407               M               retlw  7
                      00531               sdat 0,0,0,1,1,0,0,0
0472   3418               M               retlw  (1&&(0&1))<<7   | (1&&(0&1))<<6   | (1&&(0&1))<<5   | (1&&(1&1))<<4   | (1&&(1&1))<
                            <3   | (1&&(0&1))<<2   | (1&&(0&1))<<1   | (1&&(0&1))<<0
0473   3400               M               retlw  (1&&(0&2))<<7   | (1&&(0&2))<<6   | (1&&(0&2))<<5   | (1&&(1&2))<<4   | (1&&(1&2))<
                            <3   | (1&&(0&2))<<2   | (1&&(0&2))<<1   | (1&&(0&2))<<0
                      00532               
                      00533               hold 7
                          M               if (1>7)        || (7>254)
                          M                error "Hold value in sequence data is out of range. Must be between 1 and 254."    
                          M               endif
0474   3407               M               retlw  7
                      00534               sdat 1,0,0,1,1,0,0,1
0475   3499               M               retlw  (1&&(1&1))<<7   | (1&&(0&1))<<6   | (1&&(0&1))<<5   | (1&&(1&1))<<4   | (1&&(1&1))<
                            <3   | (1&&(0&1))<<2   | (1&&(0&1))<<1   | (1&&(1&1))<<0
0476   3400               M               retlw  (1&&(1&2))<<7   | (1&&(0&2))<<6   | (1&&(0&2))<<5   | (1&&(1&2))<<4   | (1&&(1&2))<
                            <3   | (1&&(0&2))<<2   | (1&&(0&2))<<1   | (1&&(1&2))<<0
                      00535               hold 7
                          M               if (1>7)        || (7>254)
                          M                error "Hold value in sequence data is out of range. Must be between 1 and 254."    
                          M               endif
0477   3407               M               retlw  7
                      00536               sdat 0,1,0,1,1,0,1,0
0478   345A               M               retlw  (1&&(0&1))<<7   | (1&&(1&1))<<6   | (1&&(0&1))<<5   | (1&&(1&1))<<4   | (1&&(1&1))<
                            <3   | (1&&(0&1))<<2   | (1&&(1&1))<<1   | (1&&(0&1))<<0
0479   3400               M               retlw  (1&&(0&2))<<7   | (1&&(1&2))<<6   | (1&&(0&2))<<5   | (1&&(1&2))<<4   | (1&&(1&2))<
                            <3   | (1&&(0&2))<<2   | (1&&(1&2))<<1   | (1&&(0&2))<<0
                      00537               hold 7
                          M               if (1>7)        || (7>254)
                          M                error "Hold value in sequence data is out of range. Must be between 1 and 254."    
                          M               endif
047A   3407               M               retlw  7
                      00538               sdat 0,0,1,1,1,1,0,0
047B   343C               M               retlw  (1&&(0&1))<<7   | (1&&(0&1))<<6   | (1&&(1&1))<<5   | (1&&(1&1))<<4   | (1&&(1&1))<
                            <3   | (1&&(1&1))<<2   | (1&&(0&1))<<1   | (1&&(0&1))<<0
047C   3400               M               retlw  (1&&(0&2))<<7   | (1&&(0&2))<<6   | (1&&(1&2))<<5   | (1&&(1&2))<<4   | (1&&(1&2))<
                            <3   | (1&&(1&2))<<2   | (1&&(0&2))<<1   | (1&&(0&2))<<0
                      00539               hold 7
                          M               if (1>7)        || (7>254)
                          M                error "Hold value in sequence data is out of range. Must be between 1 and 254."    
                          M               endif
047D   3407               M               retlw  7
                      00540               sdat 0,0,0,2,2,0,0,0
MPASM  5.43                  PWMC_MAIN107.ASM   3-28-2012  11:36:08         PAGE 67


LOC  OBJECT CODE     LINE SOURCE TEXT
  VALUE

047E   3400               M               retlw  (1&&(0&1))<<7   | (1&&(0&1))<<6   | (1&&(0&1))<<5   | (1&&(2&1))<<4   | (1&&(2&1))<
                            <3   | (1&&(0&1))<<2   | (1&&(0&1))<<1   | (1&&(0&1))<<0
047F   3418               M               retlw  (1&&(0&2))<<7   | (1&&(0&2))<<6   | (1&&(0&2))<<5   | (1&&(2&2))<<4   | (1&&(2&2))<
                            <3   | (1&&(0&2))<<2   | (1&&(0&2))<<1   | (1&&(0&2))<<0
                      00541 
                      00542               hold 7
                          M               if (1>7)        || (7>254)
                          M                error "Hold value in sequence data is out of range. Must be between 1 and 254."    
                          M               endif
0480   3407               M               retlw  7
                      00543               sdat 1,0,0,2,2,0,0,1
0481   3481               M               retlw  (1&&(1&1))<<7   | (1&&(0&1))<<6   | (1&&(0&1))<<5   | (1&&(2&1))<<4   | (1&&(2&1))<
                            <3   | (1&&(0&1))<<2   | (1&&(0&1))<<1   | (1&&(1&1))<<0
0482   3418               M               retlw  (1&&(1&2))<<7   | (1&&(0&2))<<6   | (1&&(0&2))<<5   | (1&&(2&2))<<4   | (1&&(2&2))<
                            <3   | (1&&(0&2))<<2   | (1&&(0&2))<<1   | (1&&(1&2))<<0
                      00544               hold 7
                          M               if (1>7)        || (7>254)
                          M                error "Hold value in sequence data is out of range. Must be between 1 and 254."    
                          M               endif
0483   3407               M               retlw  7
                      00545               sdat 0,1,0,2,2,0,1,0
0484   3442               M               retlw  (1&&(0&1))<<7   | (1&&(1&1))<<6   | (1&&(0&1))<<5   | (1&&(2&1))<<4   | (1&&(2&1))<
                            <3   | (1&&(0&1))<<2   | (1&&(1&1))<<1   | (1&&(0&1))<<0
0485   3418               M               retlw  (1&&(0&2))<<7   | (1&&(1&2))<<6   | (1&&(0&2))<<5   | (1&&(2&2))<<4   | (1&&(2&2))<
                            <3   | (1&&(0&2))<<2   | (1&&(1&2))<<1   | (1&&(0&2))<<0
                      00546               hold 7
                          M               if (1>7)        || (7>254)
                          M                error "Hold value in sequence data is out of range. Must be between 1 and 254."    
                          M               endif
0486   3407               M               retlw  7
                      00547               sdat 0,0,1,2,2,1,0,0
0487   3424               M               retlw  (1&&(0&1))<<7   | (1&&(0&1))<<6   | (1&&(1&1))<<5   | (1&&(2&1))<<4   | (1&&(2&1))<
                            <3   | (1&&(1&1))<<2   | (1&&(0&1))<<1   | (1&&(0&1))<<0
0488   3418               M               retlw  (1&&(0&2))<<7   | (1&&(0&2))<<6   | (1&&(1&2))<<5   | (1&&(2&2))<<4   | (1&&(2&2))<
                            <3   | (1&&(1&2))<<2   | (1&&(0&2))<<1   | (1&&(0&2))<<0
                      00548               hold 9
                          M               if (1>9)        || (9>254)
                          M                error "Hold value in sequence data is out of range. Must be between 1 and 254."    
                          M               endif
0489   3409               M               retlw  9
                      00549               sdat 0,0,0,3,3,0,0,0
048A   3418               M               retlw  (1&&(0&1))<<7   | (1&&(0&1))<<6   | (1&&(0&1))<<5   | (1&&(3&1))<<4   | (1&&(3&1))<
                            <3   | (1&&(0&1))<<2   | (1&&(0&1))<<1   | (1&&(0&1))<<0
048B   3418               M               retlw  (1&&(0&2))<<7   | (1&&(0&2))<<6   | (1&&(0&2))<<5   | (1&&(3&2))<<4   | (1&&(3&2))<
                            <3   | (1&&(0&2))<<2   | (1&&(0&2))<<1   | (1&&(0&2))<<0
                      00550               hold 9
                          M               if (1>9)        || (9>254)
                          M                error "Hold value in sequence data is out of range. Must be between 1 and 254."    
                          M               endif
048C   3409               M               retlw  9
                      00551               sdat 0,0,0,2,2,0,0,0
048D   3400               M               retlw  (1&&(0&1))<<7   | (1&&(0&1))<<6   | (1&&(0&1))<<5   | (1&&(2&1))<<4   | (1&&(2&1))<
                            <3   | (1&&(0&1))<<2   | (1&&(0&1))<<1   | (1&&(0&1))<<0
MPASM  5.43                  PWMC_MAIN107.ASM   3-28-2012  11:36:08         PAGE 68


LOC  OBJECT CODE     LINE SOURCE TEXT
  VALUE

048E   3418               M               retlw  (1&&(0&2))<<7   | (1&&(0&2))<<6   | (1&&(0&2))<<5   | (1&&(2&2))<<4   | (1&&(2&2))<
                            <3   | (1&&(0&2))<<2   | (1&&(0&2))<<1   | (1&&(0&2))<<0
                      00552               hold 9
                          M               if (1>9)        || (9>254)
                          M                error "Hold value in sequence data is out of range. Must be between 1 and 254."    
                          M               endif
048F   3409               M               retlw  9
                      00553               sdat 0,0,0,1,1,0,0,0
0490   3418               M               retlw  (1&&(0&1))<<7   | (1&&(0&1))<<6   | (1&&(0&1))<<5   | (1&&(1&1))<<4   | (1&&(1&1))<
                            <3   | (1&&(0&1))<<2   | (1&&(0&1))<<1   | (1&&(0&1))<<0
0491   3400               M               retlw  (1&&(0&2))<<7   | (1&&(0&2))<<6   | (1&&(0&2))<<5   | (1&&(1&2))<<4   | (1&&(1&2))<
                            <3   | (1&&(0&2))<<2   | (1&&(0&2))<<1   | (1&&(0&2))<<0
                      00554               hold 9
                          M               if (1>9)        || (9>254)
                          M                error "Hold value in sequence data is out of range. Must be between 1 and 254."    
                          M               endif
0492   3409               M               retlw  9
                      00555               sdat 0,0,0,2,2,0,0,0
0493   3400               M               retlw  (1&&(0&1))<<7   | (1&&(0&1))<<6   | (1&&(0&1))<<5   | (1&&(2&1))<<4   | (1&&(2&1))<
                            <3   | (1&&(0&1))<<2   | (1&&(0&1))<<1   | (1&&(0&1))<<0
0494   3418               M               retlw  (1&&(0&2))<<7   | (1&&(0&2))<<6   | (1&&(0&2))<<5   | (1&&(2&2))<<4   | (1&&(2&2))<
                            <3   | (1&&(0&2))<<2   | (1&&(0&2))<<1   | (1&&(0&2))<<0
                      00556               hold 9
                          M               if (1>9)        || (9>254)
                          M                error "Hold value in sequence data is out of range. Must be between 1 and 254."    
                          M               endif
0495   3409               M               retlw  9
                      00557               sdat 0,0,0,3,3,0,0,0
0496   3418               M               retlw  (1&&(0&1))<<7   | (1&&(0&1))<<6   | (1&&(0&1))<<5   | (1&&(3&1))<<4   | (1&&(3&1))<
                            <3   | (1&&(0&1))<<2   | (1&&(0&1))<<1   | (1&&(0&1))<<0
0497   3418               M               retlw  (1&&(0&2))<<7   | (1&&(0&2))<<6   | (1&&(0&2))<<5   | (1&&(3&2))<<4   | (1&&(3&2))<
                            <3   | (1&&(0&2))<<2   | (1&&(0&2))<<1   | (1&&(0&2))<<0
                      00558               hold 3 
                          M               if (1>3)        || (3>254)
                          M                error "Hold value in sequence data is out of range. Must be between 1 and 254."    
                          M               endif
0498   3403               M               retlw  3
                      00559               sdat 0,0,3,2,2,3,0,0
0499   3424               M               retlw  (1&&(0&1))<<7   | (1&&(0&1))<<6   | (1&&(3&1))<<5   | (1&&(2&1))<<4   | (1&&(2&1))<
                            <3   | (1&&(3&1))<<2   | (1&&(0&1))<<1   | (1&&(0&1))<<0
049A   343C               M               retlw  (1&&(0&2))<<7   | (1&&(0&2))<<6   | (1&&(3&2))<<5   | (1&&(2&2))<<4   | (1&&(2&2))<
                            <3   | (1&&(3&2))<<2   | (1&&(0&2))<<1   | (1&&(0&2))<<0
                      00560               hold 4
                          M               if (1>4)        || (4>254)
                          M                error "Hold value in sequence data is out of range. Must be between 1 and 254."    
                          M               endif
049B   3404               M               retlw  4
                      00561               sdat 0,3,2,1,1,2,3,0
049C   345A               M               retlw  (1&&(0&1))<<7   | (1&&(3&1))<<6   | (1&&(2&1))<<5   | (1&&(1&1))<<4   | (1&&(1&1))<
                            <3   | (1&&(2&1))<<2   | (1&&(3&1))<<1   | (1&&(0&1))<<0
049D   3466               M               retlw  (1&&(0&2))<<7   | (1&&(3&2))<<6   | (1&&(2&2))<<5   | (1&&(1&2))<<4   | (1&&(1&2))<
                            <3   | (1&&(2&2))<<2   | (1&&(3&2))<<1   | (1&&(0&2))<<0
                      00562               hold 5
MPASM  5.43                  PWMC_MAIN107.ASM   3-28-2012  11:36:08         PAGE 69


LOC  OBJECT CODE     LINE SOURCE TEXT
  VALUE

                          M               if (1>5)        || (5>254)
                          M                error "Hold value in sequence data is out of range. Must be between 1 and 254."    
                          M               endif
049E   3405               M               retlw  5
                      00563               sdat 3,2,1,0,0,1,2,3
049F   34A5               M               retlw  (1&&(3&1))<<7   | (1&&(2&1))<<6   | (1&&(1&1))<<5   | (1&&(0&1))<<4   | (1&&(0&1))<
                            <3   | (1&&(1&1))<<2   | (1&&(2&1))<<1   | (1&&(3&1))<<0
04A0   34C3               M               retlw  (1&&(3&2))<<7   | (1&&(2&2))<<6   | (1&&(1&2))<<5   | (1&&(0&2))<<4   | (1&&(0&2))<
                            <3   | (1&&(1&2))<<2   | (1&&(2&2))<<1   | (1&&(3&2))<<0
                      00564               hold 6
                          M               if (1>6)        || (6>254)
                          M                error "Hold value in sequence data is out of range. Must be between 1 and 254."    
                          M               endif
04A1   3406               M               retlw  6
                      00565               sdat 2,1,0,0,0,0,1,2
04A2   3442               M               retlw  (1&&(2&1))<<7   | (1&&(1&1))<<6   | (1&&(0&1))<<5   | (1&&(0&1))<<4   | (1&&(0&1))<
                            <3   | (1&&(0&1))<<2   | (1&&(1&1))<<1   | (1&&(2&1))<<0
04A3   3481               M               retlw  (1&&(2&2))<<7   | (1&&(1&2))<<6   | (1&&(0&2))<<5   | (1&&(0&2))<<4   | (1&&(0&2))<
                            <3   | (1&&(0&2))<<2   | (1&&(1&2))<<1   | (1&&(2&2))<<0
                      00566               hold 7
                          M               if (1>7)        || (7>254)
                          M                error "Hold value in sequence data is out of range. Must be between 1 and 254."    
                          M               endif
04A4   3407               M               retlw  7
                      00567               sdat 1,0,0,0,0,0,0,1
04A5   3481               M               retlw  (1&&(1&1))<<7   | (1&&(0&1))<<6   | (1&&(0&1))<<5   | (1&&(0&1))<<4   | (1&&(0&1))<
                            <3   | (1&&(0&1))<<2   | (1&&(0&1))<<1   | (1&&(1&1))<<0
04A6   3400               M               retlw  (1&&(1&2))<<7   | (1&&(0&2))<<6   | (1&&(0&2))<<5   | (1&&(0&2))<<4   | (1&&(0&2))<
                            <3   | (1&&(0&2))<<2   | (1&&(0&2))<<1   | (1&&(1&2))<<0
                      00568               hold 7
                          M               if (1>7)        || (7>254)
                          M                error "Hold value in sequence data is out of range. Must be between 1 and 254."    
                          M               endif
04A7   3407               M               retlw  7
                      00569               sdat 0,0,0,0,0,0,0,0
04A8   3400               M               retlw  (1&&(0&1))<<7   | (1&&(0&1))<<6   | (1&&(0&1))<<5   | (1&&(0&1))<<4   | (1&&(0&1))<
                            <3   | (1&&(0&1))<<2   | (1&&(0&1))<<1   | (1&&(0&1))<<0
04A9   3400               M               retlw  (1&&(0&2))<<7   | (1&&(0&2))<<6   | (1&&(0&2))<<5   | (1&&(0&2))<<4   | (1&&(0&2))<
                            <3   | (1&&(0&2))<<2   | (1&&(0&2))<<1   | (1&&(0&2))<<0
                      00570 
                      00571               seqend
04AA   34FF               M               retlw  .255
                      00572 
                      00573 ; ----------------------------------
                      00574 ; seq 17
                      00575               control 1,31
                          M               if (1>31)     || (31>31)
                          M                error "Repeat count in sequence data is out of range. Must be between 1 and 31."    
                          M               endif
04AB   345F               M               retlw  (1&&1)<<6       | (31     & .31)
                      00576               hold 7
                          M               if (1>7)        || (7>254)
                          M                error "Hold value in sequence data is out of range. Must be between 1 and 254."    
MPASM  5.43                  PWMC_MAIN107.ASM   3-28-2012  11:36:08         PAGE 70


LOC  OBJECT CODE     LINE SOURCE TEXT
  VALUE

                          M               endif
04AC   3407               M               retlw  7
                      00577               sdat 3,0,0,0,3,0,0,0
04AD   3488               M               retlw  (1&&(3&1))<<7   | (1&&(0&1))<<6   | (1&&(0&1))<<5   | (1&&(0&1))<<4   | (1&&(3&1))<
                            <3   | (1&&(0&1))<<2   | (1&&(0&1))<<1   | (1&&(0&1))<<0
04AE   3488               M               retlw  (1&&(3&2))<<7   | (1&&(0&2))<<6   | (1&&(0&2))<<5   | (1&&(0&2))<<4   | (1&&(3&2))<
                            <3   | (1&&(0&2))<<2   | (1&&(0&2))<<1   | (1&&(0&2))<<0
                      00578               hold 7
                          M               if (1>7)        || (7>254)
                          M                error "Hold value in sequence data is out of range. Must be between 1 and 254."    
                          M               endif
04AF   3407               M               retlw  7
                      00579               sdat 0,3,0,0,0,3,0,0
04B0   3444               M               retlw  (1&&(0&1))<<7   | (1&&(3&1))<<6   | (1&&(0&1))<<5   | (1&&(0&1))<<4   | (1&&(0&1))<
                            <3   | (1&&(3&1))<<2   | (1&&(0&1))<<1   | (1&&(0&1))<<0
04B1   3444               M               retlw  (1&&(0&2))<<7   | (1&&(3&2))<<6   | (1&&(0&2))<<5   | (1&&(0&2))<<4   | (1&&(0&2))<
                            <3   | (1&&(3&2))<<2   | (1&&(0&2))<<1   | (1&&(0&2))<<0
                      00580               hold 7
                          M               if (1>7)        || (7>254)
                          M                error "Hold value in sequence data is out of range. Must be between 1 and 254."    
                          M               endif
04B2   3407               M               retlw  7
                      00581               sdat 0,0,3,0,0,0,3,0
04B3   3422               M               retlw  (1&&(0&1))<<7   | (1&&(0&1))<<6   | (1&&(3&1))<<5   | (1&&(0&1))<<4   | (1&&(0&1))<
                            <3   | (1&&(0&1))<<2   | (1&&(3&1))<<1   | (1&&(0&1))<<0
04B4   3422               M               retlw  (1&&(0&2))<<7   | (1&&(0&2))<<6   | (1&&(3&2))<<5   | (1&&(0&2))<<4   | (1&&(0&2))<
                            <3   | (1&&(0&2))<<2   | (1&&(3&2))<<1   | (1&&(0&2))<<0
                      00582               hold 7
                          M               if (1>7)        || (7>254)
                          M                error "Hold value in sequence data is out of range. Must be between 1 and 254."    
                          M               endif
04B5   3407               M               retlw  7
                      00583               sdat 0,0,0,3,0,0,0,3
04B6   3411               M               retlw  (1&&(0&1))<<7   | (1&&(0&1))<<6   | (1&&(0&1))<<5   | (1&&(3&1))<<4   | (1&&(0&1))<
                            <3   | (1&&(0&1))<<2   | (1&&(0&1))<<1   | (1&&(3&1))<<0
04B7   3411               M               retlw  (1&&(0&2))<<7   | (1&&(0&2))<<6   | (1&&(0&2))<<5   | (1&&(3&2))<<4   | (1&&(0&2))<
                            <3   | (1&&(0&2))<<2   | (1&&(0&2))<<1   | (1&&(3&2))<<0
                      00584               
                      00585               seqend
04B8   34FF               M               retlw  .255
                      00586 
                      00587 ; ----------------------------------
                      00588 ; seq 18
                      00589 
                      00590               control 1,31
                          M               if (1>31)     || (31>31)
                          M                error "Repeat count in sequence data is out of range. Must be between 1 and 31."    
                          M               endif
04B9   345F               M               retlw  (1&&1)<<6       | (31     & .31)
                      00591               hold 7
                          M               if (1>7)        || (7>254)
                          M                error "Hold value in sequence data is out of range. Must be between 1 and 254."    
                          M               endif
MPASM  5.43                  PWMC_MAIN107.ASM   3-28-2012  11:36:08         PAGE 71


LOC  OBJECT CODE     LINE SOURCE TEXT
  VALUE

04BA   3407               M               retlw  7
                      00592               sdat 3,2,1,0,3,2,1,0
04BB   34AA               M               retlw  (1&&(3&1))<<7   | (1&&(2&1))<<6   | (1&&(1&1))<<5   | (1&&(0&1))<<4   | (1&&(3&1))<
                            <3   | (1&&(2&1))<<2   | (1&&(1&1))<<1   | (1&&(0&1))<<0
04BC   34CC               M               retlw  (1&&(3&2))<<7   | (1&&(2&2))<<6   | (1&&(1&2))<<5   | (1&&(0&2))<<4   | (1&&(3&2))<
                            <3   | (1&&(2&2))<<2   | (1&&(1&2))<<1   | (1&&(0&2))<<0
                      00593               hold 7
                          M               if (1>7)        || (7>254)
                          M                error "Hold value in sequence data is out of range. Must be between 1 and 254."    
                          M               endif
04BD   3407               M               retlw  7
                      00594               sdat 0,3,2,1,0,3,2,1
04BE   3455               M               retlw  (1&&(0&1))<<7   | (1&&(3&1))<<6   | (1&&(2&1))<<5   | (1&&(1&1))<<4   | (1&&(0&1))<
                            <3   | (1&&(3&1))<<2   | (1&&(2&1))<<1   | (1&&(1&1))<<0
04BF   3466               M               retlw  (1&&(0&2))<<7   | (1&&(3&2))<<6   | (1&&(2&2))<<5   | (1&&(1&2))<<4   | (1&&(0&2))<
                            <3   | (1&&(3&2))<<2   | (1&&(2&2))<<1   | (1&&(1&2))<<0
                      00595               hold 7
                          M               if (1>7)        || (7>254)
                          M                error "Hold value in sequence data is out of range. Must be between 1 and 254."    
                          M               endif
04C0   3407               M               retlw  7
                      00596               sdat 1,0,3,2,1,0,3,2
04C1   34AA               M               retlw  (1&&(1&1))<<7   | (1&&(0&1))<<6   | (1&&(3&1))<<5   | (1&&(2&1))<<4   | (1&&(1&1))<
                            <3   | (1&&(0&1))<<2   | (1&&(3&1))<<1   | (1&&(2&1))<<0
04C2   3433               M               retlw  (1&&(1&2))<<7   | (1&&(0&2))<<6   | (1&&(3&2))<<5   | (1&&(2&2))<<4   | (1&&(1&2))<
                            <3   | (1&&(0&2))<<2   | (1&&(3&2))<<1   | (1&&(2&2))<<0
                      00597               hold 7
                          M               if (1>7)        || (7>254)
                          M                error "Hold value in sequence data is out of range. Must be between 1 and 254."    
                          M               endif
04C3   3407               M               retlw  7
                      00598               sdat 2,1,0,3,2,1,0,3
04C4   3455               M               retlw  (1&&(2&1))<<7   | (1&&(1&1))<<6   | (1&&(0&1))<<5   | (1&&(3&1))<<4   | (1&&(2&1))<
                            <3   | (1&&(1&1))<<2   | (1&&(0&1))<<1   | (1&&(3&1))<<0
04C5   3499               M               retlw  (1&&(2&2))<<7   | (1&&(1&2))<<6   | (1&&(0&2))<<5   | (1&&(3&2))<<4   | (1&&(2&2))<
                            <3   | (1&&(1&2))<<2   | (1&&(0&2))<<1   | (1&&(3&2))<<0
                      00599               
                      00600               seqend
04C6   34FF               M               retlw  .255
                      00601 
                      00602 ; ----------------------------------
                      00603 ; seq 19
                      00604               control 0,9
                          M               if (1>9)      || (9>31)
                          M                error "Repeat count in sequence data is out of range. Must be between 1 and 31."    
                          M               endif
04C7   3409               M               retlw  (1&&0)<<6       | (9      & .31)
                      00605               hold 9
                          M               if (1>9)        || (9>254)
                          M                error "Hold value in sequence data is out of range. Must be between 1 and 254."    
                          M               endif
04C8   3409               M               retlw  9
                      00606               sdat 3,2,1,0,0,1,2,3
MPASM  5.43                  PWMC_MAIN107.ASM   3-28-2012  11:36:08         PAGE 72


LOC  OBJECT CODE     LINE SOURCE TEXT
  VALUE

04C9   34A5               M               retlw  (1&&(3&1))<<7   | (1&&(2&1))<<6   | (1&&(1&1))<<5   | (1&&(0&1))<<4   | (1&&(0&1))<
                            <3   | (1&&(1&1))<<2   | (1&&(2&1))<<1   | (1&&(3&1))<<0
04CA   34C3               M               retlw  (1&&(3&2))<<7   | (1&&(2&2))<<6   | (1&&(1&2))<<5   | (1&&(0&2))<<4   | (1&&(0&2))<
                            <3   | (1&&(1&2))<<2   | (1&&(2&2))<<1   | (1&&(3&2))<<0
                      00607               hold 9
                          M               if (1>9)        || (9>254)
                          M                error "Hold value in sequence data is out of range. Must be between 1 and 254."    
                          M               endif
04CB   3409               M               retlw  9
                      00608               sdat 3,3,2,1,1,2,3,3
04CC   34DB               M               retlw  (1&&(3&1))<<7   | (1&&(3&1))<<6   | (1&&(2&1))<<5   | (1&&(1&1))<<4   | (1&&(1&1))<
                            <3   | (1&&(2&1))<<2   | (1&&(3&1))<<1   | (1&&(3&1))<<0
04CD   34E7               M               retlw  (1&&(3&2))<<7   | (1&&(3&2))<<6   | (1&&(2&2))<<5   | (1&&(1&2))<<4   | (1&&(1&2))<
                            <3   | (1&&(2&2))<<2   | (1&&(3&2))<<1   | (1&&(3&2))<<0
                      00609               hold 9
                          M               if (1>9)        || (9>254)
                          M                error "Hold value in sequence data is out of range. Must be between 1 and 254."    
                          M               endif
04CE   3409               M               retlw  9
                      00610               sdat 3,3,3,2,2,3,3,3
04CF   34E7               M               retlw  (1&&(3&1))<<7   | (1&&(3&1))<<6   | (1&&(3&1))<<5   | (1&&(2&1))<<4   | (1&&(2&1))<
                            <3   | (1&&(3&1))<<2   | (1&&(3&1))<<1   | (1&&(3&1))<<0
04D0   34FF               M               retlw  (1&&(3&2))<<7   | (1&&(3&2))<<6   | (1&&(3&2))<<5   | (1&&(2&2))<<4   | (1&&(2&2))<
                            <3   | (1&&(3&2))<<2   | (1&&(3&2))<<1   | (1&&(3&2))<<0
                      00611               hold 9
                          M               if (1>9)        || (9>254)
                          M                error "Hold value in sequence data is out of range. Must be between 1 and 254."    
                          M               endif
04D1   3409               M               retlw  9
                      00612               sdat 3,3,3,3,3,3,3,3
04D2   34FF               M               retlw  (1&&(3&1))<<7   | (1&&(3&1))<<6   | (1&&(3&1))<<5   | (1&&(3&1))<<4   | (1&&(3&1))<
                            <3   | (1&&(3&1))<<2   | (1&&(3&1))<<1   | (1&&(3&1))<<0
04D3   34FF               M               retlw  (1&&(3&2))<<7   | (1&&(3&2))<<6   | (1&&(3&2))<<5   | (1&&(3&2))<<4   | (1&&(3&2))<
                            <3   | (1&&(3&2))<<2   | (1&&(3&2))<<1   | (1&&(3&2))<<0
                      00613               hold 9
                          M               if (1>9)        || (9>254)
                          M                error "Hold value in sequence data is out of range. Must be between 1 and 254."    
                          M               endif
04D4   3409               M               retlw  9
                      00614               sdat 2,3,3,3,3,3,3,2
04D5   347E               M               retlw  (1&&(2&1))<<7   | (1&&(3&1))<<6   | (1&&(3&1))<<5   | (1&&(3&1))<<4   | (1&&(3&1))<
                            <3   | (1&&(3&1))<<2   | (1&&(3&1))<<1   | (1&&(2&1))<<0
04D6   34FF               M               retlw  (1&&(2&2))<<7   | (1&&(3&2))<<6   | (1&&(3&2))<<5   | (1&&(3&2))<<4   | (1&&(3&2))<
                            <3   | (1&&(3&2))<<2   | (1&&(3&2))<<1   | (1&&(2&2))<<0
                      00615               hold 9
                          M               if (1>9)        || (9>254)
                          M                error "Hold value in sequence data is out of range. Must be between 1 and 254."    
                          M               endif
04D7   3409               M               retlw  9
                      00616               sdat 1,2,3,3,3,3,2,1
04D8   34BD               M               retlw  (1&&(1&1))<<7   | (1&&(2&1))<<6   | (1&&(3&1))<<5   | (1&&(3&1))<<4   | (1&&(3&1))<
                            <3   | (1&&(3&1))<<2   | (1&&(2&1))<<1   | (1&&(1&1))<<0
04D9   347E               M               retlw  (1&&(1&2))<<7   | (1&&(2&2))<<6   | (1&&(3&2))<<5   | (1&&(3&2))<<4   | (1&&(3&2))<
MPASM  5.43                  PWMC_MAIN107.ASM   3-28-2012  11:36:08         PAGE 73


LOC  OBJECT CODE     LINE SOURCE TEXT
  VALUE

                            <3   | (1&&(3&2))<<2   | (1&&(2&2))<<1   | (1&&(1&2))<<0
                      00617               hold 9
                          M               if (1>9)        || (9>254)
                          M                error "Hold value in sequence data is out of range. Must be between 1 and 254."    
                          M               endif
04DA   3409               M               retlw  9
                      00618               sdat 0,1,2,3,3,2,1,0
04DB   345A               M               retlw  (1&&(0&1))<<7   | (1&&(1&1))<<6   | (1&&(2&1))<<5   | (1&&(3&1))<<4   | (1&&(3&1))<
                            <3   | (1&&(2&1))<<2   | (1&&(1&1))<<1   | (1&&(0&1))<<0
04DC   343C               M               retlw  (1&&(0&2))<<7   | (1&&(1&2))<<6   | (1&&(2&2))<<5   | (1&&(3&2))<<4   | (1&&(3&2))<
                            <3   | (1&&(2&2))<<2   | (1&&(1&2))<<1   | (1&&(0&2))<<0
                      00619               hold 9
                          M               if (1>9)        || (9>254)
                          M                error "Hold value in sequence data is out of range. Must be between 1 and 254."    
                          M               endif
04DD   3409               M               retlw  9
                      00620               sdat 0,0,1,2,2,1,0,0
04DE   3424               M               retlw  (1&&(0&1))<<7   | (1&&(0&1))<<6   | (1&&(1&1))<<5   | (1&&(2&1))<<4   | (1&&(2&1))<
                            <3   | (1&&(1&1))<<2   | (1&&(0&1))<<1   | (1&&(0&1))<<0
04DF   3418               M               retlw  (1&&(0&2))<<7   | (1&&(0&2))<<6   | (1&&(1&2))<<5   | (1&&(2&2))<<4   | (1&&(2&2))<
                            <3   | (1&&(1&2))<<2   | (1&&(0&2))<<1   | (1&&(0&2))<<0
                      00621               hold 9
                          M               if (1>9)        || (9>254)
                          M                error "Hold value in sequence data is out of range. Must be between 1 and 254."    
                          M               endif
04E0   3409               M               retlw  9
                      00622               sdat 0,0,0,1,1,0,0,0
04E1   3418               M               retlw  (1&&(0&1))<<7   | (1&&(0&1))<<6   | (1&&(0&1))<<5   | (1&&(1&1))<<4   | (1&&(1&1))<
                            <3   | (1&&(0&1))<<2   | (1&&(0&1))<<1   | (1&&(0&1))<<0
04E2   3400               M               retlw  (1&&(0&2))<<7   | (1&&(0&2))<<6   | (1&&(0&2))<<5   | (1&&(1&2))<<4   | (1&&(1&2))<
                            <3   | (1&&(0&2))<<2   | (1&&(0&2))<<1   | (1&&(0&2))<<0
                      00623               hold 9
                          M               if (1>9)        || (9>254)
                          M                error "Hold value in sequence data is out of range. Must be between 1 and 254."    
                          M               endif
04E3   3409               M               retlw  9
                      00624               sdat 0,0,0,0,0,0,0,0
04E4   3400               M               retlw  (1&&(0&1))<<7   | (1&&(0&1))<<6   | (1&&(0&1))<<5   | (1&&(0&1))<<4   | (1&&(0&1))<
                            <3   | (1&&(0&1))<<2   | (1&&(0&1))<<1   | (1&&(0&1))<<0
04E5   3400               M               retlw  (1&&(0&2))<<7   | (1&&(0&2))<<6   | (1&&(0&2))<<5   | (1&&(0&2))<<4   | (1&&(0&2))<
                            <3   | (1&&(0&2))<<2   | (1&&(0&2))<<1   | (1&&(0&2))<<0
                      00625 
                      00626               seqend
04E6   34FF               M               retlw  .255
                      00627 
                      00628 ; ----------------------------------
                      00629 ; seq 20
                      00630 
                      00631               control 1,12
                          M               if (1>12)     || (12>31)
                          M                error "Repeat count in sequence data is out of range. Must be between 1 and 31."    
                          M               endif
04E7   344C               M               retlw  (1&&1)<<6       | (12     & .31)
MPASM  5.43                  PWMC_MAIN107.ASM   3-28-2012  11:36:08         PAGE 74


LOC  OBJECT CODE     LINE SOURCE TEXT
  VALUE

                      00632               hold 6
                          M               if (1>6)        || (6>254)
                          M                error "Hold value in sequence data is out of range. Must be between 1 and 254."    
                          M               endif
04E8   3406               M               retlw  6
                      00633               sdat 3,2,1,0,0,0,1,2
04E9   34A2               M               retlw  (1&&(3&1))<<7   | (1&&(2&1))<<6   | (1&&(1&1))<<5   | (1&&(0&1))<<4   | (1&&(0&1))<
                            <3   | (1&&(0&1))<<2   | (1&&(1&1))<<1   | (1&&(2&1))<<0
04EA   34C1               M               retlw  (1&&(3&2))<<7   | (1&&(2&2))<<6   | (1&&(1&2))<<5   | (1&&(0&2))<<4   | (1&&(0&2))<
                            <3   | (1&&(0&2))<<2   | (1&&(1&2))<<1   | (1&&(2&2))<<0
                      00634               hold 6
                          M               if (1>6)        || (6>254)
                          M                error "Hold value in sequence data is out of range. Must be between 1 and 254."    
                          M               endif
04EB   3406               M               retlw  6
                      00635               sdat 2,3,2,1,0,0,0,1
04EC   3451               M               retlw  (1&&(2&1))<<7   | (1&&(3&1))<<6   | (1&&(2&1))<<5   | (1&&(1&1))<<4   | (1&&(0&1))<
                            <3   | (1&&(0&1))<<2   | (1&&(0&1))<<1   | (1&&(1&1))<<0
04ED   34E0               M               retlw  (1&&(2&2))<<7   | (1&&(3&2))<<6   | (1&&(2&2))<<5   | (1&&(1&2))<<4   | (1&&(0&2))<
                            <3   | (1&&(0&2))<<2   | (1&&(0&2))<<1   | (1&&(1&2))<<0
                      00636               hold 6
                          M               if (1>6)        || (6>254)
                          M                error "Hold value in sequence data is out of range. Must be between 1 and 254."    
                          M               endif
04EE   3406               M               retlw  6
                      00637               sdat 1,2,3,2,1,0,0,0
04EF   34A8               M               retlw  (1&&(1&1))<<7   | (1&&(2&1))<<6   | (1&&(3&1))<<5   | (1&&(2&1))<<4   | (1&&(1&1))<
                            <3   | (1&&(0&1))<<2   | (1&&(0&1))<<1   | (1&&(0&1))<<0
04F0   3470               M               retlw  (1&&(1&2))<<7   | (1&&(2&2))<<6   | (1&&(3&2))<<5   | (1&&(2&2))<<4   | (1&&(1&2))<
                            <3   | (1&&(0&2))<<2   | (1&&(0&2))<<1   | (1&&(0&2))<<0
                      00638               hold 6
                          M               if (1>6)        || (6>254)
                          M                error "Hold value in sequence data is out of range. Must be between 1 and 254."    
                          M               endif
04F1   3406               M               retlw  6
                      00639               sdat 0,1,2,3,2,1,0,0
04F2   3454               M               retlw  (1&&(0&1))<<7   | (1&&(1&1))<<6   | (1&&(2&1))<<5   | (1&&(3&1))<<4   | (1&&(2&1))<
                            <3   | (1&&(1&1))<<2   | (1&&(0&1))<<1   | (1&&(0&1))<<0
04F3   3438               M               retlw  (1&&(0&2))<<7   | (1&&(1&2))<<6   | (1&&(2&2))<<5   | (1&&(3&2))<<4   | (1&&(2&2))<
                            <3   | (1&&(1&2))<<2   | (1&&(0&2))<<1   | (1&&(0&2))<<0
                      00640               hold 6
                          M               if (1>6)        || (6>254)
                          M                error "Hold value in sequence data is out of range. Must be between 1 and 254."    
                          M               endif
04F4   3406               M               retlw  6
                      00641               sdat 0,0,1,2,3,2,1,0
04F5   342A               M               retlw  (1&&(0&1))<<7   | (1&&(0&1))<<6   | (1&&(1&1))<<5   | (1&&(2&1))<<4   | (1&&(3&1))<
                            <3   | (1&&(2&1))<<2   | (1&&(1&1))<<1   | (1&&(0&1))<<0
04F6   341C               M               retlw  (1&&(0&2))<<7   | (1&&(0&2))<<6   | (1&&(1&2))<<5   | (1&&(2&2))<<4   | (1&&(3&2))<
                            <3   | (1&&(2&2))<<2   | (1&&(1&2))<<1   | (1&&(0&2))<<0
                      00642               hold 6
                          M               if (1>6)        || (6>254)
                          M                error "Hold value in sequence data is out of range. Must be between 1 and 254."    
MPASM  5.43                  PWMC_MAIN107.ASM   3-28-2012  11:36:08         PAGE 75


LOC  OBJECT CODE     LINE SOURCE TEXT
  VALUE

                          M               endif
04F7   3406               M               retlw  6
                      00643               sdat 0,0,0,1,2,3,2,1
04F8   3415               M               retlw  (1&&(0&1))<<7   | (1&&(0&1))<<6   | (1&&(0&1))<<5   | (1&&(1&1))<<4   | (1&&(2&1))<
                            <3   | (1&&(3&1))<<2   | (1&&(2&1))<<1   | (1&&(1&1))<<0
04F9   340E               M               retlw  (1&&(0&2))<<7   | (1&&(0&2))<<6   | (1&&(0&2))<<5   | (1&&(1&2))<<4   | (1&&(2&2))<
                            <3   | (1&&(3&2))<<2   | (1&&(2&2))<<1   | (1&&(1&2))<<0
                      00644               hold 6
                          M               if (1>6)        || (6>254)
                          M                error "Hold value in sequence data is out of range. Must be between 1 and 254."    
                          M               endif
04FA   3406               M               retlw  6
                      00645               sdat 1,0,0,0,1,2,3,2
04FB   348A               M               retlw  (1&&(1&1))<<7   | (1&&(0&1))<<6   | (1&&(0&1))<<5   | (1&&(0&1))<<4   | (1&&(1&1))<
                            <3   | (1&&(2&1))<<2   | (1&&(3&1))<<1   | (1&&(2&1))<<0
04FC   3407               M               retlw  (1&&(1&2))<<7   | (1&&(0&2))<<6   | (1&&(0&2))<<5   | (1&&(0&2))<<4   | (1&&(1&2))<
                            <3   | (1&&(2&2))<<2   | (1&&(3&2))<<1   | (1&&(2&2))<<0
                      00646               hold 6
                          M               if (1>6)        || (6>254)
                          M                error "Hold value in sequence data is out of range. Must be between 1 and 254."    
                          M               endif
04FD   3406               M               retlw  6
                      00647               sdat 2,1,0,0,0,1,2,3
04FE   3445               M               retlw  (1&&(2&1))<<7   | (1&&(1&1))<<6   | (1&&(0&1))<<5   | (1&&(0&1))<<4   | (1&&(0&1))<
                            <3   | (1&&(1&1))<<2   | (1&&(2&1))<<1   | (1&&(3&1))<<0
04FF   3483               M               retlw  (1&&(2&2))<<7   | (1&&(1&2))<<6   | (1&&(0&2))<<5   | (1&&(0&2))<<4   | (1&&(0&2))<
                            <3   | (1&&(1&2))<<2   | (1&&(2&2))<<1   | (1&&(3&2))<<0
                      00648 
                      00649               seqend
0500   34FF               M               retlw  .255
                      00650 
                      00651 ; ----------------------------------
                      00652 ; seq 21
                      00653 
                      00654               control 1,4
                          M               if (1>4)      || (4>31)
                          M                error "Repeat count in sequence data is out of range. Must be between 1 and 31."    
                          M               endif
0501   3444               M               retlw  (1&&1)<<6       | (4      & .31)
                      00655               hold 6
                          M               if (1>6)        || (6>254)
                          M                error "Hold value in sequence data is out of range. Must be between 1 and 254."    
                          M               endif
0502   3406               M               retlw  6
                      00656               sdat 1,0,0,0,0,0,0,0
0503   3480               M               retlw  (1&&(1&1))<<7   | (1&&(0&1))<<6   | (1&&(0&1))<<5   | (1&&(0&1))<<4   | (1&&(0&1))<
                            <3   | (1&&(0&1))<<2   | (1&&(0&1))<<1   | (1&&(0&1))<<0
0504   3400               M               retlw  (1&&(1&2))<<7   | (1&&(0&2))<<6   | (1&&(0&2))<<5   | (1&&(0&2))<<4   | (1&&(0&2))<
                            <3   | (1&&(0&2))<<2   | (1&&(0&2))<<1   | (1&&(0&2))<<0
                      00657               hold 6
                          M               if (1>6)        || (6>254)
                          M                error "Hold value in sequence data is out of range. Must be between 1 and 254."    
                          M               endif
MPASM  5.43                  PWMC_MAIN107.ASM   3-28-2012  11:36:08         PAGE 76


LOC  OBJECT CODE     LINE SOURCE TEXT
  VALUE

0505   3406               M               retlw  6
                      00658               sdat 0,1,0,0,0,0,0,0
0506   3440               M               retlw  (1&&(0&1))<<7   | (1&&(1&1))<<6   | (1&&(0&1))<<5   | (1&&(0&1))<<4   | (1&&(0&1))<
                            <3   | (1&&(0&1))<<2   | (1&&(0&1))<<1   | (1&&(0&1))<<0
0507   3400               M               retlw  (1&&(0&2))<<7   | (1&&(1&2))<<6   | (1&&(0&2))<<5   | (1&&(0&2))<<4   | (1&&(0&2))<
                            <3   | (1&&(0&2))<<2   | (1&&(0&2))<<1   | (1&&(0&2))<<0
                      00659               hold 6
                          M               if (1>6)        || (6>254)
                          M                error "Hold value in sequence data is out of range. Must be between 1 and 254."    
                          M               endif
0508   3406               M               retlw  6
                      00660               sdat 0,0,1,0,0,0,0,0
0509   3420               M               retlw  (1&&(0&1))<<7   | (1&&(0&1))<<6   | (1&&(1&1))<<5   | (1&&(0&1))<<4   | (1&&(0&1))<
                            <3   | (1&&(0&1))<<2   | (1&&(0&1))<<1   | (1&&(0&1))<<0
050A   3400               M               retlw  (1&&(0&2))<<7   | (1&&(0&2))<<6   | (1&&(1&2))<<5   | (1&&(0&2))<<4   | (1&&(0&2))<
                            <3   | (1&&(0&2))<<2   | (1&&(0&2))<<1   | (1&&(0&2))<<0
                      00661               hold 6
                          M               if (1>6)        || (6>254)
                          M                error "Hold value in sequence data is out of range. Must be between 1 and 254."    
                          M               endif
050B   3406               M               retlw  6
                      00662               sdat 0,0,0,1,0,0,0,0
050C   3410               M               retlw  (1&&(0&1))<<7   | (1&&(0&1))<<6   | (1&&(0&1))<<5   | (1&&(1&1))<<4   | (1&&(0&1))<
                            <3   | (1&&(0&1))<<2   | (1&&(0&1))<<1   | (1&&(0&1))<<0
050D   3400               M               retlw  (1&&(0&2))<<7   | (1&&(0&2))<<6   | (1&&(0&2))<<5   | (1&&(1&2))<<4   | (1&&(0&2))<
                            <3   | (1&&(0&2))<<2   | (1&&(0&2))<<1   | (1&&(0&2))<<0
                      00663               hold 6
                          M               if (1>6)        || (6>254)
                          M                error "Hold value in sequence data is out of range. Must be between 1 and 254."    
                          M               endif
050E   3406               M               retlw  6
                      00664               sdat 0,0,0,0,1,0,0,0
050F   3408               M               retlw  (1&&(0&1))<<7   | (1&&(0&1))<<6   | (1&&(0&1))<<5   | (1&&(0&1))<<4   | (1&&(1&1))<
                            <3   | (1&&(0&1))<<2   | (1&&(0&1))<<1   | (1&&(0&1))<<0
0510   3400               M               retlw  (1&&(0&2))<<7   | (1&&(0&2))<<6   | (1&&(0&2))<<5   | (1&&(0&2))<<4   | (1&&(1&2))<
                            <3   | (1&&(0&2))<<2   | (1&&(0&2))<<1   | (1&&(0&2))<<0
                      00665               hold 6
                          M               if (1>6)        || (6>254)
                          M                error "Hold value in sequence data is out of range. Must be between 1 and 254."    
                          M               endif
0511   3406               M               retlw  6
                      00666               sdat 0,0,0,0,0,1,0,0
0512   3404               M               retlw  (1&&(0&1))<<7   | (1&&(0&1))<<6   | (1&&(0&1))<<5   | (1&&(0&1))<<4   | (1&&(0&1))<
                            <3   | (1&&(1&1))<<2   | (1&&(0&1))<<1   | (1&&(0&1))<<0
0513   3400               M               retlw  (1&&(0&2))<<7   | (1&&(0&2))<<6   | (1&&(0&2))<<5   | (1&&(0&2))<<4   | (1&&(0&2))<
                            <3   | (1&&(1&2))<<2   | (1&&(0&2))<<1   | (1&&(0&2))<<0
                      00667               hold 6
                          M               if (1>6)        || (6>254)
                          M                error "Hold value in sequence data is out of range. Must be between 1 and 254."    
                          M               endif
0514   3406               M               retlw  6
                      00668               sdat 0,0,0,0,0,0,1,0
0515   3402               M               retlw  (1&&(0&1))<<7   | (1&&(0&1))<<6   | (1&&(0&1))<<5   | (1&&(0&1))<<4   | (1&&(0&1))<
MPASM  5.43                  PWMC_MAIN107.ASM   3-28-2012  11:36:08         PAGE 77


LOC  OBJECT CODE     LINE SOURCE TEXT
  VALUE

                            <3   | (1&&(0&1))<<2   | (1&&(1&1))<<1   | (1&&(0&1))<<0
0516   3400               M               retlw  (1&&(0&2))<<7   | (1&&(0&2))<<6   | (1&&(0&2))<<5   | (1&&(0&2))<<4   | (1&&(0&2))<
                            <3   | (1&&(0&2))<<2   | (1&&(1&2))<<1   | (1&&(0&2))<<0
                      00669               hold 6
                          M               if (1>6)        || (6>254)
                          M                error "Hold value in sequence data is out of range. Must be between 1 and 254."    
                          M               endif
0517   3406               M               retlw  6
                      00670               sdat 0,0,0,0,0,0,0,2
0518   3400               M               retlw  (1&&(0&1))<<7   | (1&&(0&1))<<6   | (1&&(0&1))<<5   | (1&&(0&1))<<4   | (1&&(0&1))<
                            <3   | (1&&(0&1))<<2   | (1&&(0&1))<<1   | (1&&(2&1))<<0
0519   3401               M               retlw  (1&&(0&2))<<7   | (1&&(0&2))<<6   | (1&&(0&2))<<5   | (1&&(0&2))<<4   | (1&&(0&2))<
                            <3   | (1&&(0&2))<<2   | (1&&(0&2))<<1   | (1&&(2&2))<<0
                      00671 
                      00672               hold 6
                          M               if (1>6)        || (6>254)
                          M                error "Hold value in sequence data is out of range. Must be between 1 and 254."    
                          M               endif
051A   3406               M               retlw  6
                      00673               sdat 1,0,0,0,0,0,0,2
051B   3480               M               retlw  (1&&(1&1))<<7   | (1&&(0&1))<<6   | (1&&(0&1))<<5   | (1&&(0&1))<<4   | (1&&(0&1))<
                            <3   | (1&&(0&1))<<2   | (1&&(0&1))<<1   | (1&&(2&1))<<0
051C   3401               M               retlw  (1&&(1&2))<<7   | (1&&(0&2))<<6   | (1&&(0&2))<<5   | (1&&(0&2))<<4   | (1&&(0&2))<
                            <3   | (1&&(0&2))<<2   | (1&&(0&2))<<1   | (1&&(2&2))<<0
                      00674               hold 6
                          M               if (1>6)        || (6>254)
                          M                error "Hold value in sequence data is out of range. Must be between 1 and 254."    
                          M               endif
051D   3406               M               retlw  6
                      00675               sdat 0,1,0,0,0,0,0,2
051E   3440               M               retlw  (1&&(0&1))<<7   | (1&&(1&1))<<6   | (1&&(0&1))<<5   | (1&&(0&1))<<4   | (1&&(0&1))<
                            <3   | (1&&(0&1))<<2   | (1&&(0&1))<<1   | (1&&(2&1))<<0
051F   3401               M               retlw  (1&&(0&2))<<7   | (1&&(1&2))<<6   | (1&&(0&2))<<5   | (1&&(0&2))<<4   | (1&&(0&2))<
                            <3   | (1&&(0&2))<<2   | (1&&(0&2))<<1   | (1&&(2&2))<<0
                      00676               hold 6
                          M               if (1>6)        || (6>254)
                          M                error "Hold value in sequence data is out of range. Must be between 1 and 254."    
                          M               endif
0520   3406               M               retlw  6
                      00677               sdat 0,0,1,0,0,0,0,2
0521   3420               M               retlw  (1&&(0&1))<<7   | (1&&(0&1))<<6   | (1&&(1&1))<<5   | (1&&(0&1))<<4   | (1&&(0&1))<
                            <3   | (1&&(0&1))<<2   | (1&&(0&1))<<1   | (1&&(2&1))<<0
0522   3401               M               retlw  (1&&(0&2))<<7   | (1&&(0&2))<<6   | (1&&(1&2))<<5   | (1&&(0&2))<<4   | (1&&(0&2))<
                            <3   | (1&&(0&2))<<2   | (1&&(0&2))<<1   | (1&&(2&2))<<0
                      00678               hold 6
                          M               if (1>6)        || (6>254)
                          M                error "Hold value in sequence data is out of range. Must be between 1 and 254."    
                          M               endif
0523   3406               M               retlw  6
                      00679               sdat 0,0,0,1,0,0,0,2
0524   3410               M               retlw  (1&&(0&1))<<7   | (1&&(0&1))<<6   | (1&&(0&1))<<5   | (1&&(1&1))<<4   | (1&&(0&1))<
                            <3   | (1&&(0&1))<<2   | (1&&(0&1))<<1   | (1&&(2&1))<<0
0525   3401               M               retlw  (1&&(0&2))<<7   | (1&&(0&2))<<6   | (1&&(0&2))<<5   | (1&&(1&2))<<4   | (1&&(0&2))<
MPASM  5.43                  PWMC_MAIN107.ASM   3-28-2012  11:36:08         PAGE 78


LOC  OBJECT CODE     LINE SOURCE TEXT
  VALUE

                            <3   | (1&&(0&2))<<2   | (1&&(0&2))<<1   | (1&&(2&2))<<0
                      00680               hold 6
                          M               if (1>6)        || (6>254)
                          M                error "Hold value in sequence data is out of range. Must be between 1 and 254."    
                          M               endif
0526   3406               M               retlw  6
                      00681               sdat 0,0,0,0,1,0,0,2
0527   3408               M               retlw  (1&&(0&1))<<7   | (1&&(0&1))<<6   | (1&&(0&1))<<5   | (1&&(0&1))<<4   | (1&&(1&1))<
                            <3   | (1&&(0&1))<<2   | (1&&(0&1))<<1   | (1&&(2&1))<<0
0528   3401               M               retlw  (1&&(0&2))<<7   | (1&&(0&2))<<6   | (1&&(0&2))<<5   | (1&&(0&2))<<4   | (1&&(1&2))<
                            <3   | (1&&(0&2))<<2   | (1&&(0&2))<<1   | (1&&(2&2))<<0
                      00682               hold 6
                          M               if (1>6)        || (6>254)
                          M                error "Hold value in sequence data is out of range. Must be between 1 and 254."    
                          M               endif
0529   3406               M               retlw  6
                      00683               sdat 0,0,0,0,0,1,0,2
052A   3404               M               retlw  (1&&(0&1))<<7   | (1&&(0&1))<<6   | (1&&(0&1))<<5   | (1&&(0&1))<<4   | (1&&(0&1))<
                            <3   | (1&&(1&1))<<2   | (1&&(0&1))<<1   | (1&&(2&1))<<0
052B   3401               M               retlw  (1&&(0&2))<<7   | (1&&(0&2))<<6   | (1&&(0&2))<<5   | (1&&(0&2))<<4   | (1&&(0&2))<
                            <3   | (1&&(1&2))<<2   | (1&&(0&2))<<1   | (1&&(2&2))<<0
                      00684               hold 6
                          M               if (1>6)        || (6>254)
                          M                error "Hold value in sequence data is out of range. Must be between 1 and 254."    
                          M               endif
052C   3406               M               retlw  6
                      00685               sdat 0,0,0,0,0,0,2,2
052D   3400               M               retlw  (1&&(0&1))<<7   | (1&&(0&1))<<6   | (1&&(0&1))<<5   | (1&&(0&1))<<4   | (1&&(0&1))<
                            <3   | (1&&(0&1))<<2   | (1&&(2&1))<<1   | (1&&(2&1))<<0
052E   3403               M               retlw  (1&&(0&2))<<7   | (1&&(0&2))<<6   | (1&&(0&2))<<5   | (1&&(0&2))<<4   | (1&&(0&2))<
                            <3   | (1&&(0&2))<<2   | (1&&(2&2))<<1   | (1&&(2&2))<<0
                      00686               
                      00687 
                      00688               hold 6
                          M               if (1>6)        || (6>254)
                          M                error "Hold value in sequence data is out of range. Must be between 1 and 254."    
                          M               endif
052F   3406               M               retlw  6
                      00689               sdat 1,0,0,0,0,0,2,2
0530   3480               M               retlw  (1&&(1&1))<<7   | (1&&(0&1))<<6   | (1&&(0&1))<<5   | (1&&(0&1))<<4   | (1&&(0&1))<
                            <3   | (1&&(0&1))<<2   | (1&&(2&1))<<1   | (1&&(2&1))<<0
0531   3403               M               retlw  (1&&(1&2))<<7   | (1&&(0&2))<<6   | (1&&(0&2))<<5   | (1&&(0&2))<<4   | (1&&(0&2))<
                            <3   | (1&&(0&2))<<2   | (1&&(2&2))<<1   | (1&&(2&2))<<0
                      00690               hold 6
                          M               if (1>6)        || (6>254)
                          M                error "Hold value in sequence data is out of range. Must be between 1 and 254."    
                          M               endif
0532   3406               M               retlw  6
                      00691               sdat 0,1,0,0,0,0,2,2
0533   3440               M               retlw  (1&&(0&1))<<7   | (1&&(1&1))<<6   | (1&&(0&1))<<5   | (1&&(0&1))<<4   | (1&&(0&1))<
                            <3   | (1&&(0&1))<<2   | (1&&(2&1))<<1   | (1&&(2&1))<<0
0534   3403               M               retlw  (1&&(0&2))<<7   | (1&&(1&2))<<6   | (1&&(0&2))<<5   | (1&&(0&2))<<4   | (1&&(0&2))<
                            <3   | (1&&(0&2))<<2   | (1&&(2&2))<<1   | (1&&(2&2))<<0
MPASM  5.43                  PWMC_MAIN107.ASM   3-28-2012  11:36:08         PAGE 79


LOC  OBJECT CODE     LINE SOURCE TEXT
  VALUE

                      00692               hold 6
                          M               if (1>6)        || (6>254)
                          M                error "Hold value in sequence data is out of range. Must be between 1 and 254."    
                          M               endif
0535   3406               M               retlw  6
                      00693               sdat 0,0,1,0,0,0,2,2
0536   3420               M               retlw  (1&&(0&1))<<7   | (1&&(0&1))<<6   | (1&&(1&1))<<5   | (1&&(0&1))<<4   | (1&&(0&1))<
                            <3   | (1&&(0&1))<<2   | (1&&(2&1))<<1   | (1&&(2&1))<<0
0537   3403               M               retlw  (1&&(0&2))<<7   | (1&&(0&2))<<6   | (1&&(1&2))<<5   | (1&&(0&2))<<4   | (1&&(0&2))<
                            <3   | (1&&(0&2))<<2   | (1&&(2&2))<<1   | (1&&(2&2))<<0
                      00694               hold 6
                          M               if (1>6)        || (6>254)
                          M                error "Hold value in sequence data is out of range. Must be between 1 and 254."    
                          M               endif
0538   3406               M               retlw  6
                      00695               sdat 0,0,0,1,0,0,2,2
0539   3410               M               retlw  (1&&(0&1))<<7   | (1&&(0&1))<<6   | (1&&(0&1))<<5   | (1&&(1&1))<<4   | (1&&(0&1))<
                            <3   | (1&&(0&1))<<2   | (1&&(2&1))<<1   | (1&&(2&1))<<0
053A   3403               M               retlw  (1&&(0&2))<<7   | (1&&(0&2))<<6   | (1&&(0&2))<<5   | (1&&(1&2))<<4   | (1&&(0&2))<
                            <3   | (1&&(0&2))<<2   | (1&&(2&2))<<1   | (1&&(2&2))<<0
                      00696               hold 6
                          M               if (1>6)        || (6>254)
                          M                error "Hold value in sequence data is out of range. Must be between 1 and 254."    
                          M               endif
053B   3406               M               retlw  6
                      00697               sdat 0,0,0,0,1,0,2,2
053C   3408               M               retlw  (1&&(0&1))<<7   | (1&&(0&1))<<6   | (1&&(0&1))<<5   | (1&&(0&1))<<4   | (1&&(1&1))<
                            <3   | (1&&(0&1))<<2   | (1&&(2&1))<<1   | (1&&(2&1))<<0
053D   3403               M               retlw  (1&&(0&2))<<7   | (1&&(0&2))<<6   | (1&&(0&2))<<5   | (1&&(0&2))<<4   | (1&&(1&2))<
                            <3   | (1&&(0&2))<<2   | (1&&(2&2))<<1   | (1&&(2&2))<<0
                      00698               hold 6
                          M               if (1>6)        || (6>254)
                          M                error "Hold value in sequence data is out of range. Must be between 1 and 254."    
                          M               endif
053E   3406               M               retlw  6
                      00699               sdat 0,0,0,0,0,2,2,2
053F   3400               M               retlw  (1&&(0&1))<<7   | (1&&(0&1))<<6   | (1&&(0&1))<<5   | (1&&(0&1))<<4   | (1&&(0&1))<
                            <3   | (1&&(2&1))<<2   | (1&&(2&1))<<1   | (1&&(2&1))<<0
0540   3407               M               retlw  (1&&(0&2))<<7   | (1&&(0&2))<<6   | (1&&(0&2))<<5   | (1&&(0&2))<<4   | (1&&(0&2))<
                            <3   | (1&&(2&2))<<2   | (1&&(2&2))<<1   | (1&&(2&2))<<0
                      00700               
                      00701               hold 6
                          M               if (1>6)        || (6>254)
                          M                error "Hold value in sequence data is out of range. Must be between 1 and 254."    
                          M               endif
0541   3406               M               retlw  6
                      00702               sdat 1,0,0,0,0,2,2,2
0542   3480               M               retlw  (1&&(1&1))<<7   | (1&&(0&1))<<6   | (1&&(0&1))<<5   | (1&&(0&1))<<4   | (1&&(0&1))<
                            <3   | (1&&(2&1))<<2   | (1&&(2&1))<<1   | (1&&(2&1))<<0
0543   3407               M               retlw  (1&&(1&2))<<7   | (1&&(0&2))<<6   | (1&&(0&2))<<5   | (1&&(0&2))<<4   | (1&&(0&2))<
                            <3   | (1&&(2&2))<<2   | (1&&(2&2))<<1   | (1&&(2&2))<<0
                      00703               hold 6
                          M               if (1>6)        || (6>254)
MPASM  5.43                  PWMC_MAIN107.ASM   3-28-2012  11:36:08         PAGE 80


LOC  OBJECT CODE     LINE SOURCE TEXT
  VALUE

                          M                error "Hold value in sequence data is out of range. Must be between 1 and 254."    
                          M               endif
0544   3406               M               retlw  6
                      00704               sdat 0,1,0,0,0,2,2,2
0545   3440               M               retlw  (1&&(0&1))<<7   | (1&&(1&1))<<6   | (1&&(0&1))<<5   | (1&&(0&1))<<4   | (1&&(0&1))<
                            <3   | (1&&(2&1))<<2   | (1&&(2&1))<<1   | (1&&(2&1))<<0
0546   3407               M               retlw  (1&&(0&2))<<7   | (1&&(1&2))<<6   | (1&&(0&2))<<5   | (1&&(0&2))<<4   | (1&&(0&2))<
                            <3   | (1&&(2&2))<<2   | (1&&(2&2))<<1   | (1&&(2&2))<<0
                      00705               hold 6
                          M               if (1>6)        || (6>254)
                          M                error "Hold value in sequence data is out of range. Must be between 1 and 254."    
                          M               endif
0547   3406               M               retlw  6
                      00706               sdat 0,0,1,0,0,2,2,2
0548   3420               M               retlw  (1&&(0&1))<<7   | (1&&(0&1))<<6   | (1&&(1&1))<<5   | (1&&(0&1))<<4   | (1&&(0&1))<
                            <3   | (1&&(2&1))<<2   | (1&&(2&1))<<1   | (1&&(2&1))<<0
0549   3407               M               retlw  (1&&(0&2))<<7   | (1&&(0&2))<<6   | (1&&(1&2))<<5   | (1&&(0&2))<<4   | (1&&(0&2))<
                            <3   | (1&&(2&2))<<2   | (1&&(2&2))<<1   | (1&&(2&2))<<0
                      00707               hold 6
                          M               if (1>6)        || (6>254)
                          M                error "Hold value in sequence data is out of range. Must be between 1 and 254."    
                          M               endif
054A   3406               M               retlw  6
                      00708               sdat 0,0,0,1,0,2,2,2
054B   3410               M               retlw  (1&&(0&1))<<7   | (1&&(0&1))<<6   | (1&&(0&1))<<5   | (1&&(1&1))<<4   | (1&&(0&1))<
                            <3   | (1&&(2&1))<<2   | (1&&(2&1))<<1   | (1&&(2&1))<<0
054C   3407               M               retlw  (1&&(0&2))<<7   | (1&&(0&2))<<6   | (1&&(0&2))<<5   | (1&&(1&2))<<4   | (1&&(0&2))<
                            <3   | (1&&(2&2))<<2   | (1&&(2&2))<<1   | (1&&(2&2))<<0
                      00709               hold 6
                          M               if (1>6)        || (6>254)
                          M                error "Hold value in sequence data is out of range. Must be between 1 and 254."    
                          M               endif
054D   3406               M               retlw  6
                      00710               sdat 0,0,0,0,2,2,2,2
054E   3400               M               retlw  (1&&(0&1))<<7   | (1&&(0&1))<<6   | (1&&(0&1))<<5   | (1&&(0&1))<<4   | (1&&(2&1))<
                            <3   | (1&&(2&1))<<2   | (1&&(2&1))<<1   | (1&&(2&1))<<0
054F   340F               M               retlw  (1&&(0&2))<<7   | (1&&(0&2))<<6   | (1&&(0&2))<<5   | (1&&(0&2))<<4   | (1&&(2&2))<
                            <3   | (1&&(2&2))<<2   | (1&&(2&2))<<1   | (1&&(2&2))<<0
                      00711               
                      00712               hold 6
                          M               if (1>6)        || (6>254)
                          M                error "Hold value in sequence data is out of range. Must be between 1 and 254."    
                          M               endif
0550   3406               M               retlw  6
                      00713               sdat 1,0,0,0,2,2,2,2
0551   3480               M               retlw  (1&&(1&1))<<7   | (1&&(0&1))<<6   | (1&&(0&1))<<5   | (1&&(0&1))<<4   | (1&&(2&1))<
                            <3   | (1&&(2&1))<<2   | (1&&(2&1))<<1   | (1&&(2&1))<<0
0552   340F               M               retlw  (1&&(1&2))<<7   | (1&&(0&2))<<6   | (1&&(0&2))<<5   | (1&&(0&2))<<4   | (1&&(2&2))<
                            <3   | (1&&(2&2))<<2   | (1&&(2&2))<<1   | (1&&(2&2))<<0
                      00714               hold 6
                          M               if (1>6)        || (6>254)
                          M                error "Hold value in sequence data is out of range. Must be between 1 and 254."    
                          M               endif
MPASM  5.43                  PWMC_MAIN107.ASM   3-28-2012  11:36:08         PAGE 81


LOC  OBJECT CODE     LINE SOURCE TEXT
  VALUE

0553   3406               M               retlw  6
                      00715               sdat 0,1,0,0,2,2,2,2
0554   3440               M               retlw  (1&&(0&1))<<7   | (1&&(1&1))<<6   | (1&&(0&1))<<5   | (1&&(0&1))<<4   | (1&&(2&1))<
                            <3   | (1&&(2&1))<<2   | (1&&(2&1))<<1   | (1&&(2&1))<<0
0555   340F               M               retlw  (1&&(0&2))<<7   | (1&&(1&2))<<6   | (1&&(0&2))<<5   | (1&&(0&2))<<4   | (1&&(2&2))<
                            <3   | (1&&(2&2))<<2   | (1&&(2&2))<<1   | (1&&(2&2))<<0
                      00716               hold 6
                          M               if (1>6)        || (6>254)
                          M                error "Hold value in sequence data is out of range. Must be between 1 and 254."    
                          M               endif
0556   3406               M               retlw  6
                      00717               sdat 0,0,1,0,2,2,2,2
0557   3420               M               retlw  (1&&(0&1))<<7   | (1&&(0&1))<<6   | (1&&(1&1))<<5   | (1&&(0&1))<<4   | (1&&(2&1))<
                            <3   | (1&&(2&1))<<2   | (1&&(2&1))<<1   | (1&&(2&1))<<0
0558   340F               M               retlw  (1&&(0&2))<<7   | (1&&(0&2))<<6   | (1&&(1&2))<<5   | (1&&(0&2))<<4   | (1&&(2&2))<
                            <3   | (1&&(2&2))<<2   | (1&&(2&2))<<1   | (1&&(2&2))<<0
                      00718               hold 6
                          M               if (1>6)        || (6>254)
                          M                error "Hold value in sequence data is out of range. Must be between 1 and 254."    
                          M               endif
0559   3406               M               retlw  6
                      00719               sdat 0,0,0,2,2,2,2,2
055A   3400               M               retlw  (1&&(0&1))<<7   | (1&&(0&1))<<6   | (1&&(0&1))<<5   | (1&&(2&1))<<4   | (1&&(2&1))<
                            <3   | (1&&(2&1))<<2   | (1&&(2&1))<<1   | (1&&(2&1))<<0
055B   341F               M               retlw  (1&&(0&2))<<7   | (1&&(0&2))<<6   | (1&&(0&2))<<5   | (1&&(2&2))<<4   | (1&&(2&2))<
                            <3   | (1&&(2&2))<<2   | (1&&(2&2))<<1   | (1&&(2&2))<<0
                      00720               
                      00721               hold 6
                          M               if (1>6)        || (6>254)
                          M                error "Hold value in sequence data is out of range. Must be between 1 and 254."    
                          M               endif
055C   3406               M               retlw  6
                      00722               sdat 1,0,0,2,2,2,2,2
055D   3480               M               retlw  (1&&(1&1))<<7   | (1&&(0&1))<<6   | (1&&(0&1))<<5   | (1&&(2&1))<<4   | (1&&(2&1))<
                            <3   | (1&&(2&1))<<2   | (1&&(2&1))<<1   | (1&&(2&1))<<0
055E   341F               M               retlw  (1&&(1&2))<<7   | (1&&(0&2))<<6   | (1&&(0&2))<<5   | (1&&(2&2))<<4   | (1&&(2&2))<
                            <3   | (1&&(2&2))<<2   | (1&&(2&2))<<1   | (1&&(2&2))<<0
                      00723               hold 6
                          M               if (1>6)        || (6>254)
                          M                error "Hold value in sequence data is out of range. Must be between 1 and 254."    
                          M               endif
055F   3406               M               retlw  6
                      00724               sdat 0,1,0,2,2,2,2,2
0560   3440               M               retlw  (1&&(0&1))<<7   | (1&&(1&1))<<6   | (1&&(0&1))<<5   | (1&&(2&1))<<4   | (1&&(2&1))<
                            <3   | (1&&(2&1))<<2   | (1&&(2&1))<<1   | (1&&(2&1))<<0
0561   341F               M               retlw  (1&&(0&2))<<7   | (1&&(1&2))<<6   | (1&&(0&2))<<5   | (1&&(2&2))<<4   | (1&&(2&2))<
                            <3   | (1&&(2&2))<<2   | (1&&(2&2))<<1   | (1&&(2&2))<<0
                      00725               hold 6
                          M               if (1>6)        || (6>254)
                          M                error "Hold value in sequence data is out of range. Must be between 1 and 254."    
                          M               endif
0562   3406               M               retlw  6
                      00726               sdat 0,0,2,2,2,2,2,2
MPASM  5.43                  PWMC_MAIN107.ASM   3-28-2012  11:36:08         PAGE 82


LOC  OBJECT CODE     LINE SOURCE TEXT
  VALUE

0563   3400               M               retlw  (1&&(0&1))<<7   | (1&&(0&1))<<6   | (1&&(2&1))<<5   | (1&&(2&1))<<4   | (1&&(2&1))<
                            <3   | (1&&(2&1))<<2   | (1&&(2&1))<<1   | (1&&(2&1))<<0
0564   343F               M               retlw  (1&&(0&2))<<7   | (1&&(0&2))<<6   | (1&&(2&2))<<5   | (1&&(2&2))<<4   | (1&&(2&2))<
                            <3   | (1&&(2&2))<<2   | (1&&(2&2))<<1   | (1&&(2&2))<<0
                      00727               
                      00728               hold 6
                          M               if (1>6)        || (6>254)
                          M                error "Hold value in sequence data is out of range. Must be between 1 and 254."    
                          M               endif
0565   3406               M               retlw  6
                      00729               sdat 1,0,2,2,2,2,2,2
0566   3480               M               retlw  (1&&(1&1))<<7   | (1&&(0&1))<<6   | (1&&(2&1))<<5   | (1&&(2&1))<<4   | (1&&(2&1))<
                            <3   | (1&&(2&1))<<2   | (1&&(2&1))<<1   | (1&&(2&1))<<0
0567   343F               M               retlw  (1&&(1&2))<<7   | (1&&(0&2))<<6   | (1&&(2&2))<<5   | (1&&(2&2))<<4   | (1&&(2&2))<
                            <3   | (1&&(2&2))<<2   | (1&&(2&2))<<1   | (1&&(2&2))<<0
                      00730               hold 6
                          M               if (1>6)        || (6>254)
                          M                error "Hold value in sequence data is out of range. Must be between 1 and 254."    
                          M               endif
0568   3406               M               retlw  6
                      00731               sdat 0,2,2,2,2,2,2,2
0569   3400               M               retlw  (1&&(0&1))<<7   | (1&&(2&1))<<6   | (1&&(2&1))<<5   | (1&&(2&1))<<4   | (1&&(2&1))<
                            <3   | (1&&(2&1))<<2   | (1&&(2&1))<<1   | (1&&(2&1))<<0
056A   347F               M               retlw  (1&&(0&2))<<7   | (1&&(2&2))<<6   | (1&&(2&2))<<5   | (1&&(2&2))<<4   | (1&&(2&2))<
                            <3   | (1&&(2&2))<<2   | (1&&(2&2))<<1   | (1&&(2&2))<<0
                      00732               
                      00733               hold 6
                          M               if (1>6)        || (6>254)
                          M                error "Hold value in sequence data is out of range. Must be between 1 and 254."    
                          M               endif
056B   3406               M               retlw  6
                      00734               sdat 2,2,2,2,2,2,2,2
056C   3400               M               retlw  (1&&(2&1))<<7   | (1&&(2&1))<<6   | (1&&(2&1))<<5   | (1&&(2&1))<<4   | (1&&(2&1))<
                            <3   | (1&&(2&1))<<2   | (1&&(2&1))<<1   | (1&&(2&1))<<0
056D   34FF               M               retlw  (1&&(2&2))<<7   | (1&&(2&2))<<6   | (1&&(2&2))<<5   | (1&&(2&2))<<4   | (1&&(2&2))<
                            <3   | (1&&(2&2))<<2   | (1&&(2&2))<<1   | (1&&(2&2))<<0
                      00735               
                      00736               hold 6
                          M               if (1>6)        || (6>254)
                          M                error "Hold value in sequence data is out of range. Must be between 1 and 254."    
                          M               endif
056E   3406               M               retlw  6
                      00737               sdat 3,3,3,3,3,3,3,3
056F   34FF               M               retlw  (1&&(3&1))<<7   | (1&&(3&1))<<6   | (1&&(3&1))<<5   | (1&&(3&1))<<4   | (1&&(3&1))<
                            <3   | (1&&(3&1))<<2   | (1&&(3&1))<<1   | (1&&(3&1))<<0
0570   34FF               M               retlw  (1&&(3&2))<<7   | (1&&(3&2))<<6   | (1&&(3&2))<<5   | (1&&(3&2))<<4   | (1&&(3&2))<
                            <3   | (1&&(3&2))<<2   | (1&&(3&2))<<1   | (1&&(3&2))<<0
                      00738               hold 1
                          M               if (1>1)        || (1>254)
                          M                error "Hold value in sequence data is out of range. Must be between 1 and 254."    
                          M               endif
0571   3401               M               retlw  1
                      00739               sdat 0,0,0,0,0,0,0,0
MPASM  5.43                  PWMC_MAIN107.ASM   3-28-2012  11:36:08         PAGE 83


LOC  OBJECT CODE     LINE SOURCE TEXT
  VALUE

0572   3400               M               retlw  (1&&(0&1))<<7   | (1&&(0&1))<<6   | (1&&(0&1))<<5   | (1&&(0&1))<<4   | (1&&(0&1))<
                            <3   | (1&&(0&1))<<2   | (1&&(0&1))<<1   | (1&&(0&1))<<0
0573   3400               M               retlw  (1&&(0&2))<<7   | (1&&(0&2))<<6   | (1&&(0&2))<<5   | (1&&(0&2))<<4   | (1&&(0&2))<
                            <3   | (1&&(0&2))<<2   | (1&&(0&2))<<1   | (1&&(0&2))<<0
                      00740               
                      00741               seqend
0574   34FF               M               retlw  .255
                      00742 
                      00743 ; ----------------------------------
                      00744 ; seq 22
                      00745 
                      00746         control 0,10
                          M               if (1>10)     || (10>31)
                          M                error "Repeat count in sequence data is out of range. Must be between 1 and 31."    
                          M               endif
0575   340A               M               retlw  (1&&0)<<6       | (10     & .31)
                      00747               hold 9
                          M               if (1>9)        || (9>254)
                          M                error "Hold value in sequence data is out of range. Must be between 1 and 254."    
                          M               endif
0576   3409               M               retlw  9
                      00748               sdat 3,3,0,0,0,0,3,3
0577   34C3               M               retlw  (1&&(3&1))<<7   | (1&&(3&1))<<6   | (1&&(0&1))<<5   | (1&&(0&1))<<4   | (1&&(0&1))<
                            <3   | (1&&(0&1))<<2   | (1&&(3&1))<<1   | (1&&(3&1))<<0
0578   34C3               M               retlw  (1&&(3&2))<<7   | (1&&(3&2))<<6   | (1&&(0&2))<<5   | (1&&(0&2))<<4   | (1&&(0&2))<
                            <3   | (1&&(0&2))<<2   | (1&&(3&2))<<1   | (1&&(3&2))<<0
                      00749         hold 6
                          M               if (1>6)        || (6>254)
                          M                error "Hold value in sequence data is out of range. Must be between 1 and 254."    
                          M               endif
0579   3406               M               retlw  6
                      00750               sdat 0,0,0,0,0,0,0,0
057A   3400               M               retlw  (1&&(0&1))<<7   | (1&&(0&1))<<6   | (1&&(0&1))<<5   | (1&&(0&1))<<4   | (1&&(0&1))<
                            <3   | (1&&(0&1))<<2   | (1&&(0&1))<<1   | (1&&(0&1))<<0
057B   3400               M               retlw  (1&&(0&2))<<7   | (1&&(0&2))<<6   | (1&&(0&2))<<5   | (1&&(0&2))<<4   | (1&&(0&2))<
                            <3   | (1&&(0&2))<<2   | (1&&(0&2))<<1   | (1&&(0&2))<<0
                      00751         hold 9
                          M               if (1>9)        || (9>254)
                          M                error "Hold value in sequence data is out of range. Must be between 1 and 254."    
                          M               endif
057C   3409               M               retlw  9
                      00752               sdat 3,3,0,0,0,0,3,3
057D   34C3               M               retlw  (1&&(3&1))<<7   | (1&&(3&1))<<6   | (1&&(0&1))<<5   | (1&&(0&1))<<4   | (1&&(0&1))<
                            <3   | (1&&(0&1))<<2   | (1&&(3&1))<<1   | (1&&(3&1))<<0
057E   34C3               M               retlw  (1&&(3&2))<<7   | (1&&(3&2))<<6   | (1&&(0&2))<<5   | (1&&(0&2))<<4   | (1&&(0&2))<
                            <3   | (1&&(0&2))<<2   | (1&&(3&2))<<1   | (1&&(3&2))<<0
                      00753         hold 6
                          M               if (1>6)        || (6>254)
                          M                error "Hold value in sequence data is out of range. Must be between 1 and 254."    
                          M               endif
057F   3406               M               retlw  6
                      00754               sdat 0,0,0,0,0,0,0,0
0580   3400               M               retlw  (1&&(0&1))<<7   | (1&&(0&1))<<6   | (1&&(0&1))<<5   | (1&&(0&1))<<4   | (1&&(0&1))<
MPASM  5.43                  PWMC_MAIN107.ASM   3-28-2012  11:36:08         PAGE 84


LOC  OBJECT CODE     LINE SOURCE TEXT
  VALUE

                            <3   | (1&&(0&1))<<2   | (1&&(0&1))<<1   | (1&&(0&1))<<0
0581   3400               M               retlw  (1&&(0&2))<<7   | (1&&(0&2))<<6   | (1&&(0&2))<<5   | (1&&(0&2))<<4   | (1&&(0&2))<
                            <3   | (1&&(0&2))<<2   | (1&&(0&2))<<1   | (1&&(0&2))<<0
                      00755 
                      00756         hold 9
                          M               if (1>9)        || (9>254)
                          M                error "Hold value in sequence data is out of range. Must be between 1 and 254."    
                          M               endif
0582   3409               M               retlw  9
                      00757               sdat 0,0,3,3,3,3,0,0
0583   343C               M               retlw  (1&&(0&1))<<7   | (1&&(0&1))<<6   | (1&&(3&1))<<5   | (1&&(3&1))<<4   | (1&&(3&1))<
                            <3   | (1&&(3&1))<<2   | (1&&(0&1))<<1   | (1&&(0&1))<<0
0584   343C               M               retlw  (1&&(0&2))<<7   | (1&&(0&2))<<6   | (1&&(3&2))<<5   | (1&&(3&2))<<4   | (1&&(3&2))<
                            <3   | (1&&(3&2))<<2   | (1&&(0&2))<<1   | (1&&(0&2))<<0
                      00758         hold 6
                          M               if (1>6)        || (6>254)
                          M                error "Hold value in sequence data is out of range. Must be between 1 and 254."    
                          M               endif
0585   3406               M               retlw  6
                      00759               sdat 0,0,0,0,0,0,0,0
0586   3400               M               retlw  (1&&(0&1))<<7   | (1&&(0&1))<<6   | (1&&(0&1))<<5   | (1&&(0&1))<<4   | (1&&(0&1))<
                            <3   | (1&&(0&1))<<2   | (1&&(0&1))<<1   | (1&&(0&1))<<0
0587   3400               M               retlw  (1&&(0&2))<<7   | (1&&(0&2))<<6   | (1&&(0&2))<<5   | (1&&(0&2))<<4   | (1&&(0&2))<
                            <3   | (1&&(0&2))<<2   | (1&&(0&2))<<1   | (1&&(0&2))<<0
                      00760         hold 9
                          M               if (1>9)        || (9>254)
                          M                error "Hold value in sequence data is out of range. Must be between 1 and 254."    
                          M               endif
0588   3409               M               retlw  9
                      00761               sdat 0,0,3,3,3,3,0,0
0589   343C               M               retlw  (1&&(0&1))<<7   | (1&&(0&1))<<6   | (1&&(3&1))<<5   | (1&&(3&1))<<4   | (1&&(3&1))<
                            <3   | (1&&(3&1))<<2   | (1&&(0&1))<<1   | (1&&(0&1))<<0
058A   343C               M               retlw  (1&&(0&2))<<7   | (1&&(0&2))<<6   | (1&&(3&2))<<5   | (1&&(3&2))<<4   | (1&&(3&2))<
                            <3   | (1&&(3&2))<<2   | (1&&(0&2))<<1   | (1&&(0&2))<<0
                      00762         hold 6
                          M               if (1>6)        || (6>254)
                          M                error "Hold value in sequence data is out of range. Must be between 1 and 254."    
                          M               endif
058B   3406               M               retlw  6
                      00763               sdat 0,0,0,0,0,0,0,0
058C   3400               M               retlw  (1&&(0&1))<<7   | (1&&(0&1))<<6   | (1&&(0&1))<<5   | (1&&(0&1))<<4   | (1&&(0&1))<
                            <3   | (1&&(0&1))<<2   | (1&&(0&1))<<1   | (1&&(0&1))<<0
058D   3400               M               retlw  (1&&(0&2))<<7   | (1&&(0&2))<<6   | (1&&(0&2))<<5   | (1&&(0&2))<<4   | (1&&(0&2))<
                            <3   | (1&&(0&2))<<2   | (1&&(0&2))<<1   | (1&&(0&2))<<0
                      00764 
                      00765         seqend
058E   34FF               M               retlw  .255
                      00766 
                      00767 ; ----------------------------------
                      00768 
                      00769 ; seq 23
                      00770 
                      00771         control 0,10
MPASM  5.43                  PWMC_MAIN107.ASM   3-28-2012  11:36:08         PAGE 85


LOC  OBJECT CODE     LINE SOURCE TEXT
  VALUE

                          M               if (1>10)     || (10>31)
                          M                error "Repeat count in sequence data is out of range. Must be between 1 and 31."    
                          M               endif
058F   340A               M               retlw  (1&&0)<<6       | (10     & .31)
                      00772               hold 9
                          M               if (1>9)        || (9>254)
                          M                error "Hold value in sequence data is out of range. Must be between 1 and 254."    
                          M               endif
0590   3409               M               retlw  9
                      00773               sdat 3,3,1,1,1,1,3,3
0591   34FF               M               retlw  (1&&(3&1))<<7   | (1&&(3&1))<<6   | (1&&(1&1))<<5   | (1&&(1&1))<<4   | (1&&(1&1))<
                            <3   | (1&&(1&1))<<2   | (1&&(3&1))<<1   | (1&&(3&1))<<0
0592   34C3               M               retlw  (1&&(3&2))<<7   | (1&&(3&2))<<6   | (1&&(1&2))<<5   | (1&&(1&2))<<4   | (1&&(1&2))<
                            <3   | (1&&(1&2))<<2   | (1&&(3&2))<<1   | (1&&(3&2))<<0
                      00774         hold 6
                          M               if (1>6)        || (6>254)
                          M                error "Hold value in sequence data is out of range. Must be between 1 and 254."    
                          M               endif
0593   3406               M               retlw  6
                      00775               sdat 0,0,1,1,1,1,0,0
0594   343C               M               retlw  (1&&(0&1))<<7   | (1&&(0&1))<<6   | (1&&(1&1))<<5   | (1&&(1&1))<<4   | (1&&(1&1))<
                            <3   | (1&&(1&1))<<2   | (1&&(0&1))<<1   | (1&&(0&1))<<0
0595   3400               M               retlw  (1&&(0&2))<<7   | (1&&(0&2))<<6   | (1&&(1&2))<<5   | (1&&(1&2))<<4   | (1&&(1&2))<
                            <3   | (1&&(1&2))<<2   | (1&&(0&2))<<1   | (1&&(0&2))<<0
                      00776         hold 9
                          M               if (1>9)        || (9>254)
                          M                error "Hold value in sequence data is out of range. Must be between 1 and 254."    
                          M               endif
0596   3409               M               retlw  9
                      00777               sdat 3,3,1,1,1,1,3,3
0597   34FF               M               retlw  (1&&(3&1))<<7   | (1&&(3&1))<<6   | (1&&(1&1))<<5   | (1&&(1&1))<<4   | (1&&(1&1))<
                            <3   | (1&&(1&1))<<2   | (1&&(3&1))<<1   | (1&&(3&1))<<0
0598   34C3               M               retlw  (1&&(3&2))<<7   | (1&&(3&2))<<6   | (1&&(1&2))<<5   | (1&&(1&2))<<4   | (1&&(1&2))<
                            <3   | (1&&(1&2))<<2   | (1&&(3&2))<<1   | (1&&(3&2))<<0
                      00778         hold 6
                          M               if (1>6)        || (6>254)
                          M                error "Hold value in sequence data is out of range. Must be between 1 and 254."    
                          M               endif
0599   3406               M               retlw  6
                      00779               sdat 0,0,1,1,1,1,0,0
059A   343C               M               retlw  (1&&(0&1))<<7   | (1&&(0&1))<<6   | (1&&(1&1))<<5   | (1&&(1&1))<<4   | (1&&(1&1))<
                            <3   | (1&&(1&1))<<2   | (1&&(0&1))<<1   | (1&&(0&1))<<0
059B   3400               M               retlw  (1&&(0&2))<<7   | (1&&(0&2))<<6   | (1&&(1&2))<<5   | (1&&(1&2))<<4   | (1&&(1&2))<
                            <3   | (1&&(1&2))<<2   | (1&&(0&2))<<1   | (1&&(0&2))<<0
                      00780 
                      00781         hold 9
                          M               if (1>9)        || (9>254)
                          M                error "Hold value in sequence data is out of range. Must be between 1 and 254."    
                          M               endif
059C   3409               M               retlw  9
                      00782               sdat 1,1,3,3,3,3,1,1
059D   34FF               M               retlw  (1&&(1&1))<<7   | (1&&(1&1))<<6   | (1&&(3&1))<<5   | (1&&(3&1))<<4   | (1&&(3&1))<
                            <3   | (1&&(3&1))<<2   | (1&&(1&1))<<1   | (1&&(1&1))<<0
MPASM  5.43                  PWMC_MAIN107.ASM   3-28-2012  11:36:08         PAGE 86


LOC  OBJECT CODE     LINE SOURCE TEXT
  VALUE

059E   343C               M               retlw  (1&&(1&2))<<7   | (1&&(1&2))<<6   | (1&&(3&2))<<5   | (1&&(3&2))<<4   | (1&&(3&2))<
                            <3   | (1&&(3&2))<<2   | (1&&(1&2))<<1   | (1&&(1&2))<<0
                      00783         hold 6
                          M               if (1>6)        || (6>254)
                          M                error "Hold value in sequence data is out of range. Must be between 1 and 254."    
                          M               endif
059F   3406               M               retlw  6
                      00784               sdat 1,1,0,0,0,0,1,1
05A0   34C3               M               retlw  (1&&(1&1))<<7   | (1&&(1&1))<<6   | (1&&(0&1))<<5   | (1&&(0&1))<<4   | (1&&(0&1))<
                            <3   | (1&&(0&1))<<2   | (1&&(1&1))<<1   | (1&&(1&1))<<0
05A1   3400               M               retlw  (1&&(1&2))<<7   | (1&&(1&2))<<6   | (1&&(0&2))<<5   | (1&&(0&2))<<4   | (1&&(0&2))<
                            <3   | (1&&(0&2))<<2   | (1&&(1&2))<<1   | (1&&(1&2))<<0
                      00785         hold 9
                          M               if (1>9)        || (9>254)
                          M                error "Hold value in sequence data is out of range. Must be between 1 and 254."    
                          M               endif
05A2   3409               M               retlw  9
                      00786               sdat 1,1,3,3,3,3,1,1
05A3   34FF               M               retlw  (1&&(1&1))<<7   | (1&&(1&1))<<6   | (1&&(3&1))<<5   | (1&&(3&1))<<4   | (1&&(3&1))<
                            <3   | (1&&(3&1))<<2   | (1&&(1&1))<<1   | (1&&(1&1))<<0
05A4   343C               M               retlw  (1&&(1&2))<<7   | (1&&(1&2))<<6   | (1&&(3&2))<<5   | (1&&(3&2))<<4   | (1&&(3&2))<
                            <3   | (1&&(3&2))<<2   | (1&&(1&2))<<1   | (1&&(1&2))<<0
                      00787         hold 6
                          M               if (1>6)        || (6>254)
                          M                error "Hold value in sequence data is out of range. Must be between 1 and 254."    
                          M               endif
05A5   3406               M               retlw  6
                      00788               sdat 1,1,0,0,0,0,1,1
05A6   34C3               M               retlw  (1&&(1&1))<<7   | (1&&(1&1))<<6   | (1&&(0&1))<<5   | (1&&(0&1))<<4   | (1&&(0&1))<
                            <3   | (1&&(0&1))<<2   | (1&&(1&1))<<1   | (1&&(1&1))<<0
05A7   3400               M               retlw  (1&&(1&2))<<7   | (1&&(1&2))<<6   | (1&&(0&2))<<5   | (1&&(0&2))<<4   | (1&&(0&2))<
                            <3   | (1&&(0&2))<<2   | (1&&(1&2))<<1   | (1&&(1&2))<<0
                      00789 
                      00790         seqend
05A8   34FF               M               retlw  .255
                      00791 
                      00792 ; ----------------------------------
                      00233               ;#include pwmc_xmastree.inc               ; alternate data for use with xmas tree pcb
                      00234               ;#include pwmc_round.inc                  ; alternate data for use with the round pcb
                      00235 
                      00236               ; Do not remove this instruction
05A9   34FF           00237 _markLast     retlw         .255          ; Ensure last sequence is marked
                      00238 ; ------------------------------------------------------------------------------------------------------
                      00239 
3F74                  00240               end           ; end of instructions, always needed
MPASM  5.43                  PWMC_MAIN107.ASM   3-28-2012  11:36:08         PAGE 87


SYMBOL TABLE
  LABEL                             VALUE 

ADDEN                             00000003
ADEN                              00000003
BRGH                              00000002
C                                 00000000
C1INV                             00000004
C1OUT                             00000006
C2INV                             00000005
C2OUT                             00000007
CCP1CON                           00000017
CCP1IE                            00000002
CCP1IF                            00000002
CCP1M0                            00000000
CCP1M1                            00000001
CCP1M2                            00000002
CCP1M3                            00000003
CCP1X                             00000005
CCP1Y                             00000004
CCPR1                             00000015
CCPR1H                            00000016
CCPR1L                            00000015
CIS                               00000003
CM0                               00000000
CM1                               00000001
CM2                               00000002
CMCON                             0000001F
CMIE                              00000006
CMIF                              00000006
CREN                              00000004
CSRC                              00000007
DATA_CP_OFF                       00003FFF
DATA_CP_ON                        00003EFF
DC                                00000001
EEADR                             0000009B
EECON1                            0000009C
EECON2                            0000009D
EEDATA                            0000009A
EEIE                              00000007
EEIF                              00000007
F                                 00000001
FERR                              00000002
FSR                               00000004
GIE                               00000007
INDF                              00000000
INTCON                            0000000B
INTE                              00000004
INTEDG                            00000006
INTERRUPT_V                       00000004
INTF                              00000001
IRP                               00000007
LFSRH                             00000041
LFSRL                             00000042
NOT_BO                            00000000
NOT_BOD                           00000000
MPASM  5.43                  PWMC_MAIN107.ASM   3-28-2012  11:36:08         PAGE 88


SYMBOL TABLE
  LABEL                             VALUE 

NOT_BOR                           00000000
NOT_PD                            00000003
NOT_POR                           00000001
NOT_RBPU                          00000007
NOT_T1SYNC                        00000002
NOT_TO                            00000004
OERR                              00000001
OPTION_REG                        00000081
OSCF                              00000003
PCL                               00000002
PCLATH                            0000000A
PCON                              0000008E
PEIE                              00000006
PIE1                              0000008C
PIR1                              0000000C
PORTA                             00000005
PORTB                             00000006
PR2                               00000092
PS0                               00000000
PS1                               00000001
PS2                               00000002
PSA                               00000003
RA0                               00000000
RA1                               00000001
RA2                               00000002
RA3                               00000003
RA4                               00000004
RA5                               00000005
RA6                               00000006
RA7                               00000007
RB0                               00000000
RB1                               00000001
RB2                               00000002
RB3                               00000003
RB4                               00000004
RB5                               00000005
RB6                               00000006
RB7                               00000007
RBIE                              00000003
RBIF                              00000000
RCIE                              00000005
RCIF                              00000005
RCREG                             0000001A
RCSTA                             00000018
RD                                00000000
RESET_VECTOR                      00000000
RP0                               00000005
RP1                               00000006
RX9                               00000006
RX9D                              00000000
RandMask                          0000002C
SPBRG                             00000099
SPEN                              00000007
MPASM  5.43                  PWMC_MAIN107.ASM   3-28-2012  11:36:08         PAGE 89


SYMBOL TABLE
  LABEL                             VALUE 

SREN                              00000005
START                             000000C5
STATUS                            00000003
SYNC                              00000004
SeqBaseAddr                       000001E5
T0CS                              00000005
T0IE                              00000005
T0IF                              00000002
T0SE                              00000004
T1CKPS0                           00000004
T1CKPS1                           00000005
T1CON                             00000010
T1OSCEN                           00000003
T2CKPS0                           00000000
T2CKPS1                           00000001
T2CON                             00000012
TMR0                              00000001
TMR0IE                            00000005
TMR0IF                            00000002
TMR1CS                            00000001
TMR1H                             0000000F
TMR1IE                            00000000
TMR1IF                            00000000
TMR1L                             0000000E
TMR1ON                            00000000
TMR2                              00000011
TMR2IE                            00000001
TMR2IF                            00000001
TMR2ON                            00000002
TOUTPS0                           00000003
TOUTPS1                           00000004
TOUTPS2                           00000005
TOUTPS3                           00000006
TRISA                             00000085
TRISA0                            00000000
TRISA1                            00000001
TRISA2                            00000002
TRISA3                            00000003
TRISA4                            00000004
TRISA5                            00000005
TRISA6                            00000006
TRISA7                            00000007
TRISB                             00000086
TRISB0                            00000000
TRISB1                            00000001
TRISB2                            00000002
TRISB3                            00000003
TRISB4                            00000004
TRISB5                            00000005
TRISB6                            00000006
TRISB7                            00000007
TRMT                              00000001
TX9                               00000006
MPASM  5.43                  PWMC_MAIN107.ASM   3-28-2012  11:36:08         PAGE 90


SYMBOL TABLE
  LABEL                             VALUE 

TX9D                              00000000
TXEN                              00000005
TXIE                              00000004
TXIF                              00000004
TXREG                             00000019
TXSTA                             00000098
VR0                               00000000
VR1                               00000001
VR2                               00000002
VR3                               00000003
VRCON                             0000009F
VREN                              00000007
VROE                              00000006
VRR                               00000005
W                                 00000000
WR                                00000001
WREN                              00000002
WRERR                             00000003
Z                                 00000002
_.org_2_01E1                      000001E1
_BODEN_OFF                        00003FBF
_BODEN_ON                         00003FFF
_BOREN_OFF                        00003FBF
_BOREN_ON                         00003FFF
_CONFIG                           00002007
_CPD_OFF                          00003FFF
_CPD_ON                           00003EFF
_CP_OFF                           00003FFF
_CP_ON                            00001FFF
_DEVID1                           00002006
_ER_OSC_CLKOUT                    00003FFF
_ER_OSC_NOCLKOUT                  00003FFE
_EXTCLK_OSC                       00003FEF
_FOSC_ECIO                        00003FEF
_FOSC_EXTRCCLK                    00003FFF
_FOSC_EXTRCIO                     00003FFE
_FOSC_HS                          00003FEE
_FOSC_INTOSCCLK                   00003FFD
_FOSC_INTOSCIO                    00003FFC
_FOSC_LP                          00003FEC
_FOSC_XT                          00003FED
_HS_OSC                           00003FEE
_IDLOC0                           00002000
_IDLOC1                           00002001
_IDLOC2                           00002002
_IDLOC3                           00002003
_INTOSC_OSC_CLKOUT                00003FFD
_INTOSC_OSC_NOCLKOUT              00003FFC
_INTRC_OSC_CLKOUT                 00003FFD
_INTRC_OSC_NOCLKOUT               00003FFC
_LP_OSC                           00003FEC
_LVP_OFF                          00003F7F
_LVP_ON                           00003FFF
MPASM  5.43                  PWMC_MAIN107.ASM   3-28-2012  11:36:08         PAGE 91


SYMBOL TABLE
  LABEL                             VALUE 

_Lookup                           0000012C
_MCLRE_OFF                        00003FDF
_MCLRE_ON                         00003FFF
_PWRTE_OFF                        00003FFF
_PWRTE_ON                         00003FF7
_RC_OSC_CLKOUT                    00003FFF
_RC_OSC_NOCLKOUT                  00003FFE
_S00                              00000048
_S00rndMir                        00000054
_S01                              0000005B
_S01auto                          00000065
_S02                              0000006D
_S03                              00000075
_S04                              00000080
_S05                              00000091
_S06                              0000009D
_S07                              000000BD
_WDTE_OFF                         00003FFB
_WDTE_ON                          00003FFF
_WDT_OFF                          00003FFB
_WDT_ON                           00003FFF
_XT_OSC                           00003FED
__16F628A                         00000001
_buildMask                        000000DF
_clearGPR                         000000D3
_countRstIdx                      00000176
_countSeqIn                       00000157
_countSeqLp                       0000015E
_exitINT                          0000001F
_foundEnd                         00000174
_getRandSeq                       00000089
_idleState                        00000026
_incTableRd                       00000150
_loopMask                         000000E3
_markLast                         000005A9
_mirrorData                       0000011A
_pwm                              000000F5
_randExit                         0000018E
_randNum                          00000182
_readNext                         00000165
_resetIndex                       00000140
_resetSwTimer                     00000032
_runState                         0000003D
_seqTableRd                       0000017B
_setIndex                         00000146
_setSeqBase                       0000014B
_sleep                            000000B3
_snooze                           000000B2
_swDown                           00000034
_vc32                             000000FD
bank0                             bcf       STATUS,RP0
bank1                             bsf       STATUS,RP0
cSAVETIME                         00000004
MPASM  5.43                  PWMC_MAIN107.ASM   3-28-2012  11:36:08         PAGE 92


SYMBOL TABLE
  LABEL                             VALUE 

cTICKS                            00000032
cTIMER                            0000009D
canMirror                         1<<fMirrorData
control                           
copyPORTB                         00000021
eeprom.read                       000001B3
eeprom.set.addr                   000001CE
eeprom.write.data                 000001D4
eesave_W                          00000040
fHoldTimeout                      00000000
fMirrorData                       00000006
fMirrorNext                       00000007
fSaveMode                         00000004
fSwitch                           00000001
fTick                             00000003
firstGPR                          00000020
flags                             00000037
forward                           00000032
fsetupRun                         00000002
hiReload                          00000027
hold                              
holdTime                          0000002A
indexHi                           0000003A
indexLo                           00000039
lastGPR                           00000042
loReload                          00000028
mode                              00000038
modeMan                           00000002
modeRan                           00000001
modeSeq                           00000000
modeSleep                         00000003
pwm                               00000029
reloadTemp                        00000034
repeatCount                       0000002B
restore.flags                     000001AD
restore.opmode                    00000190
reverse                           00000033
save.opmode                       000001C0
saveModeTimerH                    0000003F
saveModeTimerL                    0000003E
save_PCLATH                       0000003D
save_Status                       0000003C
save_W                            0000003B
sdat                              
seqCount                          00000031
seqIdxHi                          0000002E
seqIdxLo                          0000002D
seqMatch                          00000030
seqTotal                          0000002F
seqend                            
state                             00000020
swTimer                           00000036
switch                            00000004
MPASM  5.43                  PWMC_MAIN107.ASM   3-28-2012  11:36:08         PAGE 93


SYMBOL TABLE
  LABEL                             VALUE 

tick                              00000035
vc0                               00000022
vc1                               00000023
vc2                               00000024
vc3                               00000025
vc4                               00000026

Errors   :     0
Warnings :     0 reported,     0 suppressed
Messages :     0 reported,    14 suppressed

